

Microchip MPLAB XC8 Assembler V2.31 build 20201012212115 
                                                                                               Mon Aug 23 20:45:31 2021

Microchip MPLAB XC8 C Compiler v2.31 (Free license) build 20201012212115 Og1 
     1                           	processor	16F887
     2                           	pagewidth 120
     3                           	opt	flic
     4                           	psect	idataCOMMON,global,class=CODE,delta=2,noexec
     5                           	psect	nvBANK0,global,class=BANK0,space=1,delta=1,noexec
     6                           	psect	strings,global,class=STRING,delta=2,noexec
     7                           	psect	cinit,global,class=CODE,merge=1,delta=2
     8                           	psect	bitbssCOMMON,global,bit,class=COMMON,space=1,delta=1,noexec
     9                           	psect	dataCOMMON,global,class=COMMON,space=1,delta=1,noexec
    10                           	psect	bssBANK0,global,class=BANK0,space=1,delta=1,noexec
    11                           	psect	bssBANK1,global,class=BANK1,space=1,delta=1,noexec
    12                           	psect	clrtext,global,class=CODE,delta=2
    13                           	psect	cstackCOMMON,global,class=COMMON,space=1,delta=1,noexec
    14                           	psect	cstackBANK0,global,class=BANK0,space=1,delta=1,noexec
    15                           	psect	maintext,global,class=CODE,split=1,delta=2
    16                           	psect	text1,local,class=CODE,merge=1,delta=2,group=1
    17                           	psect	text2,local,class=CODE,merge=1,delta=2,group=1
    18                           	psect	text3,local,class=CODE,merge=1,delta=2,group=1
    19                           	psect	text4,local,class=CODE,merge=1,delta=2,group=1
    20                           	psect	text5,local,class=CODE,merge=1,delta=2,group=1
    21                           	psect	text6,local,class=CODE,merge=1,delta=2
    22                           	psect	text7,local,class=CODE,merge=1,delta=2
    23                           	psect	text8,local,class=CODE,merge=1,delta=2
    24                           	psect	text9,local,class=CODE,merge=1,delta=2
    25                           	psect	text10,local,class=CODE,merge=1,delta=2
    26                           	psect	text11,local,class=CODE,merge=1,delta=2
    27                           	psect	text12,local,class=CODE,merge=1,delta=2
    28                           	psect	text13,local,class=CODE,merge=1,delta=2
    29                           	psect	text14,local,class=CODE,merge=1,delta=2
    30                           	psect	text15,local,class=CODE,merge=1,delta=2
    31                           	psect	text16,local,class=CODE,merge=1,delta=2
    32                           	psect	text17,local,class=CODE,merge=1,delta=2
    33                           	psect	text18,local,class=CODE,merge=1,delta=2
    34                           	psect	text19,local,class=CODE,merge=1,delta=2,group=1
    35                           	psect	text20,local,class=CODE,merge=1,delta=2
    36                           	psect	intentry,global,class=CODE,delta=2
    37                           	psect	config,global,abs,ovrld,class=CONFIG,space=4,delta=2,noexec
    38                           	dabs	1,0x7E,2
    39  0000                     
    40                           ; Version 2.20
    41                           ; Generated 12/02/2020 GMT
    42                           ; 
    43                           ; Copyright © 2020, Microchip Technology Inc. and its subsidiaries ("Microchip")
    44                           ; All rights reserved.
    45                           ; 
    46                           ; This software is developed by Microchip Technology Inc. and its subsidiaries ("Microch
      +                          ip").
    47                           ; 
    48                           ; Redistribution and use in source and binary forms, with or without modification, are
    49                           ; permitted provided that the following conditions are met:
    50                           ; 
    51                           ;     1. Redistributions of source code must retain the above copyright notice, this lis
      +                          t of
    52                           ;        conditions and the following disclaimer.
    53                           ; 
    54                           ;     2. Redistributions in binary form must reproduce the above copyright notice, this 
      +                          list
    55                           ;        of conditions and the following disclaimer in the documentation and/or other
    56                           ;        materials provided with the distribution.
    57                           ; 
    58                           ;     3. Microchip's name may not be used to endorse or promote products derived from th
      +                          is
    59                           ;        software without specific prior written permission.
    60                           ; 
    61                           ; THIS SOFTWARE IS PROVIDED BY MICROCHIP "AS IS" AND ANY EXPRESS OR IMPLIED WARRANTIES,
    62                           ; INCLUDING, BUT NOT LIMITED TO, THE IMPLIED WARRANTIES OF MERCHANTABILITY AND FITNESS F
      +                          OR
    63                           ; PURPOSE ARE DISCLAIMED.  IN NO EVENT SHALL MICROCHIP BE LIABLE FOR ANY DIRECT, INDIREC
      +                          T,
    64                           ; INCIDENTAL, SPECIAL, EXEMPLARY, OR CONSEQUENTIAL DAMAGES (INCLUDING BUT NOT LIMITED TO
    65                           ; PROCUREMENT OF SUBSTITUTE GOODS OR SERVICES; LOSS OF USE, DATA OR PROFITS; OR BUSINESS
    66                           ; INTERRUPTION) HOWSOEVER CAUSED AND ON ANY THEORY OF LIABILITY, WHETHER IN CONTRACT, ST
      +                          RICT
    67                           ; LIABILITY, OR TORT (INCLUDING NEGLIGENCE OR OTHERWISE) ARISING IN ANY WAY OUT OF THE U
      +                          SE OF
    68                           ; THIS SOFTWARE, EVEN IF ADVISED OF THE POSSIBILITY OF SUCH DAMAGE.
    69                           ; 
    70                           ; 
    71                           ; Code-generator required, PIC16F887 Definitions
    72                           ; 
    73                           ; SFR Addresses
    74  0000                     	;# 
    75  0001                     	;# 
    76  0002                     	;# 
    77  0003                     	;# 
    78  0004                     	;# 
    79  0005                     	;# 
    80  0006                     	;# 
    81  0007                     	;# 
    82  0008                     	;# 
    83  0009                     	;# 
    84  000A                     	;# 
    85  000B                     	;# 
    86  000C                     	;# 
    87  000D                     	;# 
    88  000E                     	;# 
    89  000E                     	;# 
    90  000F                     	;# 
    91  0010                     	;# 
    92  0011                     	;# 
    93  0012                     	;# 
    94  0013                     	;# 
    95  0014                     	;# 
    96  0015                     	;# 
    97  0015                     	;# 
    98  0016                     	;# 
    99  0017                     	;# 
   100  0018                     	;# 
   101  0019                     	;# 
   102  001A                     	;# 
   103  001B                     	;# 
   104  001B                     	;# 
   105  001C                     	;# 
   106  001D                     	;# 
   107  001E                     	;# 
   108  001F                     	;# 
   109  0081                     	;# 
   110  0085                     	;# 
   111  0086                     	;# 
   112  0087                     	;# 
   113  0088                     	;# 
   114  0089                     	;# 
   115  008C                     	;# 
   116  008D                     	;# 
   117  008E                     	;# 
   118  008F                     	;# 
   119  0090                     	;# 
   120  0091                     	;# 
   121  0092                     	;# 
   122  0093                     	;# 
   123  0093                     	;# 
   124  0093                     	;# 
   125  0094                     	;# 
   126  0095                     	;# 
   127  0096                     	;# 
   128  0097                     	;# 
   129  0098                     	;# 
   130  0099                     	;# 
   131  009A                     	;# 
   132  009B                     	;# 
   133  009C                     	;# 
   134  009D                     	;# 
   135  009E                     	;# 
   136  009F                     	;# 
   137  0105                     	;# 
   138  0107                     	;# 
   139  0108                     	;# 
   140  0109                     	;# 
   141  010C                     	;# 
   142  010C                     	;# 
   143  010D                     	;# 
   144  010E                     	;# 
   145  010F                     	;# 
   146  0185                     	;# 
   147  0187                     	;# 
   148  0188                     	;# 
   149  0189                     	;# 
   150  018C                     	;# 
   151  018D                     	;# 
   152  0000                     	;# 
   153  0001                     	;# 
   154  0002                     	;# 
   155  0003                     	;# 
   156  0004                     	;# 
   157  0005                     	;# 
   158  0006                     	;# 
   159  0007                     	;# 
   160  0008                     	;# 
   161  0009                     	;# 
   162  000A                     	;# 
   163  000B                     	;# 
   164  000C                     	;# 
   165  000D                     	;# 
   166  000E                     	;# 
   167  000E                     	;# 
   168  000F                     	;# 
   169  0010                     	;# 
   170  0011                     	;# 
   171  0012                     	;# 
   172  0013                     	;# 
   173  0014                     	;# 
   174  0015                     	;# 
   175  0015                     	;# 
   176  0016                     	;# 
   177  0017                     	;# 
   178  0018                     	;# 
   179  0019                     	;# 
   180  001A                     	;# 
   181  001B                     	;# 
   182  001B                     	;# 
   183  001C                     	;# 
   184  001D                     	;# 
   185  001E                     	;# 
   186  001F                     	;# 
   187  0081                     	;# 
   188  0085                     	;# 
   189  0086                     	;# 
   190  0087                     	;# 
   191  0088                     	;# 
   192  0089                     	;# 
   193  008C                     	;# 
   194  008D                     	;# 
   195  008E                     	;# 
   196  008F                     	;# 
   197  0090                     	;# 
   198  0091                     	;# 
   199  0092                     	;# 
   200  0093                     	;# 
   201  0093                     	;# 
   202  0093                     	;# 
   203  0094                     	;# 
   204  0095                     	;# 
   205  0096                     	;# 
   206  0097                     	;# 
   207  0098                     	;# 
   208  0099                     	;# 
   209  009A                     	;# 
   210  009B                     	;# 
   211  009C                     	;# 
   212  009D                     	;# 
   213  009E                     	;# 
   214  009F                     	;# 
   215  0105                     	;# 
   216  0107                     	;# 
   217  0108                     	;# 
   218  0109                     	;# 
   219  010C                     	;# 
   220  010C                     	;# 
   221  010D                     	;# 
   222  010E                     	;# 
   223  010F                     	;# 
   224  0185                     	;# 
   225  0187                     	;# 
   226  0188                     	;# 
   227  0189                     	;# 
   228  018C                     	;# 
   229  018D                     	;# 
   230  0000                     	;# 
   231  0001                     	;# 
   232  0002                     	;# 
   233  0003                     	;# 
   234  0004                     	;# 
   235  0005                     	;# 
   236  0006                     	;# 
   237  0007                     	;# 
   238  0008                     	;# 
   239  0009                     	;# 
   240  000A                     	;# 
   241  000B                     	;# 
   242  000C                     	;# 
   243  000D                     	;# 
   244  000E                     	;# 
   245  000E                     	;# 
   246  000F                     	;# 
   247  0010                     	;# 
   248  0011                     	;# 
   249  0012                     	;# 
   250  0013                     	;# 
   251  0014                     	;# 
   252  0015                     	;# 
   253  0015                     	;# 
   254  0016                     	;# 
   255  0017                     	;# 
   256  0018                     	;# 
   257  0019                     	;# 
   258  001A                     	;# 
   259  001B                     	;# 
   260  001B                     	;# 
   261  001C                     	;# 
   262  001D                     	;# 
   263  001E                     	;# 
   264  001F                     	;# 
   265  0081                     	;# 
   266  0085                     	;# 
   267  0086                     	;# 
   268  0087                     	;# 
   269  0088                     	;# 
   270  0089                     	;# 
   271  008C                     	;# 
   272  008D                     	;# 
   273  008E                     	;# 
   274  008F                     	;# 
   275  0090                     	;# 
   276  0091                     	;# 
   277  0092                     	;# 
   278  0093                     	;# 
   279  0093                     	;# 
   280  0093                     	;# 
   281  0094                     	;# 
   282  0095                     	;# 
   283  0096                     	;# 
   284  0097                     	;# 
   285  0098                     	;# 
   286  0099                     	;# 
   287  009A                     	;# 
   288  009B                     	;# 
   289  009C                     	;# 
   290  009D                     	;# 
   291  009E                     	;# 
   292  009F                     	;# 
   293  0105                     	;# 
   294  0107                     	;# 
   295  0108                     	;# 
   296  0109                     	;# 
   297  010C                     	;# 
   298  010C                     	;# 
   299  010D                     	;# 
   300  010E                     	;# 
   301  010F                     	;# 
   302  0185                     	;# 
   303  0187                     	;# 
   304  0188                     	;# 
   305  0189                     	;# 
   306  018C                     	;# 
   307  018D                     	;# 
   308  0000                     	;# 
   309  0001                     	;# 
   310  0002                     	;# 
   311  0003                     	;# 
   312  0004                     	;# 
   313  0005                     	;# 
   314  0006                     	;# 
   315  0007                     	;# 
   316  0008                     	;# 
   317  0009                     	;# 
   318  000A                     	;# 
   319  000B                     	;# 
   320  000C                     	;# 
   321  000D                     	;# 
   322  000E                     	;# 
   323  000E                     	;# 
   324  000F                     	;# 
   325  0010                     	;# 
   326  0011                     	;# 
   327  0012                     	;# 
   328  0013                     	;# 
   329  0014                     	;# 
   330  0015                     	;# 
   331  0015                     	;# 
   332  0016                     	;# 
   333  0017                     	;# 
   334  0018                     	;# 
   335  0019                     	;# 
   336  001A                     	;# 
   337  001B                     	;# 
   338  001B                     	;# 
   339  001C                     	;# 
   340  001D                     	;# 
   341  001E                     	;# 
   342  001F                     	;# 
   343  0081                     	;# 
   344  0085                     	;# 
   345  0086                     	;# 
   346  0087                     	;# 
   347  0088                     	;# 
   348  0089                     	;# 
   349  008C                     	;# 
   350  008D                     	;# 
   351  008E                     	;# 
   352  008F                     	;# 
   353  0090                     	;# 
   354  0091                     	;# 
   355  0092                     	;# 
   356  0093                     	;# 
   357  0093                     	;# 
   358  0093                     	;# 
   359  0094                     	;# 
   360  0095                     	;# 
   361  0096                     	;# 
   362  0097                     	;# 
   363  0098                     	;# 
   364  0099                     	;# 
   365  009A                     	;# 
   366  009B                     	;# 
   367  009C                     	;# 
   368  009D                     	;# 
   369  009E                     	;# 
   370  009F                     	;# 
   371  0105                     	;# 
   372  0107                     	;# 
   373  0108                     	;# 
   374  0109                     	;# 
   375  010C                     	;# 
   376  010C                     	;# 
   377  010D                     	;# 
   378  010E                     	;# 
   379  010F                     	;# 
   380  0185                     	;# 
   381  0187                     	;# 
   382  0188                     	;# 
   383  0189                     	;# 
   384  018C                     	;# 
   385  018D                     	;# 
   386                           
   387                           	psect	idataCOMMON
   388  0003                     __pidataCOMMON:
   389                           
   390                           ;initializer for _backlight_val
   391  0003  3408               	retlw	8
   392                           
   393                           	psect	nvBANK0
   394  006F                     __pnvBANK0:
   395  006F                     _i2c_addr:
   396  006F                     	ds	1
   397  001A                     _RCREG	set	26
   398  0019                     _TXREG	set	25
   399  0018                     _RCSTAbits	set	24
   400  0013                     _SSPBUF	set	19
   401  0014                     _SSPCON	set	20
   402  0008                     _PORTD	set	8
   403  0007                     _PORTC	set	7
   404  0005                     _PORTA	set	5
   405  0063                     _SSPIF	set	99
   406  005E                     _PEIE	set	94
   407  005F                     _GIE	set	95
   408  009A                     _SPBRGH	set	154
   409  0099                     _SPBRG	set	153
   410  0098                     _TXSTAbits	set	152
   411  0091                     _SSPCON2bits	set	145
   412  0087                     _TRISCbits	set	135
   413  0094                     _SSPSTAT	set	148
   414  0093                     _SSPADD	set	147
   415  0091                     _SSPCON2	set	145
   416  008F                     _OSCCONbits	set	143
   417  0088                     _TRISD	set	136
   418  0087                     _TRISC	set	135
   419  0085                     _TRISA	set	133
   420  0463                     _SSPIE	set	1123
   421  043C                     _TRISC4	set	1084
   422  043B                     _TRISC3	set	1083
   423  0187                     _BAUDCTLbits	set	391
   424  0189                     _ANSELH	set	393
   425  0188                     _ANSEL	set	392
   426                           
   427                           	psect	strings
   428  0800                     __pstrings:
   429  0800                     stringtab:
   430  0800                     __stringtab:
   431  0800                     stringcode:	
   432                           ;	String table - string pointers are 1 byte each
   433                           
   434  0800                     stringdir:
   435  0800  3008               	movlw	high stringdir
   436  0801  008A               	movwf	10
   437  0802  0804               	movf	4,w
   438  0803  0A84               	incf	4,f
   439  0804  0782               	addwf	2,f
   440  0805                     __stringbase:
   441  0805  3400               	retlw	0
   442  0806                     __end_of__stringtab:
   443  0806                     STR_1:
   444  0806  3448               	retlw	72	;'H'
   445  0807  3465               	retlw	101	;'e'
   446  0808  346C               	retlw	108	;'l'
   447  0809  346C               	retlw	108	;'l'
   448  080A  346F               	retlw	111	;'o'
   449  080B  342C               	retlw	44	;','
   450  080C  3420               	retlw	32	;' '
   451  080D  3477               	retlw	119	;'w'
   452  080E  346F               	retlw	111	;'o'
   453  080F  3472               	retlw	114	;'r'
   454  0810  346C               	retlw	108	;'l'
   455  0811  3464               	retlw	100	;'d'
   456  0812  3421               	retlw	33	;'!'
   457  0813  3400               	retlw	0
   458                           
   459                           	psect	cinit
   460  000F                     start_initialization:	
   461                           ; #config settings
   462                           
   463  000F                     __initialization:
   464                           
   465                           ; Initialize objects allocated to COMMON
   466  000F  120A  118A  2003  120A  118A  	fcall	__pidataCOMMON	;fetch initializer
   467  0014  00FB               	movwf	__pdataCOMMON& (0+127)
   468                           
   469                           ; Clear objects allocated to BANK1
   470  0015  1383               	bcf	3,7	;select IRP bank0
   471  0016  30A0               	movlw	low __pbssBANK1
   472  0017  0084               	movwf	4
   473  0018  30AC               	movlw	low (__pbssBANK1+12)
   474  0019  120A  158A  23E7  120A  118A  	fcall	clear_ram0
   475                           
   476                           ; Clear objects allocated to BANK0
   477  001E  3062               	movlw	low __pbssBANK0
   478  001F  0084               	movwf	4
   479  0020  306F               	movlw	low (__pbssBANK0+13)
   480  0021  120A  158A  23E7  120A  118A  	fcall	clear_ram0
   481                           
   482                           ; Clear objects allocated to BITCOMMON
   483  0026  01FA               	clrf	(__pbitbssCOMMON/(0+8))& (0+127)
   484  0027                     end_of_initialization:	
   485                           ;End of C runtime variable initialization code
   486                           
   487  0027                     __end_of__initialization:
   488  0027  0183               	clrf	3
   489  0028  120A  158A  2DE4   	ljmp	_main	;jump to C main() function
   490                           
   491                           	psect	bitbssCOMMON
   492  03D0                     __pbitbssCOMMON:
   493  03D0                     _RS:
   494  03D0                     	ds	1
   495                           
   496                           	psect	dataCOMMON
   497  007B                     __pdataCOMMON:
   498  007B                     _backlight_val:
   499  007B                     	ds	1
   500                           
   501                           	psect	bssBANK0
   502  0062                     __pbssBANK0:
   503  0062                     _DataBuffer:
   504  0062                     	ds	6
   505  0068                     _humedad:
   506  0068                     	ds	2
   507  006A                     _uni:
   508  006A                     	ds	1
   509  006B                     _dec:
   510  006B                     	ds	1
   511  006C                     _cen:
   512  006C                     	ds	1
   513  006D                     _decimal:
   514  006D                     	ds	1
   515  006E                     _entero:
   516  006E                     	ds	1
   517                           
   518                           	psect	bssBANK1
   519  00A0                     __pbssBANK1:
   520  00A0                     _temperatura:
   521  00A0                     	ds	4
   522  00A4                     _Raw_temperatura:
   523  00A4                     	ds	4
   524  00A8                     _Raw_humedad:
   525  00A8                     	ds	4
   526                           
   527                           	psect	clrtext
   528  0BE7                     clear_ram0:	
   529                           ;	Called with FSR containing the base address, and
   530                           ;	W with the last address+1
   531                           
   532  0BE7  0064               	clrwdt	;clear the watchdog before getting into this loop
   533  0BE8                     clrloop0:
   534  0BE8  0180               	clrf	0	;clear RAM location pointed to by FSR
   535  0BE9  0A84               	incf	4,f	;increment pointer
   536  0BEA  0604               	xorwf	4,w	;XOR with final address
   537  0BEB  1903               	btfsc	3,2	;have we reached the end yet?
   538  0BEC  3400               	retlw	0	;all done for this memory range, return
   539  0BED  0604               	xorwf	4,w	;XOR again to restore value
   540  0BEE  2BE8               	goto	clrloop0	;do the next byte
   541                           
   542                           	psect	cstackCOMMON
   543  0070                     __pcstackCOMMON:
   544  0070                     ?_USART_Init:
   545  0070                     ?_LCD_Begin:	
   546                           ; 1 bytes @ 0x0
   547                           
   548  0070                     ?_LCD_Print:	
   549                           ; 1 bytes @ 0x0
   550                           
   551  0070                     ?_I2C_Master_Start:	
   552                           ; 1 bytes @ 0x0
   553                           
   554  0070                     ?_I2C_Master_Write:	
   555                           ; 1 bytes @ 0x0
   556                           
   557  0070                     ?_I2C_Master_Stop:	
   558                           ; 1 bytes @ 0x0
   559                           
   560  0070                     ?_I2C_Master_Read:	
   561                           ; 1 bytes @ 0x0
   562                           
   563  0070                     ?_isr:	
   564                           ; 1 bytes @ 0x0
   565                           
   566  0070                     ??_isr:	
   567                           ; 1 bytes @ 0x0
   568                           
   569  0070                     ?_main:	
   570                           ; 1 bytes @ 0x0
   571                           
   572  0070                     ?_I2C_Master_Wait:	
   573                           ; 1 bytes @ 0x0
   574                           
   575  0070                     ?_Expander_Write:	
   576                           ; 1 bytes @ 0x0
   577                           
   578  0070                     ?_LCD_Write_Nibble:	
   579                           ; 1 bytes @ 0x0
   580                           
   581  0070                     ?_LCD_Cmd:	
   582                           ; 1 bytes @ 0x0
   583                           
   584                           
   585                           ; 1 bytes @ 0x0
   586  0070                     	ds	2
   587  0072                     ??_USART_Init:
   588  0072                     ??_I2C_Master_Start:	
   589                           ; 1 bytes @ 0x2
   590                           
   591  0072                     ??_I2C_Master_Write:	
   592                           ; 1 bytes @ 0x2
   593                           
   594  0072                     ??_I2C_Master_Stop:	
   595                           ; 1 bytes @ 0x2
   596                           
   597  0072                     ??_I2C_Master_Read:	
   598                           ; 1 bytes @ 0x2
   599                           
   600  0072                     ??_I2C_Master_Wait:	
   601                           ; 1 bytes @ 0x2
   602                           
   603  0072                     ?__Umul8_16:	
   604                           ; 1 bytes @ 0x2
   605                           
   606  0072                     ?___lldiv:	
   607                           ; 2 bytes @ 0x2
   608                           
   609  0072                     ?___xxtofl:	
   610                           ; 4 bytes @ 0x2
   611                           
   612  0072                     I2C_Master_Write@d:	
   613                           ; 4 bytes @ 0x2
   614                           
   615  0072                     __Umul8_16@multiplicand:	
   616                           ; 1 bytes @ 0x2
   617                           
   618  0072                     ___lldiv@divisor:	
   619                           ; 1 bytes @ 0x2
   620                           
   621  0072                     ___xxtofl@val:	
   622                           ; 4 bytes @ 0x2
   623                           
   624                           
   625                           ; 4 bytes @ 0x2
   626  0072                     	ds	1
   627  0073                     ??_Expander_Write:
   628  0073                     I2C_Master_Read@a:	
   629                           ; 1 bytes @ 0x3
   630                           
   631  0073                     Expander_Write@value:	
   632                           ; 1 bytes @ 0x3
   633                           
   634                           
   635                           ; 1 bytes @ 0x3
   636  0073                     	ds	1
   637  0074                     ??__Umul8_16:
   638  0074                     ??_LCD_Write_Nibble:	
   639                           ; 1 bytes @ 0x4
   640                           
   641  0074                     I2C_Master_Read@temp:	
   642                           ; 1 bytes @ 0x4
   643                           
   644                           
   645                           ; 1 bytes @ 0x4
   646  0074                     	ds	1
   647  0075                     LCD_Write_Nibble@n:
   648                           
   649                           ; 1 bytes @ 0x5
   650  0075                     	ds	1
   651  0076                     ??_LCD_Print:
   652  0076                     ??_LCD_Cmd:	
   653                           ; 1 bytes @ 0x6
   654                           
   655  0076                     ??___xxtofl:	
   656                           ; 1 bytes @ 0x6
   657                           
   658  0076                     ___lldiv@dividend:	
   659                           ; 1 bytes @ 0x6
   660                           
   661                           
   662                           ; 4 bytes @ 0x6
   663  0076                     	ds	1
   664  0077                     LCD_Print@LCD_Str:
   665                           
   666                           ; 1 bytes @ 0x7
   667  0077                     	ds	1
   668  0078                     LCD_Cmd@Command:
   669  0078                     LCD_Print@i:	
   670                           ; 1 bytes @ 0x8
   671                           
   672                           
   673                           ; 1 bytes @ 0x8
   674  0078                     	ds	1
   675  0079                     ?_LCD_Goto:
   676  0079                     LCD_Goto@row:	
   677                           ; 1 bytes @ 0x9
   678                           
   679  0079                     LCD_Begin@_i2c_addr:	
   680                           ; 1 bytes @ 0x9
   681                           
   682                           
   683                           ; 1 bytes @ 0x9
   684  0079                     	ds	1
   685                           
   686                           	psect	cstackBANK0
   687  0020                     __pcstackBANK0:
   688  0020                     ??_LCD_Begin:
   689  0020                     ??_LCD_Goto:	
   690                           ; 1 bytes @ 0x0
   691                           
   692  0020                     ??___lldiv:	
   693                           ; 1 bytes @ 0x0
   694                           
   695  0020                     ___xxtofl@sign:	
   696                           ; 1 bytes @ 0x0
   697                           
   698  0020                     __Umul8_16@product:	
   699                           ; 1 bytes @ 0x0
   700                           
   701                           
   702                           ; 2 bytes @ 0x0
   703  0020                     	ds	1
   704  0021                     ___xxtofl@exp:
   705  0021                     ___lldiv@quotient:	
   706                           ; 1 bytes @ 0x1
   707                           
   708                           
   709                           ; 4 bytes @ 0x1
   710  0021                     	ds	1
   711  0022                     LCD_Goto@col:
   712  0022                     __Umul8_16@word_mpld:	
   713                           ; 1 bytes @ 0x2
   714                           
   715  0022                     ___xxtofl@arg:	
   716                           ; 2 bytes @ 0x2
   717                           
   718                           
   719                           ; 4 bytes @ 0x2
   720  0022                     	ds	2
   721  0024                     __Umul8_16@multiplier:
   722                           
   723                           ; 1 bytes @ 0x4
   724  0024                     	ds	1
   725  0025                     ___lldiv@counter:
   726                           
   727                           ; 1 bytes @ 0x5
   728  0025                     	ds	1
   729  0026                     ?_I2C_Master_Init:
   730  0026                     ?___flmul:	
   731                           ; 1 bytes @ 0x6
   732                           
   733  0026                     I2C_Master_Init@c:	
   734                           ; 4 bytes @ 0x6
   735                           
   736  0026                     ___flmul@b:	
   737                           ; 4 bytes @ 0x6
   738                           
   739                           
   740                           ; 4 bytes @ 0x6
   741  0026                     	ds	4
   742  002A                     ??_I2C_Master_Init:
   743  002A                     ___flmul@a:	
   744                           ; 1 bytes @ 0xA
   745                           
   746                           
   747                           ; 4 bytes @ 0xA
   748  002A                     	ds	4
   749  002E                     ??___flmul:
   750                           
   751                           ; 1 bytes @ 0xE
   752  002E                     	ds	5
   753  0033                     ___flmul@sign:
   754                           
   755                           ; 1 bytes @ 0x13
   756  0033                     	ds	1
   757  0034                     ___flmul@aexp:
   758                           
   759                           ; 1 bytes @ 0x14
   760  0034                     	ds	1
   761  0035                     ___flmul@grs:
   762                           
   763                           ; 4 bytes @ 0x15
   764  0035                     	ds	4
   765  0039                     ___flmul@bexp:
   766                           
   767                           ; 1 bytes @ 0x19
   768  0039                     	ds	1
   769  003A                     ___flmul@prod:
   770                           
   771                           ; 4 bytes @ 0x1A
   772  003A                     	ds	4
   773  003E                     ___flmul@temp:
   774                           
   775                           ; 2 bytes @ 0x1E
   776  003E                     	ds	2
   777  0040                     ?___fltol:
   778  0040                     ?___fladd:	
   779                           ; 4 bytes @ 0x20
   780                           
   781  0040                     ___fltol@f1:	
   782                           ; 4 bytes @ 0x20
   783                           
   784  0040                     ___fladd@b:	
   785                           ; 4 bytes @ 0x20
   786                           
   787                           
   788                           ; 4 bytes @ 0x20
   789  0040                     	ds	4
   790  0044                     ??___fltol:
   791  0044                     ___fladd@a:	
   792                           ; 1 bytes @ 0x24
   793                           
   794                           
   795                           ; 4 bytes @ 0x24
   796  0044                     	ds	4
   797  0048                     ??___fladd:
   798                           
   799                           ; 1 bytes @ 0x28
   800  0048                     	ds	1
   801  0049                     ___fltol@sign1:
   802                           
   803                           ; 1 bytes @ 0x29
   804  0049                     	ds	1
   805  004A                     ___fltol@exp1:
   806                           
   807                           ; 1 bytes @ 0x2A
   808  004A                     	ds	6
   809  0050                     ___fladd@signs:
   810                           
   811                           ; 1 bytes @ 0x30
   812  0050                     	ds	1
   813  0051                     ___fladd@aexp:
   814                           
   815                           ; 1 bytes @ 0x31
   816  0051                     	ds	1
   817  0052                     ___fladd@bexp:
   818                           
   819                           ; 1 bytes @ 0x32
   820  0052                     	ds	1
   821  0053                     ___fladd@grs:
   822                           
   823                           ; 1 bytes @ 0x33
   824  0053                     	ds	1
   825  0054                     ??_main:
   826                           
   827                           ; 1 bytes @ 0x34
   828  0054                     	ds	14
   829                           
   830                           	psect	maintext
   831  0DE4                     __pmaintext:	
   832 ;;
   833 ;;Main: autosize = 0, tempsize = 14, incstack = 0, save=0
   834 ;;
   835 ;; *************** function _main *****************
   836 ;; Defined at:
   837 ;;		line 69 in file "main.c"
   838 ;; Parameters:    Size  Location     Type
   839 ;;		None
   840 ;; Auto vars:     Size  Location     Type
   841 ;;		None
   842 ;; Return value:  Size  Location     Type
   843 ;;                  1    wreg      void 
   844 ;; Registers used:
   845 ;;		wreg, fsr0l, fsr0h, status,2, status,0, btemp+1, pclath, cstack
   846 ;; Tracked objects:
   847 ;;		On entry : B00/0
   848 ;;		On exit  : 0/0
   849 ;;		Unchanged: 0/0
   850 ;; Data sizes:     COMMON   BANK0   BANK1   BANK3   BANK2
   851 ;;      Params:         0       0       0       0       0
   852 ;;      Locals:         0       0       0       0       0
   853 ;;      Temps:          0      14       0       0       0
   854 ;;      Totals:         0      14       0       0       0
   855 ;;Total ram usage:       14 bytes
   856 ;; Hardware stack levels required when called:    7
   857 ;; This function calls:
   858 ;;		_I2C_Master_Init
   859 ;;		_I2C_Master_Read
   860 ;;		_I2C_Master_Start
   861 ;;		_I2C_Master_Stop
   862 ;;		_I2C_Master_Write
   863 ;;		_LCD_Begin
   864 ;;		_LCD_Goto
   865 ;;		_LCD_Print
   866 ;;		_USART_Init
   867 ;;		___fladd
   868 ;;		___flmul
   869 ;;		___fltol
   870 ;;		___xxtofl
   871 ;; This function is called by:
   872 ;;		Startup code after reset
   873 ;; This function uses a non-reentrant model
   874 ;;
   875                           
   876                           
   877                           ;psect for function _main
   878  0DE4                     _main:
   879  0DE4                     l2576:	
   880                           ;incstack = 0
   881                           ; Regs used in _main: [wreg-fsr0h+status,2+status,0+btemp+1+pclath+cstack]
   882                           
   883                           
   884                           ;main.c: 70:     USART_Init();
   885  0DE4  120A  158A  2419  120A  158A  	fcall	_USART_Init
   886  0DE9                     l2578:
   887                           
   888                           ;main.c: 71:     ANSEL = 0x00;
   889  0DE9  1683               	bsf	3,5	;RP0=1, select bank3
   890  0DEA  1703               	bsf	3,6	;RP1=1, select bank3
   891  0DEB  0188               	clrf	8	;volatile
   892  0DEC                     l2580:
   893                           
   894                           ;main.c: 72:     ANSELH = 0x00;
   895  0DEC  0189               	clrf	9	;volatile
   896  0DED                     l2582:
   897                           
   898                           ;main.c: 74:     TRISA = 0x00;
   899  0DED  1683               	bsf	3,5	;RP0=1, select bank1
   900  0DEE  1303               	bcf	3,6	;RP1=0, select bank1
   901  0DEF  0185               	clrf	5	;volatile
   902  0DF0                     l2584:
   903                           
   904                           ;main.c: 75:     TRISC = 0b10000000;
   905  0DF0  3080               	movlw	128
   906  0DF1  0087               	movwf	7	;volatile
   907  0DF2                     l2586:
   908                           
   909                           ;main.c: 76:     TRISD = 0x00;
   910  0DF2  0188               	clrf	8	;volatile
   911  0DF3                     l2588:
   912                           
   913                           ;main.c: 79:     OSCCONbits.IRCF = 0b111;
   914  0DF3  3070               	movlw	112
   915  0DF4  048F               	iorwf	15,f	;volatile
   916  0DF5                     l2590:
   917                           
   918                           ;main.c: 80:     OSCCONbits.SCS = 1;
   919  0DF5  140F               	bsf	15,0	;volatile
   920  0DF6                     l2592:
   921                           
   922                           ;main.c: 83:     I2C_Master_Init(100000);
   923  0DF6  3000               	movlw	0
   924  0DF7  1283               	bcf	3,5	;RP0=0, select bank0
   925  0DF8  1303               	bcf	3,6	;RP1=0, select bank0
   926  0DF9  00A9               	movwf	I2C_Master_Init@c+3
   927  0DFA  3001               	movlw	1
   928  0DFB  00A8               	movwf	I2C_Master_Init@c+2
   929  0DFC  3086               	movlw	134
   930  0DFD  00A7               	movwf	I2C_Master_Init@c+1
   931  0DFE  30A0               	movlw	160
   932  0DFF  00A6               	movwf	I2C_Master_Init@c
   933  0E00  120A  158A  24D1  120A  158A  	fcall	_I2C_Master_Init
   934  0E05                     l2594:
   935                           
   936                           ;main.c: 86:     PORTA = 0x00;
   937  0E05  1283               	bcf	3,5	;RP0=0, select bank0
   938  0E06  1303               	bcf	3,6	;RP1=0, select bank0
   939  0E07  0185               	clrf	5	;volatile
   940  0E08                     l2596:
   941                           
   942                           ;main.c: 87:     PORTC = 0x00;
   943  0E08  0187               	clrf	7	;volatile
   944  0E09                     l2598:
   945                           
   946                           ;main.c: 88:     PORTD = 0x00;
   947  0E09  0188               	clrf	8	;volatile
   948  0E0A                     l2600:
   949                           
   950                           ;main.c: 90:     LCD_Begin(0x40);
   951  0E0A  3040               	movlw	64
   952  0E0B  120A  118A  26D0  120A  158A  	fcall	_LCD_Begin
   953  0E10                     l2602:
   954                           
   955                           ;main.c: 91:     LCD_Goto(1, 1);
   956  0E10  01F9               	clrf	LCD_Goto@row
   957  0E11  0AF9               	incf	LCD_Goto@row,f
   958  0E12  3001               	movlw	1
   959  0E13  120A  158A  2509  120A  158A  	fcall	_LCD_Goto
   960  0E18                     l2604:
   961                           
   962                           ;main.c: 92:     LCD_Print("Hello, world!");
   963  0E18  3001               	movlw	(low ((STR_1-__stringbase)| (0+32768)))& (0+255)
   964  0E19  120A  158A  2541  120A  158A  	fcall	_LCD_Print
   965  0E1E                     l2606:
   966                           
   967                           ;main.c: 100:         I2C_Master_Start();
   968  0E1E  120A  158A  23EF  120A  158A  	fcall	_I2C_Master_Start
   969  0E23                     l2608:
   970                           
   971                           ;main.c: 101:         I2C_Master_Write(0x38);
   972  0E23  3038               	movlw	56
   973  0E24  120A  158A  2401  120A  158A  	fcall	_I2C_Master_Write
   974  0E29                     l2610:
   975                           
   976                           ;main.c: 102:         I2C_Master_Write(0xAC);
   977  0E29  30AC               	movlw	172
   978  0E2A  120A  158A  2401  120A  158A  	fcall	_I2C_Master_Write
   979  0E2F                     l2612:
   980                           
   981                           ;main.c: 103:         I2C_Master_Write(0x33);
   982  0E2F  3033               	movlw	51
   983  0E30  120A  158A  2401  120A  158A  	fcall	_I2C_Master_Write
   984  0E35                     l2614:
   985                           
   986                           ;main.c: 104:         I2C_Master_Write(0x00);
   987  0E35  3000               	movlw	0
   988  0E36  120A  158A  2401  120A  158A  	fcall	_I2C_Master_Write
   989  0E3B                     l2616:
   990                           
   991                           ;main.c: 105:         I2C_Master_Stop();
   992  0E3B  120A  158A  23F8  120A  158A  	fcall	_I2C_Master_Stop
   993  0E40                     l2618:
   994                           
   995                           ;main.c: 106:         _delay((unsigned long)((80)*(8000000/4000.0)));
   996  0E40  30D0               	movlw	208
   997  0E41  1283               	bcf	3,5	;RP0=0, select bank0
   998  0E42  1303               	bcf	3,6	;RP1=0, select bank0
   999  0E43  00D5               	movwf	??_main+1
  1000  0E44  30C9               	movlw	201
  1001  0E45  00D4               	movwf	??_main
  1002  0E46                     u3207:
  1003  0E46  0BD4               	decfsz	??_main,f
  1004  0E47  2E46               	goto	u3207
  1005  0E48  0BD5               	decfsz	??_main+1,f
  1006  0E49  2E46               	goto	u3207
  1007  0E4A                     l2620:
  1008                           
  1009                           ;main.c: 109:         I2C_Master_Start();
  1010  0E4A  120A  158A  23EF  120A  158A  	fcall	_I2C_Master_Start
  1011  0E4F                     l2622:
  1012                           
  1013                           ;main.c: 110:         I2C_Master_Write(0x39);
  1014  0E4F  3039               	movlw	57
  1015  0E50  120A  158A  2401  120A  158A  	fcall	_I2C_Master_Write
  1016  0E55                     l2624:
  1017                           
  1018                           ;main.c: 111:         DataBuffer[0] = I2C_Master_Read(0);
  1019  0E55  3000               	movlw	0
  1020  0E56  120A  158A  2452  120A  158A  	fcall	_I2C_Master_Read
  1021  0E5B  1283               	bcf	3,5	;RP0=0, select bank0
  1022  0E5C  1303               	bcf	3,6	;RP1=0, select bank0
  1023  0E5D  00D4               	movwf	??_main
  1024  0E5E  0854               	movf	??_main,w
  1025  0E5F  00E2               	movwf	_DataBuffer
  1026  0E60                     l2626:
  1027                           
  1028                           ;main.c: 112:         DataBuffer[1] = I2C_Master_Read(0);
  1029  0E60  3000               	movlw	0
  1030  0E61  120A  158A  2452  120A  158A  	fcall	_I2C_Master_Read
  1031  0E66  1283               	bcf	3,5	;RP0=0, select bank0
  1032  0E67  1303               	bcf	3,6	;RP1=0, select bank0
  1033  0E68  00D4               	movwf	??_main
  1034  0E69  0854               	movf	??_main,w
  1035  0E6A  00E3               	movwf	_DataBuffer+1
  1036  0E6B                     l2628:
  1037                           
  1038                           ;main.c: 113:         DataBuffer[2] = I2C_Master_Read(0);
  1039  0E6B  3000               	movlw	0
  1040  0E6C  120A  158A  2452  120A  158A  	fcall	_I2C_Master_Read
  1041  0E71  1283               	bcf	3,5	;RP0=0, select bank0
  1042  0E72  1303               	bcf	3,6	;RP1=0, select bank0
  1043  0E73  00D4               	movwf	??_main
  1044  0E74  0854               	movf	??_main,w
  1045  0E75  00E4               	movwf	_DataBuffer+2
  1046  0E76                     l2630:
  1047                           
  1048                           ;main.c: 114:         DataBuffer[3] = I2C_Master_Read(0);
  1049  0E76  3000               	movlw	0
  1050  0E77  120A  158A  2452  120A  158A  	fcall	_I2C_Master_Read
  1051  0E7C  1283               	bcf	3,5	;RP0=0, select bank0
  1052  0E7D  1303               	bcf	3,6	;RP1=0, select bank0
  1053  0E7E  00D4               	movwf	??_main
  1054  0E7F  0854               	movf	??_main,w
  1055  0E80  00E5               	movwf	_DataBuffer+3
  1056  0E81                     l2632:
  1057                           
  1058                           ;main.c: 115:         DataBuffer[4] = I2C_Master_Read(0);
  1059  0E81  3000               	movlw	0
  1060  0E82  120A  158A  2452  120A  158A  	fcall	_I2C_Master_Read
  1061  0E87  1283               	bcf	3,5	;RP0=0, select bank0
  1062  0E88  1303               	bcf	3,6	;RP1=0, select bank0
  1063  0E89  00D4               	movwf	??_main
  1064  0E8A  0854               	movf	??_main,w
  1065  0E8B  00E6               	movwf	_DataBuffer+4
  1066  0E8C                     l2634:
  1067                           
  1068                           ;main.c: 116:         DataBuffer[5] = I2C_Master_Read(0);
  1069  0E8C  3000               	movlw	0
  1070  0E8D  120A  158A  2452  120A  158A  	fcall	_I2C_Master_Read
  1071  0E92  1283               	bcf	3,5	;RP0=0, select bank0
  1072  0E93  1303               	bcf	3,6	;RP1=0, select bank0
  1073  0E94  00D4               	movwf	??_main
  1074  0E95  0854               	movf	??_main,w
  1075  0E96  00E7               	movwf	_DataBuffer+5
  1076  0E97                     l2636:
  1077                           
  1078                           ;main.c: 117:         I2C_Master_Stop();
  1079  0E97  120A  158A  23F8  120A  158A  	fcall	_I2C_Master_Stop
  1080  0E9C                     l2638:
  1081                           
  1082                           ;main.c: 118:         _delay((unsigned long)((200)*(8000000/4000.0)));
  1083  0E9C  3003               	movlw	3
  1084  0E9D  1283               	bcf	3,5	;RP0=0, select bank0
  1085  0E9E  1303               	bcf	3,6	;RP1=0, select bank0
  1086  0E9F  00D6               	movwf	??_main+2
  1087  0EA0  3008               	movlw	8
  1088  0EA1  00D5               	movwf	??_main+1
  1089  0EA2  3076               	movlw	118
  1090  0EA3  00D4               	movwf	??_main
  1091  0EA4                     u3217:
  1092  0EA4  0BD4               	decfsz	??_main,f
  1093  0EA5  2EA4               	goto	u3217
  1094  0EA6  0BD5               	decfsz	??_main+1,f
  1095  0EA7  2EA4               	goto	u3217
  1096  0EA8  0BD6               	decfsz	??_main+2,f
  1097  0EA9  2EA4               	goto	u3217
  1098  0EAA  0000               	nop
  1099  0EAB                     l2640:
  1100                           
  1101                           ;main.c: 120:         Raw_humedad = (((uint32_t)DataBuffer[1]<<16) | ((uint16_t)DataBuff
      +                          er[2]<<8) | (DataBuffer[3]))>>4;
  1102  0EAB  1283               	bcf	3,5	;RP0=0, select bank0
  1103  0EAC  1303               	bcf	3,6	;RP1=0, select bank0
  1104  0EAD  0865               	movf	_DataBuffer+3,w
  1105  0EAE  00D4               	movwf	??_main
  1106  0EAF  01D5               	clrf	??_main+1
  1107  0EB0  01D6               	clrf	??_main+2
  1108  0EB1  01D7               	clrf	??_main+3
  1109  0EB2  0864               	movf	_DataBuffer+2,w
  1110  0EB3  00D8               	movwf	??_main+4
  1111  0EB4  01D9               	clrf	??_main+5
  1112  0EB5  0858               	movf	??_main+4,w
  1113  0EB6  00D9               	movwf	??_main+5
  1114  0EB7  01D8               	clrf	??_main+4
  1115  0EB8  0858               	movf	??_main+4,w
  1116  0EB9  00DA               	movwf	??_main+6
  1117  0EBA  0859               	movf	??_main+5,w
  1118  0EBB  00DB               	movwf	??_main+7
  1119  0EBC  01DC               	clrf	??_main+8
  1120  0EBD  01DD               	clrf	??_main+9
  1121  0EBE  0863               	movf	_DataBuffer+1,w
  1122  0EBF  00DE               	movwf	??_main+10
  1123  0EC0  01DF               	clrf	??_main+11
  1124  0EC1  01E0               	clrf	??_main+12
  1125  0EC2  01E1               	clrf	??_main+13
  1126  0EC3  3010               	movlw	16
  1127  0EC4                     u3155:
  1128  0EC4  1003               	clrc
  1129  0EC5  0DDE               	rlf	??_main+10,f
  1130  0EC6  0DDF               	rlf	??_main+11,f
  1131  0EC7  0DE0               	rlf	??_main+12,f
  1132  0EC8  0DE1               	rlf	??_main+13,f
  1133  0EC9                     u3150:
  1134  0EC9  3EFF               	addlw	-1
  1135  0ECA  1D03               	skipz
  1136  0ECB  2EC4               	goto	u3155
  1137  0ECC  085E               	movf	??_main+10,w
  1138  0ECD  04DA               	iorwf	??_main+6,f
  1139  0ECE  085F               	movf	??_main+11,w
  1140  0ECF  04DB               	iorwf	??_main+7,f
  1141  0ED0  0860               	movf	??_main+12,w
  1142  0ED1  04DC               	iorwf	??_main+8,f
  1143  0ED2  0861               	movf	??_main+13,w
  1144  0ED3  04DD               	iorwf	??_main+9,f
  1145  0ED4  085A               	movf	??_main+6,w
  1146  0ED5  04D4               	iorwf	??_main,f
  1147  0ED6  085B               	movf	??_main+7,w
  1148  0ED7  04D5               	iorwf	??_main+1,f
  1149  0ED8  085C               	movf	??_main+8,w
  1150  0ED9  04D6               	iorwf	??_main+2,f
  1151  0EDA  085D               	movf	??_main+9,w
  1152  0EDB  04D7               	iorwf	??_main+3,f
  1153  0EDC  3004               	movlw	4
  1154  0EDD                     u3165:
  1155  0EDD  1003               	clrc
  1156  0EDE  0CD7               	rrf	??_main+3,f
  1157  0EDF  0CD6               	rrf	??_main+2,f
  1158  0EE0  0CD5               	rrf	??_main+1,f
  1159  0EE1  0CD4               	rrf	??_main,f
  1160  0EE2                     u3160:
  1161  0EE2  3EFF               	addlw	-1
  1162  0EE3  1D03               	skipz
  1163  0EE4  2EDD               	goto	u3165
  1164  0EE5  0857               	movf	??_main+3,w
  1165  0EE6  1683               	bsf	3,5	;RP0=1, select bank1
  1166  0EE7  1303               	bcf	3,6	;RP1=0, select bank1
  1167  0EE8  00AB               	movwf	(_Raw_humedad+3)^(0+128)
  1168  0EE9  1283               	bcf	3,5	;RP0=0, select bank0
  1169  0EEA  1303               	bcf	3,6	;RP1=0, select bank0
  1170  0EEB  0856               	movf	??_main+2,w
  1171  0EEC  1683               	bsf	3,5	;RP0=1, select bank1
  1172  0EED  1303               	bcf	3,6	;RP1=0, select bank1
  1173  0EEE  00AA               	movwf	(_Raw_humedad+2)^(0+128)
  1174  0EEF  1283               	bcf	3,5	;RP0=0, select bank0
  1175  0EF0  1303               	bcf	3,6	;RP1=0, select bank0
  1176  0EF1  0855               	movf	??_main+1,w
  1177  0EF2  1683               	bsf	3,5	;RP0=1, select bank1
  1178  0EF3  1303               	bcf	3,6	;RP1=0, select bank1
  1179  0EF4  00A9               	movwf	(_Raw_humedad+1)^(0+128)
  1180  0EF5  1283               	bcf	3,5	;RP0=0, select bank0
  1181  0EF6  1303               	bcf	3,6	;RP1=0, select bank0
  1182  0EF7  0854               	movf	??_main,w
  1183  0EF8  1683               	bsf	3,5	;RP0=1, select bank1
  1184  0EF9  1303               	bcf	3,6	;RP1=0, select bank1
  1185  0EFA  00A8               	movwf	_Raw_humedad^(0+128)
  1186  0EFB                     l2642:
  1187                           
  1188                           ;main.c: 121:         humedad = (char)(Raw_humedad * 0.000095);
  1189  0EFB  082B               	movf	(_Raw_humedad+3)^(0+128),w
  1190  0EFC  00F5               	movwf	___xxtofl@val+3
  1191  0EFD  082A               	movf	(_Raw_humedad+2)^(0+128),w
  1192  0EFE  00F4               	movwf	___xxtofl@val+2
  1193  0EFF  0829               	movf	(_Raw_humedad+1)^(0+128),w
  1194  0F00  00F3               	movwf	___xxtofl@val+1
  1195  0F01  0828               	movf	_Raw_humedad^(0+128),w
  1196  0F02  00F2               	movwf	___xxtofl@val
  1197  0F03  3000               	movlw	0
  1198  0F04  120A  118A  2614  120A  158A  	fcall	___xxtofl
  1199  0F09  0875               	movf	?___xxtofl+3,w
  1200  0F0A  1283               	bcf	3,5	;RP0=0, select bank0
  1201  0F0B  1303               	bcf	3,6	;RP1=0, select bank0
  1202  0F0C  00AD               	movwf	___flmul@a+3
  1203  0F0D  0874               	movf	?___xxtofl+2,w
  1204  0F0E  00AC               	movwf	___flmul@a+2
  1205  0F0F  0873               	movf	?___xxtofl+1,w
  1206  0F10  00AB               	movwf	___flmul@a+1
  1207  0F11  0872               	movf	?___xxtofl,w
  1208  0F12  00AA               	movwf	___flmul@a
  1209  0F13  3038               	movlw	56
  1210  0F14  00A9               	movwf	___flmul@b+3
  1211  0F15  30C7               	movlw	199
  1212  0F16  00A8               	movwf	___flmul@b+2
  1213  0F17  303A               	movlw	58
  1214  0F18  00A7               	movwf	___flmul@b+1
  1215  0F19  30BD               	movlw	189
  1216  0F1A  00A6               	movwf	___flmul@b
  1217  0F1B  120A  118A  202B  120A  158A  	fcall	___flmul
  1218  0F20  1283               	bcf	3,5	;RP0=0, select bank0
  1219  0F21  1303               	bcf	3,6	;RP1=0, select bank0
  1220  0F22  0829               	movf	?___flmul+3,w
  1221  0F23  00C3               	movwf	___fltol@f1+3
  1222  0F24  0828               	movf	?___flmul+2,w
  1223  0F25  00C2               	movwf	___fltol@f1+2
  1224  0F26  0827               	movf	?___flmul+1,w
  1225  0F27  00C1               	movwf	___fltol@f1+1
  1226  0F28  0826               	movf	?___flmul,w
  1227  0F29  00C0               	movwf	___fltol@f1
  1228  0F2A  120A  118A  2769  120A  158A  	fcall	___fltol
  1229  0F2F  1283               	bcf	3,5	;RP0=0, select bank0
  1230  0F30  1303               	bcf	3,6	;RP1=0, select bank0
  1231  0F31  0840               	movf	?___fltol,w
  1232  0F32  00D4               	movwf	??_main
  1233  0F33  01D5               	clrf	??_main+1
  1234  0F34  0854               	movf	??_main,w
  1235  0F35  00E8               	movwf	_humedad
  1236  0F36  0855               	movf	??_main+1,w
  1237  0F37  00E9               	movwf	_humedad+1
  1238  0F38                     l2644:
  1239                           
  1240                           ;main.c: 124:         if(humedad < 0){humedad = 0;}
  1241  0F38  1FE9               	btfss	_humedad+1,7
  1242  0F39  2F3B               	goto	u3171
  1243  0F3A  2F3C               	goto	u3170
  1244  0F3B                     u3171:
  1245  0F3B  2F3E               	goto	l2648
  1246  0F3C                     u3170:
  1247  0F3C                     l2646:
  1248  0F3C  01E8               	clrf	_humedad
  1249  0F3D  01E9               	clrf	_humedad+1
  1250  0F3E                     l2648:
  1251                           
  1252                           ;main.c: 125:         if(humedad > 100){humedad = 100;}
  1253  0F3E  0869               	movf	_humedad+1,w
  1254  0F3F  3A80               	xorlw	128
  1255  0F40  00FF               	movwf	btemp+1
  1256  0F41  3080               	movlw	128
  1257  0F42  027F               	subwf	btemp+1,w
  1258  0F43  1D03               	skipz
  1259  0F44  2F47               	goto	u3185
  1260  0F45  3065               	movlw	101
  1261  0F46  0268               	subwf	_humedad,w
  1262  0F47                     u3185:
  1263  0F47  1C03               	skipc
  1264  0F48  2F4A               	goto	u3181
  1265  0F49  2F4B               	goto	u3180
  1266  0F4A                     u3181:
  1267  0F4A  2F51               	goto	l2652
  1268  0F4B                     u3180:
  1269  0F4B                     l2650:
  1270  0F4B  3064               	movlw	100
  1271  0F4C  1283               	bcf	3,5	;RP0=0, select bank0
  1272  0F4D  1303               	bcf	3,6	;RP1=0, select bank0
  1273  0F4E  00E8               	movwf	_humedad
  1274  0F4F  3000               	movlw	0
  1275  0F50  00E9               	movwf	_humedad+1
  1276  0F51                     l2652:
  1277                           
  1278                           ;main.c: 127:         Raw_temperatura = (((uint32_t)(DataBuffer[3] & 0x0F) <<16) | ((uin
      +                          t16_t)DataBuffer[4]<<8) | (DataBuffer[5]));
  1279  0F51  1283               	bcf	3,5	;RP0=0, select bank0
  1280  0F52  1303               	bcf	3,6	;RP1=0, select bank0
  1281  0F53  0867               	movf	_DataBuffer+5,w
  1282  0F54  00D4               	movwf	??_main
  1283  0F55  01D5               	clrf	??_main+1
  1284  0F56  01D6               	clrf	??_main+2
  1285  0F57  01D7               	clrf	??_main+3
  1286  0F58  0866               	movf	_DataBuffer+4,w
  1287  0F59  00D8               	movwf	??_main+4
  1288  0F5A  01D9               	clrf	??_main+5
  1289  0F5B  0858               	movf	??_main+4,w
  1290  0F5C  00D9               	movwf	??_main+5
  1291  0F5D  01D8               	clrf	??_main+4
  1292  0F5E  0858               	movf	??_main+4,w
  1293  0F5F  00DA               	movwf	??_main+6
  1294  0F60  0859               	movf	??_main+5,w
  1295  0F61  00DB               	movwf	??_main+7
  1296  0F62  01DC               	clrf	??_main+8
  1297  0F63  01DD               	clrf	??_main+9
  1298  0F64  0865               	movf	_DataBuffer+3,w
  1299  0F65  390F               	andlw	15
  1300  0F66  00DE               	movwf	??_main+10
  1301  0F67  01DF               	clrf	??_main+11
  1302  0F68  01E0               	clrf	??_main+12
  1303  0F69  01E1               	clrf	??_main+13
  1304  0F6A  3010               	movlw	16
  1305  0F6B                     u3195:
  1306  0F6B  1003               	clrc
  1307  0F6C  0DDE               	rlf	??_main+10,f
  1308  0F6D  0DDF               	rlf	??_main+11,f
  1309  0F6E  0DE0               	rlf	??_main+12,f
  1310  0F6F  0DE1               	rlf	??_main+13,f
  1311  0F70                     u3190:
  1312  0F70  3EFF               	addlw	-1
  1313  0F71  1D03               	skipz
  1314  0F72  2F6B               	goto	u3195
  1315  0F73  085E               	movf	??_main+10,w
  1316  0F74  04DA               	iorwf	??_main+6,f
  1317  0F75  085F               	movf	??_main+11,w
  1318  0F76  04DB               	iorwf	??_main+7,f
  1319  0F77  0860               	movf	??_main+12,w
  1320  0F78  04DC               	iorwf	??_main+8,f
  1321  0F79  0861               	movf	??_main+13,w
  1322  0F7A  04DD               	iorwf	??_main+9,f
  1323  0F7B  0854               	movf	??_main,w
  1324  0F7C  045A               	iorwf	??_main+6,w
  1325  0F7D  1683               	bsf	3,5	;RP0=1, select bank1
  1326  0F7E  1303               	bcf	3,6	;RP1=0, select bank1
  1327  0F7F  00A4               	movwf	_Raw_temperatura^(0+128)
  1328  0F80  1283               	bcf	3,5	;RP0=0, select bank0
  1329  0F81  1303               	bcf	3,6	;RP1=0, select bank0
  1330  0F82  0855               	movf	??_main+1,w
  1331  0F83  045B               	iorwf	??_main+7,w
  1332  0F84  1683               	bsf	3,5	;RP0=1, select bank1
  1333  0F85  1303               	bcf	3,6	;RP1=0, select bank1
  1334  0F86  00A5               	movwf	(_Raw_temperatura+1)^(0+128)
  1335  0F87  1283               	bcf	3,5	;RP0=0, select bank0
  1336  0F88  1303               	bcf	3,6	;RP1=0, select bank0
  1337  0F89  0856               	movf	??_main+2,w
  1338  0F8A  045C               	iorwf	??_main+8,w
  1339  0F8B  1683               	bsf	3,5	;RP0=1, select bank1
  1340  0F8C  1303               	bcf	3,6	;RP1=0, select bank1
  1341  0F8D  00A6               	movwf	(_Raw_temperatura+2)^(0+128)
  1342  0F8E  1283               	bcf	3,5	;RP0=0, select bank0
  1343  0F8F  1303               	bcf	3,6	;RP1=0, select bank0
  1344  0F90  0857               	movf	??_main+3,w
  1345  0F91  045D               	iorwf	??_main+9,w
  1346  0F92  1683               	bsf	3,5	;RP0=1, select bank1
  1347  0F93  1303               	bcf	3,6	;RP1=0, select bank1
  1348  0F94  00A7               	movwf	(_Raw_temperatura+3)^(0+128)
  1349  0F95                     l2654:
  1350                           
  1351                           ;main.c: 128:         temperatura = Raw_temperatura * 0.000191 -50;
  1352  0F95  30C2               	movlw	194
  1353  0F96  1283               	bcf	3,5	;RP0=0, select bank0
  1354  0F97  1303               	bcf	3,6	;RP1=0, select bank0
  1355  0F98  00C3               	movwf	___fladd@b+3
  1356  0F99  3048               	movlw	72
  1357  0F9A  00C2               	movwf	___fladd@b+2
  1358  0F9B  3000               	movlw	0
  1359  0F9C  00C1               	movwf	___fladd@b+1
  1360  0F9D  3000               	movlw	0
  1361  0F9E  00C0               	movwf	___fladd@b
  1362  0F9F  3039               	movlw	57
  1363  0FA0  00A9               	movwf	___flmul@b+3
  1364  0FA1  3048               	movlw	72
  1365  0FA2  00A8               	movwf	___flmul@b+2
  1366  0FA3  3047               	movlw	71
  1367  0FA4  00A7               	movwf	___flmul@b+1
  1368  0FA5  302C               	movlw	44
  1369  0FA6  00A6               	movwf	___flmul@b
  1370  0FA7  1683               	bsf	3,5	;RP0=1, select bank1
  1371  0FA8  1303               	bcf	3,6	;RP1=0, select bank1
  1372  0FA9  0827               	movf	(_Raw_temperatura+3)^(0+128),w
  1373  0FAA  00F5               	movwf	___xxtofl@val+3
  1374  0FAB  0826               	movf	(_Raw_temperatura+2)^(0+128),w
  1375  0FAC  00F4               	movwf	___xxtofl@val+2
  1376  0FAD  0825               	movf	(_Raw_temperatura+1)^(0+128),w
  1377  0FAE  00F3               	movwf	___xxtofl@val+1
  1378  0FAF  0824               	movf	_Raw_temperatura^(0+128),w
  1379  0FB0  00F2               	movwf	___xxtofl@val
  1380  0FB1  3000               	movlw	0
  1381  0FB2  120A  118A  2614  120A  158A  	fcall	___xxtofl
  1382  0FB7  0875               	movf	?___xxtofl+3,w
  1383  0FB8  1283               	bcf	3,5	;RP0=0, select bank0
  1384  0FB9  1303               	bcf	3,6	;RP1=0, select bank0
  1385  0FBA  00AD               	movwf	___flmul@a+3
  1386  0FBB  0874               	movf	?___xxtofl+2,w
  1387  0FBC  00AC               	movwf	___flmul@a+2
  1388  0FBD  0873               	movf	?___xxtofl+1,w
  1389  0FBE  00AB               	movwf	___flmul@a+1
  1390  0FBF  0872               	movf	?___xxtofl,w
  1391  0FC0  00AA               	movwf	___flmul@a
  1392  0FC1  120A  118A  202B  120A  158A  	fcall	___flmul
  1393  0FC6  1283               	bcf	3,5	;RP0=0, select bank0
  1394  0FC7  1303               	bcf	3,6	;RP1=0, select bank0
  1395  0FC8  0829               	movf	?___flmul+3,w
  1396  0FC9  00C7               	movwf	___fladd@a+3
  1397  0FCA  0828               	movf	?___flmul+2,w
  1398  0FCB  00C6               	movwf	___fladd@a+2
  1399  0FCC  0827               	movf	?___flmul+1,w
  1400  0FCD  00C5               	movwf	___fladd@a+1
  1401  0FCE  0826               	movf	?___flmul,w
  1402  0FCF  00C4               	movwf	___fladd@a
  1403  0FD0  120A  118A  238C  120A  158A  	fcall	___fladd
  1404  0FD5  1283               	bcf	3,5	;RP0=0, select bank0
  1405  0FD6  1303               	bcf	3,6	;RP1=0, select bank0
  1406  0FD7  0843               	movf	?___fladd+3,w
  1407  0FD8  1683               	bsf	3,5	;RP0=1, select bank1
  1408  0FD9  1303               	bcf	3,6	;RP1=0, select bank1
  1409  0FDA  00A3               	movwf	(_temperatura+3)^(0+128)
  1410  0FDB  1283               	bcf	3,5	;RP0=0, select bank0
  1411  0FDC  1303               	bcf	3,6	;RP1=0, select bank0
  1412  0FDD  0842               	movf	?___fladd+2,w
  1413  0FDE  1683               	bsf	3,5	;RP0=1, select bank1
  1414  0FDF  1303               	bcf	3,6	;RP1=0, select bank1
  1415  0FE0  00A2               	movwf	(_temperatura+2)^(0+128)
  1416  0FE1  1283               	bcf	3,5	;RP0=0, select bank0
  1417  0FE2  1303               	bcf	3,6	;RP1=0, select bank0
  1418  0FE3  0841               	movf	?___fladd+1,w
  1419  0FE4  1683               	bsf	3,5	;RP0=1, select bank1
  1420  0FE5  1303               	bcf	3,6	;RP1=0, select bank1
  1421  0FE6  00A1               	movwf	(_temperatura+1)^(0+128)
  1422  0FE7  1283               	bcf	3,5	;RP0=0, select bank0
  1423  0FE8  1303               	bcf	3,6	;RP1=0, select bank0
  1424  0FE9  0840               	movf	?___fladd,w
  1425  0FEA  1683               	bsf	3,5	;RP0=1, select bank1
  1426  0FEB  1303               	bcf	3,6	;RP1=0, select bank1
  1427  0FEC  00A0               	movwf	_temperatura^(0+128)
  1428  0FED                     l2656:
  1429                           
  1430                           ;main.c: 143:         _delay((unsigned long)((200)*(8000000/4000.0)));
  1431  0FED  3003               	movlw	3
  1432  0FEE  1283               	bcf	3,5	;RP0=0, select bank0
  1433  0FEF  1303               	bcf	3,6	;RP1=0, select bank0
  1434  0FF0  00D6               	movwf	??_main+2
  1435  0FF1  3008               	movlw	8
  1436  0FF2  00D5               	movwf	??_main+1
  1437  0FF3  3076               	movlw	118
  1438  0FF4  00D4               	movwf	??_main
  1439  0FF5                     u3227:
  1440  0FF5  0BD4               	decfsz	??_main,f
  1441  0FF6  2FF5               	goto	u3227
  1442  0FF7  0BD5               	decfsz	??_main+1,f
  1443  0FF8  2FF5               	goto	u3227
  1444  0FF9  0BD6               	decfsz	??_main+2,f
  1445  0FFA  2FF5               	goto	u3227
  1446  0FFB  0000               	nop
  1447  0FFC  2E1E               	goto	l2606
  1448  0FFD  120A  118A  280C   	ljmp	start
  1449  1000                     __end_of_main:
  1450                           
  1451                           	psect	text1
  1452  0614                     __ptext1:	
  1453 ;; *************** function ___xxtofl *****************
  1454 ;; Defined at:
  1455 ;;		line 10 in file "C:\Program Files\Microchip\xc8\v2.31\pic\sources\c90\common\xxtofl.c"
  1456 ;; Parameters:    Size  Location     Type
  1457 ;;  sign            1    wreg     unsigned char 
  1458 ;;  val             4    2[COMMON] long 
  1459 ;; Auto vars:     Size  Location     Type
  1460 ;;  sign            1    0[BANK0 ] unsigned char 
  1461 ;;  arg             4    2[BANK0 ] unsigned long 
  1462 ;;  exp             1    1[BANK0 ] unsigned char 
  1463 ;; Return value:  Size  Location     Type
  1464 ;;                  4    2[COMMON] unsigned char 
  1465 ;; Registers used:
  1466 ;;		wreg, status,2, status,0
  1467 ;; Tracked objects:
  1468 ;;		On entry : 0/0
  1469 ;;		On exit  : 0/0
  1470 ;;		Unchanged: 0/0
  1471 ;; Data sizes:     COMMON   BANK0   BANK1   BANK3   BANK2
  1472 ;;      Params:         4       0       0       0       0
  1473 ;;      Locals:         0       6       0       0       0
  1474 ;;      Temps:          4       0       0       0       0
  1475 ;;      Totals:         8       6       0       0       0
  1476 ;;Total ram usage:       14 bytes
  1477 ;; Hardware stack levels used:    1
  1478 ;; Hardware stack levels required when called:    1
  1479 ;; This function calls:
  1480 ;;		Nothing
  1481 ;; This function is called by:
  1482 ;;		_main
  1483 ;; This function uses a non-reentrant model
  1484 ;;
  1485                           
  1486                           
  1487                           ;psect for function ___xxtofl
  1488  0614                     ___xxtofl:
  1489                           
  1490                           ;incstack = 0
  1491                           ; Regs used in ___xxtofl: [wreg+status,2+status,0]
  1492                           ;___xxtofl@sign stored from wreg
  1493  0614  1283               	bcf	3,5	;RP0=0, select bank0
  1494  0615  1303               	bcf	3,6	;RP1=0, select bank0
  1495  0616  00A0               	movwf	___xxtofl@sign
  1496  0617                     l2148:
  1497  0617  0820               	movf	___xxtofl@sign,w
  1498  0618  1903               	btfsc	3,2
  1499  0619  2E1B               	goto	u2471
  1500  061A  2E1C               	goto	u2470
  1501  061B                     u2471:
  1502  061B  2E30               	goto	l2154
  1503  061C                     u2470:
  1504  061C                     l2150:
  1505  061C  1FF5               	btfss	___xxtofl@val+3,7
  1506  061D  2E1F               	goto	u2481
  1507  061E  2E20               	goto	u2480
  1508  061F                     u2481:
  1509  061F  2E30               	goto	l2154
  1510  0620                     u2480:
  1511  0620                     l2152:
  1512  0620  0972               	comf	___xxtofl@val,w
  1513  0621  00A2               	movwf	___xxtofl@arg
  1514  0622  0973               	comf	___xxtofl@val+1,w
  1515  0623  00A3               	movwf	___xxtofl@arg+1
  1516  0624  0974               	comf	___xxtofl@val+2,w
  1517  0625  00A4               	movwf	___xxtofl@arg+2
  1518  0626  0975               	comf	___xxtofl@val+3,w
  1519  0627  00A5               	movwf	___xxtofl@arg+3
  1520  0628  0AA2               	incf	___xxtofl@arg,f
  1521  0629  1903               	skipnz
  1522  062A  0AA3               	incf	___xxtofl@arg+1,f
  1523  062B  1903               	skipnz
  1524  062C  0AA4               	incf	___xxtofl@arg+2,f
  1525  062D  1903               	skipnz
  1526  062E  0AA5               	incf	___xxtofl@arg+3,f
  1527  062F  2E38               	goto	l741
  1528  0630                     l2154:
  1529  0630  0875               	movf	___xxtofl@val+3,w
  1530  0631  00A5               	movwf	___xxtofl@arg+3
  1531  0632  0874               	movf	___xxtofl@val+2,w
  1532  0633  00A4               	movwf	___xxtofl@arg+2
  1533  0634  0873               	movf	___xxtofl@val+1,w
  1534  0635  00A3               	movwf	___xxtofl@arg+1
  1535  0636  0872               	movf	___xxtofl@val,w
  1536  0637  00A2               	movwf	___xxtofl@arg
  1537  0638                     l741:
  1538  0638  0875               	movf	___xxtofl@val+3,w
  1539  0639  0474               	iorwf	___xxtofl@val+2,w
  1540  063A  0473               	iorwf	___xxtofl@val+1,w
  1541  063B  0472               	iorwf	___xxtofl@val,w
  1542  063C  1D03               	skipz
  1543  063D  2E3F               	goto	u2491
  1544  063E  2E40               	goto	u2490
  1545  063F                     u2491:
  1546  063F  2E49               	goto	l2160
  1547  0640                     u2490:
  1548  0640                     l2156:
  1549  0640  3000               	movlw	0
  1550  0641  00F5               	movwf	?___xxtofl+3
  1551  0642  3000               	movlw	0
  1552  0643  00F4               	movwf	?___xxtofl+2
  1553  0644  3000               	movlw	0
  1554  0645  00F3               	movwf	?___xxtofl+1
  1555  0646  3000               	movlw	0
  1556  0647  00F2               	movwf	?___xxtofl
  1557  0648  2ECF               	goto	l743
  1558  0649                     l2160:
  1559  0649  3096               	movlw	150
  1560  064A  00F6               	movwf	??___xxtofl
  1561  064B  0876               	movf	??___xxtofl,w
  1562  064C  00A1               	movwf	___xxtofl@exp
  1563  064D  2E5B               	goto	l2164
  1564  064E                     l2162:
  1565  064E  3001               	movlw	1
  1566  064F  00F6               	movwf	??___xxtofl
  1567  0650  0876               	movf	??___xxtofl,w
  1568  0651  07A1               	addwf	___xxtofl@exp,f
  1569  0652  3001               	movlw	1
  1570  0653                     u2505:
  1571  0653  1003               	clrc
  1572  0654  0CA5               	rrf	___xxtofl@arg+3,f
  1573  0655  0CA4               	rrf	___xxtofl@arg+2,f
  1574  0656  0CA3               	rrf	___xxtofl@arg+1,f
  1575  0657  0CA2               	rrf	___xxtofl@arg,f
  1576  0658  3EFF               	addlw	-1
  1577  0659  1D03               	skipz
  1578  065A  2E53               	goto	u2505
  1579  065B                     l2164:
  1580  065B  30FE               	movlw	254
  1581  065C  0525               	andwf	___xxtofl@arg+3,w
  1582  065D  1D03               	btfss	3,2
  1583  065E  2E60               	goto	u2511
  1584  065F  2E61               	goto	u2510
  1585  0660                     u2511:
  1586  0660  2E4E               	goto	l2162
  1587  0661                     u2510:
  1588  0661  2E7D               	goto	l747
  1589  0662                     l2166:
  1590  0662  3001               	movlw	1
  1591  0663  00F6               	movwf	??___xxtofl
  1592  0664  0876               	movf	??___xxtofl,w
  1593  0665  07A1               	addwf	___xxtofl@exp,f
  1594  0666                     l2168:
  1595  0666  3001               	movlw	1
  1596  0667  07A2               	addwf	___xxtofl@arg,f
  1597  0668  3000               	movlw	0
  1598  0669  1803               	skipnc
  1599  066A  3001               	movlw	1
  1600  066B  07A3               	addwf	___xxtofl@arg+1,f
  1601  066C  3000               	movlw	0
  1602  066D  1803               	skipnc
  1603  066E  3001               	movlw	1
  1604  066F  07A4               	addwf	___xxtofl@arg+2,f
  1605  0670  3000               	movlw	0
  1606  0671  1803               	skipnc
  1607  0672  3001               	movlw	1
  1608  0673  07A5               	addwf	___xxtofl@arg+3,f
  1609  0674                     l2170:
  1610  0674  3001               	movlw	1
  1611  0675                     u2525:
  1612  0675  1003               	clrc
  1613  0676  0CA5               	rrf	___xxtofl@arg+3,f
  1614  0677  0CA4               	rrf	___xxtofl@arg+2,f
  1615  0678  0CA3               	rrf	___xxtofl@arg+1,f
  1616  0679  0CA2               	rrf	___xxtofl@arg,f
  1617  067A  3EFF               	addlw	-1
  1618  067B  1D03               	skipz
  1619  067C  2E75               	goto	u2525
  1620  067D                     l747:
  1621  067D  30FF               	movlw	255
  1622  067E  0525               	andwf	___xxtofl@arg+3,w
  1623  067F  1D03               	btfss	3,2
  1624  0680  2E82               	goto	u2531
  1625  0681  2E83               	goto	u2530
  1626  0682                     u2531:
  1627  0682  2E62               	goto	l2166
  1628  0683                     u2530:
  1629  0683  2E8F               	goto	l2174
  1630  0684                     l2172:
  1631  0684  3001               	movlw	1
  1632  0685  02A1               	subwf	___xxtofl@exp,f
  1633  0686  3001               	movlw	1
  1634  0687  00F6               	movwf	??___xxtofl
  1635  0688                     u2545:
  1636  0688  1003               	clrc
  1637  0689  0DA2               	rlf	___xxtofl@arg,f
  1638  068A  0DA3               	rlf	___xxtofl@arg+1,f
  1639  068B  0DA4               	rlf	___xxtofl@arg+2,f
  1640  068C  0DA5               	rlf	___xxtofl@arg+3,f
  1641  068D  0BF6               	decfsz	??___xxtofl,f
  1642  068E  2E88               	goto	u2545
  1643  068F                     l2174:
  1644  068F  1BA4               	btfsc	___xxtofl@arg+2,7
  1645  0690  2E92               	goto	u2551
  1646  0691  2E93               	goto	u2550
  1647  0692                     u2551:
  1648  0692  2E99               	goto	l754
  1649  0693                     u2550:
  1650  0693                     l2176:
  1651  0693  3002               	movlw	2
  1652  0694  0221               	subwf	___xxtofl@exp,w
  1653  0695  1803               	skipnc
  1654  0696  2E98               	goto	u2561
  1655  0697  2E99               	goto	u2560
  1656  0698                     u2561:
  1657  0698  2E84               	goto	l2172
  1658  0699                     u2560:
  1659  0699                     l754:
  1660  0699  1821               	btfsc	___xxtofl@exp,0
  1661  069A  2E9C               	goto	u2571
  1662  069B  2E9D               	goto	u2570
  1663  069C                     u2571:
  1664  069C  2EA5               	goto	l755
  1665  069D                     u2570:
  1666  069D                     l2178:
  1667  069D  30FF               	movlw	255
  1668  069E  05A2               	andwf	___xxtofl@arg,f
  1669  069F  30FF               	movlw	255
  1670  06A0  05A3               	andwf	___xxtofl@arg+1,f
  1671  06A1  307F               	movlw	127
  1672  06A2  05A4               	andwf	___xxtofl@arg+2,f
  1673  06A3  30FF               	movlw	255
  1674  06A4  05A5               	andwf	___xxtofl@arg+3,f
  1675  06A5                     l755:
  1676  06A5  1003               	clrc
  1677  06A6  0CA1               	rrf	___xxtofl@exp,f
  1678  06A7                     l2180:
  1679  06A7  0821               	movf	___xxtofl@exp,w
  1680  06A8  00F6               	movwf	??___xxtofl
  1681  06A9  01F7               	clrf	??___xxtofl+1
  1682  06AA  01F8               	clrf	??___xxtofl+2
  1683  06AB  01F9               	clrf	??___xxtofl+3
  1684  06AC  3018               	movlw	24
  1685  06AD                     u2585:
  1686  06AD  1003               	clrc
  1687  06AE  0DF6               	rlf	??___xxtofl,f
  1688  06AF  0DF7               	rlf	??___xxtofl+1,f
  1689  06B0  0DF8               	rlf	??___xxtofl+2,f
  1690  06B1  0DF9               	rlf	??___xxtofl+3,f
  1691  06B2                     u2580:
  1692  06B2  3EFF               	addlw	-1
  1693  06B3  1D03               	skipz
  1694  06B4  2EAD               	goto	u2585
  1695  06B5  0876               	movf	??___xxtofl,w
  1696  06B6  04A2               	iorwf	___xxtofl@arg,f
  1697  06B7  0877               	movf	??___xxtofl+1,w
  1698  06B8  04A3               	iorwf	___xxtofl@arg+1,f
  1699  06B9  0878               	movf	??___xxtofl+2,w
  1700  06BA  04A4               	iorwf	___xxtofl@arg+2,f
  1701  06BB  0879               	movf	??___xxtofl+3,w
  1702  06BC  04A5               	iorwf	___xxtofl@arg+3,f
  1703  06BD                     l2182:
  1704  06BD  0820               	movf	___xxtofl@sign,w
  1705  06BE  1903               	btfsc	3,2
  1706  06BF  2EC1               	goto	u2591
  1707  06C0  2EC2               	goto	u2590
  1708  06C1                     u2591:
  1709  06C1  2EC7               	goto	l2188
  1710  06C2                     u2590:
  1711  06C2                     l2184:
  1712  06C2  1FF5               	btfss	___xxtofl@val+3,7
  1713  06C3  2EC5               	goto	u2601
  1714  06C4  2EC6               	goto	u2600
  1715  06C5                     u2601:
  1716  06C5  2EC7               	goto	l2188
  1717  06C6                     u2600:
  1718  06C6                     l2186:
  1719  06C6  17A5               	bsf	___xxtofl@arg+3,7
  1720  06C7                     l2188:
  1721  06C7  0825               	movf	___xxtofl@arg+3,w
  1722  06C8  00F5               	movwf	?___xxtofl+3
  1723  06C9  0824               	movf	___xxtofl@arg+2,w
  1724  06CA  00F4               	movwf	?___xxtofl+2
  1725  06CB  0823               	movf	___xxtofl@arg+1,w
  1726  06CC  00F3               	movwf	?___xxtofl+1
  1727  06CD  0822               	movf	___xxtofl@arg,w
  1728  06CE  00F2               	movwf	?___xxtofl
  1729  06CF                     l743:
  1730  06CF  0008               	return
  1731  06D0                     __end_of___xxtofl:
  1732                           
  1733                           	psect	text2
  1734  0769                     __ptext2:	
  1735 ;; *************** function ___fltol *****************
  1736 ;; Defined at:
  1737 ;;		line 43 in file "C:\Program Files\Microchip\xc8\v2.31\pic\sources\c90\common\fltol.c"
  1738 ;; Parameters:    Size  Location     Type
  1739 ;;  f1              4   32[BANK0 ] unsigned char 
  1740 ;; Auto vars:     Size  Location     Type
  1741 ;;  exp1            1   42[BANK0 ] unsigned char 
  1742 ;;  sign1           1   41[BANK0 ] unsigned char 
  1743 ;; Return value:  Size  Location     Type
  1744 ;;                  4   32[BANK0 ] long 
  1745 ;; Registers used:
  1746 ;;		wreg, status,2, status,0
  1747 ;; Tracked objects:
  1748 ;;		On entry : 0/0
  1749 ;;		On exit  : 0/0
  1750 ;;		Unchanged: 0/0
  1751 ;; Data sizes:     COMMON   BANK0   BANK1   BANK3   BANK2
  1752 ;;      Params:         0       4       0       0       0
  1753 ;;      Locals:         0       2       0       0       0
  1754 ;;      Temps:          0       5       0       0       0
  1755 ;;      Totals:         0      11       0       0       0
  1756 ;;Total ram usage:       11 bytes
  1757 ;; Hardware stack levels used:    1
  1758 ;; Hardware stack levels required when called:    1
  1759 ;; This function calls:
  1760 ;;		Nothing
  1761 ;; This function is called by:
  1762 ;;		_main
  1763 ;; This function uses a non-reentrant model
  1764 ;;
  1765                           
  1766                           
  1767                           ;psect for function ___fltol
  1768  0769                     ___fltol:
  1769  0769                     l1778:	
  1770                           ;incstack = 0
  1771                           ; Regs used in ___fltol: [wreg+status,2+status,0]
  1772                           
  1773  0769  1003               	clrc
  1774  076A  1283               	bcf	3,5	;RP0=0, select bank0
  1775  076B  1303               	bcf	3,6	;RP1=0, select bank0
  1776  076C  0D42               	rlf	___fltol@f1+2,w
  1777  076D  0D43               	rlf	___fltol@f1+3,w
  1778  076E  00C4               	movwf	??___fltol
  1779  076F  0844               	movf	??___fltol,w
  1780  0770  00CA               	movwf	___fltol@exp1
  1781  0771  084A               	movf	___fltol@exp1,w
  1782  0772  1D03               	btfss	3,2
  1783  0773  2F75               	goto	u1541
  1784  0774  2F76               	goto	u1540
  1785  0775                     u1541:
  1786  0775  2F7F               	goto	l1784
  1787  0776                     u1540:
  1788  0776                     l1780:
  1789  0776  3000               	movlw	0
  1790  0777  00C3               	movwf	?___fltol+3
  1791  0778  3000               	movlw	0
  1792  0779  00C2               	movwf	?___fltol+2
  1793  077A  3000               	movlw	0
  1794  077B  00C1               	movwf	?___fltol+1
  1795  077C  3000               	movlw	0
  1796  077D  00C0               	movwf	?___fltol
  1797  077E  2FE4               	goto	l494
  1798  077F                     l1784:
  1799  077F  0840               	movf	___fltol@f1,w
  1800  0780  00C4               	movwf	??___fltol
  1801  0781  0841               	movf	___fltol@f1+1,w
  1802  0782  00C5               	movwf	??___fltol+1
  1803  0783  0842               	movf	___fltol@f1+2,w
  1804  0784  00C6               	movwf	??___fltol+2
  1805  0785  0843               	movf	___fltol@f1+3,w
  1806  0786  00C7               	movwf	??___fltol+3
  1807  0787  301F               	movlw	31
  1808  0788                     u1555:
  1809  0788  1003               	clrc
  1810  0789  0CC7               	rrf	??___fltol+3,f
  1811  078A  0CC6               	rrf	??___fltol+2,f
  1812  078B  0CC5               	rrf	??___fltol+1,f
  1813  078C  0CC4               	rrf	??___fltol,f
  1814  078D                     u1550:
  1815  078D  3EFF               	addlw	-1
  1816  078E  1D03               	skipz
  1817  078F  2F88               	goto	u1555
  1818  0790  0844               	movf	??___fltol,w
  1819  0791  00C8               	movwf	??___fltol+4
  1820  0792  0848               	movf	??___fltol+4,w
  1821  0793  00C9               	movwf	___fltol@sign1
  1822  0794                     l1786:
  1823  0794  17C2               	bsf	___fltol@f1+2,7
  1824  0795                     l1788:
  1825  0795  30FF               	movlw	255
  1826  0796  05C0               	andwf	___fltol@f1,f
  1827  0797  30FF               	movlw	255
  1828  0798  05C1               	andwf	___fltol@f1+1,f
  1829  0799  30FF               	movlw	255
  1830  079A  05C2               	andwf	___fltol@f1+2,f
  1831  079B  3000               	movlw	0
  1832  079C  05C3               	andwf	___fltol@f1+3,f
  1833  079D                     l1790:
  1834  079D  3096               	movlw	150
  1835  079E  02CA               	subwf	___fltol@exp1,f
  1836  079F                     l1792:
  1837  079F  1FCA               	btfss	___fltol@exp1,7
  1838  07A0  2FA2               	goto	u1561
  1839  07A1  2FA3               	goto	u1560
  1840  07A2                     u1561:
  1841  07A2  2FBD               	goto	l1802
  1842  07A3                     u1560:
  1843  07A3                     l1794:
  1844  07A3  084A               	movf	___fltol@exp1,w
  1845  07A4  3A80               	xorlw	128
  1846  07A5  3E97               	addlw	151
  1847  07A6  1803               	skipnc
  1848  07A7  2FA9               	goto	u1571
  1849  07A8  2FAA               	goto	u1570
  1850  07A9                     u1571:
  1851  07A9  2FAB               	goto	l1800
  1852  07AA                     u1570:
  1853  07AA  2F76               	goto	l1780
  1854  07AB                     l1800:
  1855  07AB  3001               	movlw	1
  1856  07AC                     u1585:
  1857  07AC  1003               	clrc
  1858  07AD  0CC3               	rrf	___fltol@f1+3,f
  1859  07AE  0CC2               	rrf	___fltol@f1+2,f
  1860  07AF  0CC1               	rrf	___fltol@f1+1,f
  1861  07B0  0CC0               	rrf	___fltol@f1,f
  1862  07B1  3EFF               	addlw	-1
  1863  07B2  1D03               	skipz
  1864  07B3  2FAC               	goto	u1585
  1865  07B4  3001               	movlw	1
  1866  07B5  00C4               	movwf	??___fltol
  1867  07B6  0844               	movf	??___fltol,w
  1868  07B7  07CA               	addwf	___fltol@exp1,f
  1869  07B8  1D03               	btfss	3,2
  1870  07B9  2FBB               	goto	u1591
  1871  07BA  2FBC               	goto	u1590
  1872  07BB                     u1591:
  1873  07BB  2FAB               	goto	l1800
  1874  07BC                     u1590:
  1875  07BC  2FD4               	goto	l1810
  1876  07BD                     l1802:
  1877  07BD  3020               	movlw	32
  1878  07BE  024A               	subwf	___fltol@exp1,w
  1879  07BF  1C03               	skipc
  1880  07C0  2FC2               	goto	u1601
  1881  07C1  2FC3               	goto	u1600
  1882  07C2                     u1601:
  1883  07C2  2FCF               	goto	l501
  1884  07C3                     u1600:
  1885  07C3  2F76               	goto	l1780
  1886  07C4                     l1808:
  1887  07C4  3001               	movlw	1
  1888  07C5  00C4               	movwf	??___fltol
  1889  07C6                     u1615:
  1890  07C6  1003               	clrc
  1891  07C7  0DC0               	rlf	___fltol@f1,f
  1892  07C8  0DC1               	rlf	___fltol@f1+1,f
  1893  07C9  0DC2               	rlf	___fltol@f1+2,f
  1894  07CA  0DC3               	rlf	___fltol@f1+3,f
  1895  07CB  0BC4               	decfsz	??___fltol,f
  1896  07CC  2FC6               	goto	u1615
  1897  07CD  3001               	movlw	1
  1898  07CE  02CA               	subwf	___fltol@exp1,f
  1899  07CF                     l501:
  1900  07CF  084A               	movf	___fltol@exp1,w
  1901  07D0  1D03               	btfss	3,2
  1902  07D1  2FD3               	goto	u1621
  1903  07D2  2FD4               	goto	u1620
  1904  07D3                     u1621:
  1905  07D3  2FC4               	goto	l1808
  1906  07D4                     u1620:
  1907  07D4                     l1810:
  1908  07D4  0849               	movf	___fltol@sign1,w
  1909  07D5  1903               	btfsc	3,2
  1910  07D6  2FD8               	goto	u1631
  1911  07D7  2FD9               	goto	u1630
  1912  07D8                     u1631:
  1913  07D8  2FE4               	goto	l504
  1914  07D9                     u1630:
  1915  07D9                     l1812:
  1916  07D9  09C0               	comf	___fltol@f1,f
  1917  07DA  09C1               	comf	___fltol@f1+1,f
  1918  07DB  09C2               	comf	___fltol@f1+2,f
  1919  07DC  09C3               	comf	___fltol@f1+3,f
  1920  07DD  0AC0               	incf	___fltol@f1,f
  1921  07DE  1903               	skipnz
  1922  07DF  0AC1               	incf	___fltol@f1+1,f
  1923  07E0  1903               	skipnz
  1924  07E1  0AC2               	incf	___fltol@f1+2,f
  1925  07E2  1903               	skipnz
  1926  07E3  0AC3               	incf	___fltol@f1+3,f
  1927  07E4                     l504:
  1928  07E4                     l494:
  1929  07E4  0008               	return
  1930  07E5                     __end_of___fltol:
  1931                           
  1932                           	psect	text3
  1933  002B                     __ptext3:	
  1934 ;; *************** function ___flmul *****************
  1935 ;; Defined at:
  1936 ;;		line 8 in file "C:\Program Files\Microchip\xc8\v2.31\pic\sources\c90\common\sprcmul.c"
  1937 ;; Parameters:    Size  Location     Type
  1938 ;;  b               4    6[BANK0 ] long 
  1939 ;;  a               4   10[BANK0 ] long 
  1940 ;; Auto vars:     Size  Location     Type
  1941 ;;  prod            4   26[BANK0 ] struct .
  1942 ;;  grs             4   21[BANK0 ] unsigned long 
  1943 ;;  temp            2   30[BANK0 ] struct .
  1944 ;;  bexp            1   25[BANK0 ] unsigned char 
  1945 ;;  aexp            1   20[BANK0 ] unsigned char 
  1946 ;;  sign            1   19[BANK0 ] unsigned char 
  1947 ;; Return value:  Size  Location     Type
  1948 ;;                  4    6[BANK0 ] unsigned char 
  1949 ;; Registers used:
  1950 ;;		wreg, status,2, status,0, btemp+1, pclath, cstack
  1951 ;; Tracked objects:
  1952 ;;		On entry : 0/0
  1953 ;;		On exit  : 0/0
  1954 ;;		Unchanged: 0/0
  1955 ;; Data sizes:     COMMON   BANK0   BANK1   BANK3   BANK2
  1956 ;;      Params:         0       8       0       0       0
  1957 ;;      Locals:         0      13       0       0       0
  1958 ;;      Temps:          0       5       0       0       0
  1959 ;;      Totals:         0      26       0       0       0
  1960 ;;Total ram usage:       26 bytes
  1961 ;; Hardware stack levels used:    1
  1962 ;; Hardware stack levels required when called:    2
  1963 ;; This function calls:
  1964 ;;		__Umul8_16
  1965 ;; This function is called by:
  1966 ;;		_main
  1967 ;; This function uses a non-reentrant model
  1968 ;;
  1969                           
  1970                           
  1971                           ;psect for function ___flmul
  1972  002B                     ___flmul:
  1973  002B                     l2436:	
  1974                           ;incstack = 0
  1975                           ; Regs used in ___flmul: [wreg+status,2+status,0+btemp+1+pclath+cstack]
  1976                           
  1977  002B  1283               	bcf	3,5	;RP0=0, select bank0
  1978  002C  1303               	bcf	3,6	;RP1=0, select bank0
  1979  002D  0829               	movf	___flmul@b+3,w
  1980  002E  3980               	andlw	128
  1981  002F  00AE               	movwf	??___flmul
  1982  0030  082E               	movf	??___flmul,w
  1983  0031  00B3               	movwf	___flmul@sign
  1984  0032                     l2438:
  1985  0032  0829               	movf	___flmul@b+3,w
  1986  0033  00AE               	movwf	??___flmul
  1987  0034  072E               	addwf	??___flmul,w
  1988  0035  00AF               	movwf	??___flmul+1
  1989  0036  082F               	movf	??___flmul+1,w
  1990  0037  00B9               	movwf	___flmul@bexp
  1991  0038                     l2440:
  1992  0038  1FA8               	btfss	___flmul@b+2,7
  1993  0039  283B               	goto	u2781
  1994  003A  283C               	goto	u2780
  1995  003B                     u2781:
  1996  003B  283D               	goto	l2444
  1997  003C                     u2780:
  1998  003C                     l2442:
  1999  003C  1439               	bsf	___flmul@bexp,0
  2000  003D                     l2444:
  2001  003D  0839               	movf	___flmul@bexp,w
  2002  003E  1903               	btfsc	3,2
  2003  003F  2841               	goto	u2791
  2004  0040  2842               	goto	u2790
  2005  0041                     u2791:
  2006  0041  2851               	goto	l2452
  2007  0042                     u2790:
  2008  0042                     l2446:
  2009  0042  0A39               	incf	___flmul@bexp,w
  2010  0043  1D03               	btfss	3,2
  2011  0044  2846               	goto	u2801
  2012  0045  2847               	goto	u2800
  2013  0046                     u2801:
  2014  0046  284F               	goto	l2450
  2015  0047                     u2800:
  2016  0047                     l2448:
  2017  0047  3000               	movlw	0
  2018  0048  00A9               	movwf	___flmul@b+3
  2019  0049  3000               	movlw	0
  2020  004A  00A8               	movwf	___flmul@b+2
  2021  004B  3000               	movlw	0
  2022  004C  00A7               	movwf	___flmul@b+1
  2023  004D  3000               	movlw	0
  2024  004E  00A6               	movwf	___flmul@b
  2025  004F                     l2450:
  2026  004F  17A8               	bsf	___flmul@b+2,7
  2027  0050  2859               	goto	l2454
  2028  0051                     l2452:
  2029  0051  3000               	movlw	0
  2030  0052  00A9               	movwf	___flmul@b+3
  2031  0053  3000               	movlw	0
  2032  0054  00A8               	movwf	___flmul@b+2
  2033  0055  3000               	movlw	0
  2034  0056  00A7               	movwf	___flmul@b+1
  2035  0057  3000               	movlw	0
  2036  0058  00A6               	movwf	___flmul@b
  2037  0059                     l2454:
  2038  0059  082D               	movf	___flmul@a+3,w
  2039  005A  3980               	andlw	128
  2040  005B  00AE               	movwf	??___flmul
  2041  005C  082E               	movf	??___flmul,w
  2042  005D  06B3               	xorwf	___flmul@sign,f
  2043  005E                     l2456:
  2044  005E  082D               	movf	___flmul@a+3,w
  2045  005F  00AE               	movwf	??___flmul
  2046  0060  072E               	addwf	??___flmul,w
  2047  0061  00AF               	movwf	??___flmul+1
  2048  0062  082F               	movf	??___flmul+1,w
  2049  0063  00B4               	movwf	___flmul@aexp
  2050  0064                     l2458:
  2051  0064  1FAC               	btfss	___flmul@a+2,7
  2052  0065  2867               	goto	u2811
  2053  0066  2868               	goto	u2810
  2054  0067                     u2811:
  2055  0067  2869               	goto	l2462
  2056  0068                     u2810:
  2057  0068                     l2460:
  2058  0068  1434               	bsf	___flmul@aexp,0
  2059  0069                     l2462:
  2060  0069  0834               	movf	___flmul@aexp,w
  2061  006A  1903               	btfsc	3,2
  2062  006B  286D               	goto	u2821
  2063  006C  286E               	goto	u2820
  2064  006D                     u2821:
  2065  006D  287D               	goto	l2470
  2066  006E                     u2820:
  2067  006E                     l2464:
  2068  006E  0A34               	incf	___flmul@aexp,w
  2069  006F  1D03               	btfss	3,2
  2070  0070  2872               	goto	u2831
  2071  0071  2873               	goto	u2830
  2072  0072                     u2831:
  2073  0072  287B               	goto	l2468
  2074  0073                     u2830:
  2075  0073                     l2466:
  2076  0073  3000               	movlw	0
  2077  0074  00AD               	movwf	___flmul@a+3
  2078  0075  3000               	movlw	0
  2079  0076  00AC               	movwf	___flmul@a+2
  2080  0077  3000               	movlw	0
  2081  0078  00AB               	movwf	___flmul@a+1
  2082  0079  3000               	movlw	0
  2083  007A  00AA               	movwf	___flmul@a
  2084  007B                     l2468:
  2085  007B  17AC               	bsf	___flmul@a+2,7
  2086  007C  2885               	goto	l2472
  2087  007D                     l2470:
  2088  007D  3000               	movlw	0
  2089  007E  00AD               	movwf	___flmul@a+3
  2090  007F  3000               	movlw	0
  2091  0080  00AC               	movwf	___flmul@a+2
  2092  0081  3000               	movlw	0
  2093  0082  00AB               	movwf	___flmul@a+1
  2094  0083  3000               	movlw	0
  2095  0084  00AA               	movwf	___flmul@a
  2096  0085                     l2472:
  2097  0085  0834               	movf	___flmul@aexp,w
  2098  0086  1903               	btfsc	3,2
  2099  0087  2889               	goto	u2841
  2100  0088  288A               	goto	u2840
  2101  0089                     u2841:
  2102  0089  288F               	goto	l2476
  2103  008A                     u2840:
  2104  008A                     l2474:
  2105  008A  0839               	movf	___flmul@bexp,w
  2106  008B  1D03               	btfss	3,2
  2107  008C  288E               	goto	u2851
  2108  008D  288F               	goto	u2850
  2109  008E                     u2851:
  2110  008E  2898               	goto	l2480
  2111  008F                     u2850:
  2112  008F                     l2476:
  2113  008F  3000               	movlw	0
  2114  0090  00A9               	movwf	?___flmul+3
  2115  0091  3000               	movlw	0
  2116  0092  00A8               	movwf	?___flmul+2
  2117  0093  3000               	movlw	0
  2118  0094  00A7               	movwf	?___flmul+1
  2119  0095  3000               	movlw	0
  2120  0096  00A6               	movwf	?___flmul
  2121  0097  2B8B               	goto	l697
  2122  0098                     l2480:
  2123  0098  0826               	movf	___flmul@b,w
  2124  0099  00AE               	movwf	??___flmul
  2125  009A  082E               	movf	??___flmul,w
  2126  009B  00F2               	movwf	__Umul8_16@multiplicand
  2127  009C  082C               	movf	___flmul@a+2,w
  2128  009D  120A  158A  247A  120A  118A  	fcall	__Umul8_16
  2129  00A2  0873               	movf	?__Umul8_16+1,w
  2130  00A3  1283               	bcf	3,5	;RP0=0, select bank0
  2131  00A4  1303               	bcf	3,6	;RP1=0, select bank0
  2132  00A5  00BF               	movwf	___flmul@temp+1
  2133  00A6  0872               	movf	?__Umul8_16,w
  2134  00A7  00BE               	movwf	___flmul@temp
  2135  00A8                     l2482:
  2136  00A8  083E               	movf	___flmul@temp,w
  2137  00A9  00AE               	movwf	??___flmul
  2138  00AA  01AF               	clrf	??___flmul+1
  2139  00AB  01B0               	clrf	??___flmul+2
  2140  00AC  01B1               	clrf	??___flmul+3
  2141  00AD  0831               	movf	??___flmul+3,w
  2142  00AE  00B8               	movwf	___flmul@grs+3
  2143  00AF  0830               	movf	??___flmul+2,w
  2144  00B0  00B7               	movwf	___flmul@grs+2
  2145  00B1  082F               	movf	??___flmul+1,w
  2146  00B2  00B6               	movwf	___flmul@grs+1
  2147  00B3  082E               	movf	??___flmul,w
  2148  00B4  00B5               	movwf	___flmul@grs
  2149  00B5                     l2484:
  2150  00B5  083F               	movf	___flmul@temp+1,w
  2151  00B6  00AE               	movwf	??___flmul
  2152  00B7  01AF               	clrf	??___flmul+1
  2153  00B8  01B0               	clrf	??___flmul+2
  2154  00B9  01B1               	clrf	??___flmul+3
  2155  00BA  0831               	movf	??___flmul+3,w
  2156  00BB  00BD               	movwf	___flmul@prod+3
  2157  00BC  0830               	movf	??___flmul+2,w
  2158  00BD  00BC               	movwf	___flmul@prod+2
  2159  00BE  082F               	movf	??___flmul+1,w
  2160  00BF  00BB               	movwf	___flmul@prod+1
  2161  00C0  082E               	movf	??___flmul,w
  2162  00C1  00BA               	movwf	___flmul@prod
  2163  00C2  0827               	movf	___flmul@b+1,w
  2164  00C3  00AE               	movwf	??___flmul
  2165  00C4  082E               	movf	??___flmul,w
  2166  00C5  00F2               	movwf	__Umul8_16@multiplicand
  2167  00C6  082B               	movf	___flmul@a+1,w
  2168  00C7  120A  158A  247A  120A  118A  	fcall	__Umul8_16
  2169  00CC  0873               	movf	?__Umul8_16+1,w
  2170  00CD  1283               	bcf	3,5	;RP0=0, select bank0
  2171  00CE  1303               	bcf	3,6	;RP1=0, select bank0
  2172  00CF  00BF               	movwf	___flmul@temp+1
  2173  00D0  0872               	movf	?__Umul8_16,w
  2174  00D1  00BE               	movwf	___flmul@temp
  2175  00D2                     l2486:
  2176  00D2  083E               	movf	___flmul@temp,w
  2177  00D3  00AE               	movwf	??___flmul
  2178  00D4  01AF               	clrf	??___flmul+1
  2179  00D5  01B0               	clrf	??___flmul+2
  2180  00D6  01B1               	clrf	??___flmul+3
  2181  00D7  082E               	movf	??___flmul,w
  2182  00D8  07B5               	addwf	___flmul@grs,f
  2183  00D9  082F               	movf	??___flmul+1,w
  2184  00DA  1103               	clrz
  2185  00DB  1803               	skipnc
  2186  00DC  3E01               	addlw	1
  2187  00DD  1903               	skipnz
  2188  00DE  28E0               	goto	u2861
  2189  00DF  07B6               	addwf	___flmul@grs+1,f
  2190  00E0                     u2861:
  2191  00E0  0830               	movf	??___flmul+2,w
  2192  00E1  1103               	clrz
  2193  00E2  1803               	skipnc
  2194  00E3  3E01               	addlw	1
  2195  00E4  1903               	skipnz
  2196  00E5  28E7               	goto	u2862
  2197  00E6  07B7               	addwf	___flmul@grs+2,f
  2198  00E7                     u2862:
  2199  00E7  0831               	movf	??___flmul+3,w
  2200  00E8  1103               	clrz
  2201  00E9  1803               	skipnc
  2202  00EA  3E01               	addlw	1
  2203  00EB  1903               	skipnz
  2204  00EC  28EE               	goto	u2863
  2205  00ED  07B8               	addwf	___flmul@grs+3,f
  2206  00EE                     u2863:
  2207  00EE                     l2488:
  2208  00EE  083F               	movf	___flmul@temp+1,w
  2209  00EF  00AE               	movwf	??___flmul
  2210  00F0  01AF               	clrf	??___flmul+1
  2211  00F1  01B0               	clrf	??___flmul+2
  2212  00F2  01B1               	clrf	??___flmul+3
  2213  00F3  082E               	movf	??___flmul,w
  2214  00F4  07BA               	addwf	___flmul@prod,f
  2215  00F5  082F               	movf	??___flmul+1,w
  2216  00F6  1103               	clrz
  2217  00F7  1803               	skipnc
  2218  00F8  3E01               	addlw	1
  2219  00F9  1903               	skipnz
  2220  00FA  28FC               	goto	u2871
  2221  00FB  07BB               	addwf	___flmul@prod+1,f
  2222  00FC                     u2871:
  2223  00FC  0830               	movf	??___flmul+2,w
  2224  00FD  1103               	clrz
  2225  00FE  1803               	skipnc
  2226  00FF  3E01               	addlw	1
  2227  0100  1903               	skipnz
  2228  0101  2903               	goto	u2872
  2229  0102  07BC               	addwf	___flmul@prod+2,f
  2230  0103                     u2872:
  2231  0103  0831               	movf	??___flmul+3,w
  2232  0104  1103               	clrz
  2233  0105  1803               	skipnc
  2234  0106  3E01               	addlw	1
  2235  0107  1903               	skipnz
  2236  0108  290A               	goto	u2873
  2237  0109  07BD               	addwf	___flmul@prod+3,f
  2238  010A                     u2873:
  2239  010A  0828               	movf	___flmul@b+2,w
  2240  010B  00AE               	movwf	??___flmul
  2241  010C  082E               	movf	??___flmul,w
  2242  010D  00F2               	movwf	__Umul8_16@multiplicand
  2243  010E  082A               	movf	___flmul@a,w
  2244  010F  120A  158A  247A  120A  118A  	fcall	__Umul8_16
  2245  0114  0873               	movf	?__Umul8_16+1,w
  2246  0115  1283               	bcf	3,5	;RP0=0, select bank0
  2247  0116  1303               	bcf	3,6	;RP1=0, select bank0
  2248  0117  00BF               	movwf	___flmul@temp+1
  2249  0118  0872               	movf	?__Umul8_16,w
  2250  0119  00BE               	movwf	___flmul@temp
  2251  011A                     l2490:
  2252  011A  083E               	movf	___flmul@temp,w
  2253  011B  00AE               	movwf	??___flmul
  2254  011C  01AF               	clrf	??___flmul+1
  2255  011D  01B0               	clrf	??___flmul+2
  2256  011E  01B1               	clrf	??___flmul+3
  2257  011F  082E               	movf	??___flmul,w
  2258  0120  07B5               	addwf	___flmul@grs,f
  2259  0121  082F               	movf	??___flmul+1,w
  2260  0122  1103               	clrz
  2261  0123  1803               	skipnc
  2262  0124  3E01               	addlw	1
  2263  0125  1903               	skipnz
  2264  0126  2928               	goto	u2881
  2265  0127  07B6               	addwf	___flmul@grs+1,f
  2266  0128                     u2881:
  2267  0128  0830               	movf	??___flmul+2,w
  2268  0129  1103               	clrz
  2269  012A  1803               	skipnc
  2270  012B  3E01               	addlw	1
  2271  012C  1903               	skipnz
  2272  012D  292F               	goto	u2882
  2273  012E  07B7               	addwf	___flmul@grs+2,f
  2274  012F                     u2882:
  2275  012F  0831               	movf	??___flmul+3,w
  2276  0130  1103               	clrz
  2277  0131  1803               	skipnc
  2278  0132  3E01               	addlw	1
  2279  0133  1903               	skipnz
  2280  0134  2936               	goto	u2883
  2281  0135  07B8               	addwf	___flmul@grs+3,f
  2282  0136                     u2883:
  2283  0136                     l2492:
  2284  0136  083F               	movf	___flmul@temp+1,w
  2285  0137  00AE               	movwf	??___flmul
  2286  0138  01AF               	clrf	??___flmul+1
  2287  0139  01B0               	clrf	??___flmul+2
  2288  013A  01B1               	clrf	??___flmul+3
  2289  013B  082E               	movf	??___flmul,w
  2290  013C  07BA               	addwf	___flmul@prod,f
  2291  013D  082F               	movf	??___flmul+1,w
  2292  013E  1103               	clrz
  2293  013F  1803               	skipnc
  2294  0140  3E01               	addlw	1
  2295  0141  1903               	skipnz
  2296  0142  2944               	goto	u2891
  2297  0143  07BB               	addwf	___flmul@prod+1,f
  2298  0144                     u2891:
  2299  0144  0830               	movf	??___flmul+2,w
  2300  0145  1103               	clrz
  2301  0146  1803               	skipnc
  2302  0147  3E01               	addlw	1
  2303  0148  1903               	skipnz
  2304  0149  294B               	goto	u2892
  2305  014A  07BC               	addwf	___flmul@prod+2,f
  2306  014B                     u2892:
  2307  014B  0831               	movf	??___flmul+3,w
  2308  014C  1103               	clrz
  2309  014D  1803               	skipnc
  2310  014E  3E01               	addlw	1
  2311  014F  1903               	skipnz
  2312  0150  2952               	goto	u2893
  2313  0151  07BD               	addwf	___flmul@prod+3,f
  2314  0152                     u2893:
  2315  0152                     l2494:
  2316  0152  3008               	movlw	8
  2317  0153  00AE               	movwf	??___flmul
  2318  0154                     u2905:
  2319  0154  1003               	clrc
  2320  0155  0DB5               	rlf	___flmul@grs,f
  2321  0156  0DB6               	rlf	___flmul@grs+1,f
  2322  0157  0DB7               	rlf	___flmul@grs+2,f
  2323  0158  0DB8               	rlf	___flmul@grs+3,f
  2324  0159  0BAE               	decfsz	??___flmul,f
  2325  015A  2954               	goto	u2905
  2326  015B                     l2496:
  2327  015B  0827               	movf	___flmul@b+1,w
  2328  015C  00AE               	movwf	??___flmul
  2329  015D  082E               	movf	??___flmul,w
  2330  015E  00F2               	movwf	__Umul8_16@multiplicand
  2331  015F  082A               	movf	___flmul@a,w
  2332  0160  120A  158A  247A  120A  118A  	fcall	__Umul8_16
  2333  0165  0873               	movf	?__Umul8_16+1,w
  2334  0166  1283               	bcf	3,5	;RP0=0, select bank0
  2335  0167  1303               	bcf	3,6	;RP1=0, select bank0
  2336  0168  00BF               	movwf	___flmul@temp+1
  2337  0169  0872               	movf	?__Umul8_16,w
  2338  016A  00BE               	movwf	___flmul@temp
  2339  016B                     l2498:
  2340  016B  083E               	movf	___flmul@temp,w
  2341  016C  00AE               	movwf	??___flmul
  2342  016D  083F               	movf	___flmul@temp+1,w
  2343  016E  00AF               	movwf	??___flmul+1
  2344  016F  01B0               	clrf	??___flmul+2
  2345  0170  01B1               	clrf	??___flmul+3
  2346  0171  082E               	movf	??___flmul,w
  2347  0172  07B5               	addwf	___flmul@grs,f
  2348  0173  082F               	movf	??___flmul+1,w
  2349  0174  1103               	clrz
  2350  0175  1803               	skipnc
  2351  0176  3E01               	addlw	1
  2352  0177  1903               	skipnz
  2353  0178  297A               	goto	u2911
  2354  0179  07B6               	addwf	___flmul@grs+1,f
  2355  017A                     u2911:
  2356  017A  0830               	movf	??___flmul+2,w
  2357  017B  1103               	clrz
  2358  017C  1803               	skipnc
  2359  017D  3E01               	addlw	1
  2360  017E  1903               	skipnz
  2361  017F  2981               	goto	u2912
  2362  0180  07B7               	addwf	___flmul@grs+2,f
  2363  0181                     u2912:
  2364  0181  0831               	movf	??___flmul+3,w
  2365  0182  1103               	clrz
  2366  0183  1803               	skipnc
  2367  0184  3E01               	addlw	1
  2368  0185  1903               	skipnz
  2369  0186  2988               	goto	u2913
  2370  0187  07B8               	addwf	___flmul@grs+3,f
  2371  0188                     u2913:
  2372  0188                     l2500:
  2373  0188  0826               	movf	___flmul@b,w
  2374  0189  00AE               	movwf	??___flmul
  2375  018A  082E               	movf	??___flmul,w
  2376  018B  00F2               	movwf	__Umul8_16@multiplicand
  2377  018C  082B               	movf	___flmul@a+1,w
  2378  018D  120A  158A  247A  120A  118A  	fcall	__Umul8_16
  2379  0192  0873               	movf	?__Umul8_16+1,w
  2380  0193  1283               	bcf	3,5	;RP0=0, select bank0
  2381  0194  1303               	bcf	3,6	;RP1=0, select bank0
  2382  0195  00BF               	movwf	___flmul@temp+1
  2383  0196  0872               	movf	?__Umul8_16,w
  2384  0197  00BE               	movwf	___flmul@temp
  2385  0198                     l2502:
  2386  0198  083E               	movf	___flmul@temp,w
  2387  0199  00AE               	movwf	??___flmul
  2388  019A  083F               	movf	___flmul@temp+1,w
  2389  019B  00AF               	movwf	??___flmul+1
  2390  019C  01B0               	clrf	??___flmul+2
  2391  019D  01B1               	clrf	??___flmul+3
  2392  019E  082E               	movf	??___flmul,w
  2393  019F  07B5               	addwf	___flmul@grs,f
  2394  01A0  082F               	movf	??___flmul+1,w
  2395  01A1  1103               	clrz
  2396  01A2  1803               	skipnc
  2397  01A3  3E01               	addlw	1
  2398  01A4  1903               	skipnz
  2399  01A5  29A7               	goto	u2921
  2400  01A6  07B6               	addwf	___flmul@grs+1,f
  2401  01A7                     u2921:
  2402  01A7  0830               	movf	??___flmul+2,w
  2403  01A8  1103               	clrz
  2404  01A9  1803               	skipnc
  2405  01AA  3E01               	addlw	1
  2406  01AB  1903               	skipnz
  2407  01AC  29AE               	goto	u2922
  2408  01AD  07B7               	addwf	___flmul@grs+2,f
  2409  01AE                     u2922:
  2410  01AE  0831               	movf	??___flmul+3,w
  2411  01AF  1103               	clrz
  2412  01B0  1803               	skipnc
  2413  01B1  3E01               	addlw	1
  2414  01B2  1903               	skipnz
  2415  01B3  29B5               	goto	u2923
  2416  01B4  07B8               	addwf	___flmul@grs+3,f
  2417  01B5                     u2923:
  2418  01B5                     l2504:
  2419  01B5  3008               	movlw	8
  2420  01B6  00AE               	movwf	??___flmul
  2421  01B7                     u2935:
  2422  01B7  1003               	clrc
  2423  01B8  0DB5               	rlf	___flmul@grs,f
  2424  01B9  0DB6               	rlf	___flmul@grs+1,f
  2425  01BA  0DB7               	rlf	___flmul@grs+2,f
  2426  01BB  0DB8               	rlf	___flmul@grs+3,f
  2427  01BC  0BAE               	decfsz	??___flmul,f
  2428  01BD  29B7               	goto	u2935
  2429  01BE  0826               	movf	___flmul@b,w
  2430  01BF  00AE               	movwf	??___flmul
  2431  01C0  082E               	movf	??___flmul,w
  2432  01C1  00F2               	movwf	__Umul8_16@multiplicand
  2433  01C2  082A               	movf	___flmul@a,w
  2434  01C3  120A  158A  247A  120A  118A  	fcall	__Umul8_16
  2435  01C8  0873               	movf	?__Umul8_16+1,w
  2436  01C9  1283               	bcf	3,5	;RP0=0, select bank0
  2437  01CA  1303               	bcf	3,6	;RP1=0, select bank0
  2438  01CB  00BF               	movwf	___flmul@temp+1
  2439  01CC  0872               	movf	?__Umul8_16,w
  2440  01CD  00BE               	movwf	___flmul@temp
  2441  01CE                     l2506:
  2442  01CE  083E               	movf	___flmul@temp,w
  2443  01CF  00AE               	movwf	??___flmul
  2444  01D0  083F               	movf	___flmul@temp+1,w
  2445  01D1  00AF               	movwf	??___flmul+1
  2446  01D2  01B0               	clrf	??___flmul+2
  2447  01D3  01B1               	clrf	??___flmul+3
  2448  01D4  082E               	movf	??___flmul,w
  2449  01D5  07B5               	addwf	___flmul@grs,f
  2450  01D6  082F               	movf	??___flmul+1,w
  2451  01D7  1103               	clrz
  2452  01D8  1803               	skipnc
  2453  01D9  3E01               	addlw	1
  2454  01DA  1903               	skipnz
  2455  01DB  29DD               	goto	u2941
  2456  01DC  07B6               	addwf	___flmul@grs+1,f
  2457  01DD                     u2941:
  2458  01DD  0830               	movf	??___flmul+2,w
  2459  01DE  1103               	clrz
  2460  01DF  1803               	skipnc
  2461  01E0  3E01               	addlw	1
  2462  01E1  1903               	skipnz
  2463  01E2  29E4               	goto	u2942
  2464  01E3  07B7               	addwf	___flmul@grs+2,f
  2465  01E4                     u2942:
  2466  01E4  0831               	movf	??___flmul+3,w
  2467  01E5  1103               	clrz
  2468  01E6  1803               	skipnc
  2469  01E7  3E01               	addlw	1
  2470  01E8  1903               	skipnz
  2471  01E9  29EB               	goto	u2943
  2472  01EA  07B8               	addwf	___flmul@grs+3,f
  2473  01EB                     u2943:
  2474  01EB                     l2508:
  2475  01EB  0827               	movf	___flmul@b+1,w
  2476  01EC  00AE               	movwf	??___flmul
  2477  01ED  082E               	movf	??___flmul,w
  2478  01EE  00F2               	movwf	__Umul8_16@multiplicand
  2479  01EF  082C               	movf	___flmul@a+2,w
  2480  01F0  120A  158A  247A  120A  118A  	fcall	__Umul8_16
  2481  01F5  0873               	movf	?__Umul8_16+1,w
  2482  01F6  1283               	bcf	3,5	;RP0=0, select bank0
  2483  01F7  1303               	bcf	3,6	;RP1=0, select bank0
  2484  01F8  00BF               	movwf	___flmul@temp+1
  2485  01F9  0872               	movf	?__Umul8_16,w
  2486  01FA  00BE               	movwf	___flmul@temp
  2487  01FB  083E               	movf	___flmul@temp,w
  2488  01FC  00AE               	movwf	??___flmul
  2489  01FD  083F               	movf	___flmul@temp+1,w
  2490  01FE  00AF               	movwf	??___flmul+1
  2491  01FF  01B0               	clrf	??___flmul+2
  2492  0200  01B1               	clrf	??___flmul+3
  2493  0201  082E               	movf	??___flmul,w
  2494  0202  07BA               	addwf	___flmul@prod,f
  2495  0203  082F               	movf	??___flmul+1,w
  2496  0204  1103               	clrz
  2497  0205  1803               	skipnc
  2498  0206  3E01               	addlw	1
  2499  0207  1903               	skipnz
  2500  0208  2A0A               	goto	u2951
  2501  0209  07BB               	addwf	___flmul@prod+1,f
  2502  020A                     u2951:
  2503  020A  0830               	movf	??___flmul+2,w
  2504  020B  1103               	clrz
  2505  020C  1803               	skipnc
  2506  020D  3E01               	addlw	1
  2507  020E  1903               	skipnz
  2508  020F  2A11               	goto	u2952
  2509  0210  07BC               	addwf	___flmul@prod+2,f
  2510  0211                     u2952:
  2511  0211  0831               	movf	??___flmul+3,w
  2512  0212  1103               	clrz
  2513  0213  1803               	skipnc
  2514  0214  3E01               	addlw	1
  2515  0215  1903               	skipnz
  2516  0216  2A18               	goto	u2953
  2517  0217  07BD               	addwf	___flmul@prod+3,f
  2518  0218                     u2953:
  2519  0218                     l2510:
  2520  0218  0828               	movf	___flmul@b+2,w
  2521  0219  00AE               	movwf	??___flmul
  2522  021A  082E               	movf	??___flmul,w
  2523  021B  00F2               	movwf	__Umul8_16@multiplicand
  2524  021C  082B               	movf	___flmul@a+1,w
  2525  021D  120A  158A  247A  120A  118A  	fcall	__Umul8_16
  2526  0222  0873               	movf	?__Umul8_16+1,w
  2527  0223  1283               	bcf	3,5	;RP0=0, select bank0
  2528  0224  1303               	bcf	3,6	;RP1=0, select bank0
  2529  0225  00BF               	movwf	___flmul@temp+1
  2530  0226  0872               	movf	?__Umul8_16,w
  2531  0227  00BE               	movwf	___flmul@temp
  2532  0228                     l2512:
  2533  0228  083E               	movf	___flmul@temp,w
  2534  0229  00AE               	movwf	??___flmul
  2535  022A  083F               	movf	___flmul@temp+1,w
  2536  022B  00AF               	movwf	??___flmul+1
  2537  022C  01B0               	clrf	??___flmul+2
  2538  022D  01B1               	clrf	??___flmul+3
  2539  022E  082E               	movf	??___flmul,w
  2540  022F  07BA               	addwf	___flmul@prod,f
  2541  0230  082F               	movf	??___flmul+1,w
  2542  0231  1103               	clrz
  2543  0232  1803               	skipnc
  2544  0233  3E01               	addlw	1
  2545  0234  1903               	skipnz
  2546  0235  2A37               	goto	u2961
  2547  0236  07BB               	addwf	___flmul@prod+1,f
  2548  0237                     u2961:
  2549  0237  0830               	movf	??___flmul+2,w
  2550  0238  1103               	clrz
  2551  0239  1803               	skipnc
  2552  023A  3E01               	addlw	1
  2553  023B  1903               	skipnz
  2554  023C  2A3E               	goto	u2962
  2555  023D  07BC               	addwf	___flmul@prod+2,f
  2556  023E                     u2962:
  2557  023E  0831               	movf	??___flmul+3,w
  2558  023F  1103               	clrz
  2559  0240  1803               	skipnc
  2560  0241  3E01               	addlw	1
  2561  0242  1903               	skipnz
  2562  0243  2A45               	goto	u2963
  2563  0244  07BD               	addwf	___flmul@prod+3,f
  2564  0245                     u2963:
  2565  0245  0828               	movf	___flmul@b+2,w
  2566  0246  00AE               	movwf	??___flmul
  2567  0247  082E               	movf	??___flmul,w
  2568  0248  00F2               	movwf	__Umul8_16@multiplicand
  2569  0249  082C               	movf	___flmul@a+2,w
  2570  024A  120A  158A  247A  120A  118A  	fcall	__Umul8_16
  2571  024F  0873               	movf	?__Umul8_16+1,w
  2572  0250  1283               	bcf	3,5	;RP0=0, select bank0
  2573  0251  1303               	bcf	3,6	;RP1=0, select bank0
  2574  0252  00BF               	movwf	___flmul@temp+1
  2575  0253  0872               	movf	?__Umul8_16,w
  2576  0254  00BE               	movwf	___flmul@temp
  2577  0255                     l2514:
  2578  0255  083E               	movf	___flmul@temp,w
  2579  0256  00AE               	movwf	??___flmul
  2580  0257  083F               	movf	___flmul@temp+1,w
  2581  0258  00AF               	movwf	??___flmul+1
  2582  0259  01B0               	clrf	??___flmul+2
  2583  025A  01B1               	clrf	??___flmul+3
  2584  025B  3008               	movlw	8
  2585  025C                     u2975:
  2586  025C  1003               	clrc
  2587  025D  0DAE               	rlf	??___flmul,f
  2588  025E  0DAF               	rlf	??___flmul+1,f
  2589  025F  0DB0               	rlf	??___flmul+2,f
  2590  0260  0DB1               	rlf	??___flmul+3,f
  2591  0261                     u2970:
  2592  0261  3EFF               	addlw	-1
  2593  0262  1D03               	skipz
  2594  0263  2A5C               	goto	u2975
  2595  0264  082E               	movf	??___flmul,w
  2596  0265  07BA               	addwf	___flmul@prod,f
  2597  0266  082F               	movf	??___flmul+1,w
  2598  0267  1103               	clrz
  2599  0268  1803               	skipnc
  2600  0269  3E01               	addlw	1
  2601  026A  1903               	skipnz
  2602  026B  2A6D               	goto	u2981
  2603  026C  07BB               	addwf	___flmul@prod+1,f
  2604  026D                     u2981:
  2605  026D  0830               	movf	??___flmul+2,w
  2606  026E  1103               	clrz
  2607  026F  1803               	skipnc
  2608  0270  3E01               	addlw	1
  2609  0271  1903               	skipnz
  2610  0272  2A74               	goto	u2982
  2611  0273  07BC               	addwf	___flmul@prod+2,f
  2612  0274                     u2982:
  2613  0274  0831               	movf	??___flmul+3,w
  2614  0275  1103               	clrz
  2615  0276  1803               	skipnc
  2616  0277  3E01               	addlw	1
  2617  0278  1903               	skipnz
  2618  0279  2A7B               	goto	u2983
  2619  027A  07BD               	addwf	___flmul@prod+3,f
  2620  027B                     u2983:
  2621  027B                     l2516:
  2622  027B  0835               	movf	___flmul@grs,w
  2623  027C  00AE               	movwf	??___flmul
  2624  027D  0836               	movf	___flmul@grs+1,w
  2625  027E  00AF               	movwf	??___flmul+1
  2626  027F  0837               	movf	___flmul@grs+2,w
  2627  0280  00B0               	movwf	??___flmul+2
  2628  0281  0838               	movf	___flmul@grs+3,w
  2629  0282  00B1               	movwf	??___flmul+3
  2630  0283  3018               	movlw	24
  2631  0284                     u2995:
  2632  0284  1003               	clrc
  2633  0285  0CB1               	rrf	??___flmul+3,f
  2634  0286  0CB0               	rrf	??___flmul+2,f
  2635  0287  0CAF               	rrf	??___flmul+1,f
  2636  0288  0CAE               	rrf	??___flmul,f
  2637  0289                     u2990:
  2638  0289  3EFF               	addlw	-1
  2639  028A  1D03               	skipz
  2640  028B  2A84               	goto	u2995
  2641  028C  082E               	movf	??___flmul,w
  2642  028D  07BA               	addwf	___flmul@prod,f
  2643  028E  082F               	movf	??___flmul+1,w
  2644  028F  1103               	clrz
  2645  0290  1803               	skipnc
  2646  0291  3E01               	addlw	1
  2647  0292  1903               	skipnz
  2648  0293  2A95               	goto	u3001
  2649  0294  07BB               	addwf	___flmul@prod+1,f
  2650  0295                     u3001:
  2651  0295  0830               	movf	??___flmul+2,w
  2652  0296  1103               	clrz
  2653  0297  1803               	skipnc
  2654  0298  3E01               	addlw	1
  2655  0299  1903               	skipnz
  2656  029A  2A9C               	goto	u3002
  2657  029B  07BC               	addwf	___flmul@prod+2,f
  2658  029C                     u3002:
  2659  029C  0831               	movf	??___flmul+3,w
  2660  029D  1103               	clrz
  2661  029E  1803               	skipnc
  2662  029F  3E01               	addlw	1
  2663  02A0  1903               	skipnz
  2664  02A1  2AA3               	goto	u3003
  2665  02A2  07BD               	addwf	___flmul@prod+3,f
  2666  02A3                     u3003:
  2667  02A3                     l2518:
  2668  02A3  3008               	movlw	8
  2669  02A4  00AE               	movwf	??___flmul
  2670  02A5                     u3015:
  2671  02A5  1003               	clrc
  2672  02A6  0DB5               	rlf	___flmul@grs,f
  2673  02A7  0DB6               	rlf	___flmul@grs+1,f
  2674  02A8  0DB7               	rlf	___flmul@grs+2,f
  2675  02A9  0DB8               	rlf	___flmul@grs+3,f
  2676  02AA  0BAE               	decfsz	??___flmul,f
  2677  02AB  2AA5               	goto	u3015
  2678  02AC                     l2520:
  2679  02AC  0839               	movf	___flmul@bexp,w
  2680  02AD  0734               	addwf	___flmul@aexp,w
  2681  02AE  00AE               	movwf	??___flmul
  2682  02AF  01AF               	clrf	??___flmul+1
  2683  02B0  0DAF               	rlf	??___flmul+1,f
  2684  02B1  082E               	movf	??___flmul,w
  2685  02B2  3E82               	addlw	130
  2686  02B3  00BE               	movwf	___flmul@temp
  2687  02B4  082F               	movf	??___flmul+1,w
  2688  02B5  1803               	skipnc
  2689  02B6  3E01               	addlw	1
  2690  02B7  3EFF               	addlw	255
  2691  02B8  00BF               	movwf	___flmul@temp+1
  2692  02B9  2AD7               	goto	l2532
  2693  02BA                     l2522:
  2694  02BA  3001               	movlw	1
  2695  02BB  00AE               	movwf	??___flmul
  2696  02BC                     u3025:
  2697  02BC  1003               	clrc
  2698  02BD  0DBA               	rlf	___flmul@prod,f
  2699  02BE  0DBB               	rlf	___flmul@prod+1,f
  2700  02BF  0DBC               	rlf	___flmul@prod+2,f
  2701  02C0  0DBD               	rlf	___flmul@prod+3,f
  2702  02C1  0BAE               	decfsz	??___flmul,f
  2703  02C2  2ABC               	goto	u3025
  2704  02C3                     l2524:
  2705  02C3  1FB8               	btfss	___flmul@grs+3,7
  2706  02C4  2AC6               	goto	u3031
  2707  02C5  2AC7               	goto	u3030
  2708  02C6                     u3031:
  2709  02C6  2AC8               	goto	l2528
  2710  02C7                     u3030:
  2711  02C7                     l2526:
  2712  02C7  143A               	bsf	___flmul@prod,0
  2713  02C8                     l2528:
  2714  02C8  3001               	movlw	1
  2715  02C9  00AE               	movwf	??___flmul
  2716  02CA                     u3045:
  2717  02CA  1003               	clrc
  2718  02CB  0DB5               	rlf	___flmul@grs,f
  2719  02CC  0DB6               	rlf	___flmul@grs+1,f
  2720  02CD  0DB7               	rlf	___flmul@grs+2,f
  2721  02CE  0DB8               	rlf	___flmul@grs+3,f
  2722  02CF  0BAE               	decfsz	??___flmul,f
  2723  02D0  2ACA               	goto	u3045
  2724  02D1                     l2530:
  2725  02D1  30FF               	movlw	255
  2726  02D2  07BE               	addwf	___flmul@temp,f
  2727  02D3  1803               	skipnc
  2728  02D4  0ABF               	incf	___flmul@temp+1,f
  2729  02D5  30FF               	movlw	255
  2730  02D6  07BF               	addwf	___flmul@temp+1,f
  2731  02D7                     l2532:
  2732  02D7  1FBC               	btfss	___flmul@prod+2,7
  2733  02D8  2ADA               	goto	u3051
  2734  02D9  2ADB               	goto	u3050
  2735  02DA                     u3051:
  2736  02DA  2ABA               	goto	l2522
  2737  02DB                     u3050:
  2738  02DB                     l2534:
  2739  02DB  01B4               	clrf	___flmul@aexp
  2740  02DC                     l2536:
  2741  02DC  1FB8               	btfss	___flmul@grs+3,7
  2742  02DD  2ADF               	goto	u3061
  2743  02DE  2AE0               	goto	u3060
  2744  02DF                     u3061:
  2745  02DF  2AFC               	goto	l2544
  2746  02E0                     u3060:
  2747  02E0                     l2538:
  2748  02E0  30FF               	movlw	255
  2749  02E1  0535               	andwf	___flmul@grs,w
  2750  02E2  00AE               	movwf	??___flmul
  2751  02E3  30FF               	movlw	255
  2752  02E4  0536               	andwf	___flmul@grs+1,w
  2753  02E5  00AF               	movwf	??___flmul+1
  2754  02E6  30FF               	movlw	255
  2755  02E7  0537               	andwf	___flmul@grs+2,w
  2756  02E8  00B0               	movwf	??___flmul+2
  2757  02E9  307F               	movlw	127
  2758  02EA  0538               	andwf	___flmul@grs+3,w
  2759  02EB  00B1               	movwf	??___flmul+3
  2760  02EC  0831               	movf	??___flmul+3,w
  2761  02ED  0430               	iorwf	??___flmul+2,w
  2762  02EE  042F               	iorwf	??___flmul+1,w
  2763  02EF  042E               	iorwf	??___flmul,w
  2764  02F0  1903               	skipnz
  2765  02F1  2AF3               	goto	u3071
  2766  02F2  2AF4               	goto	u3070
  2767  02F3                     u3071:
  2768  02F3  2AF7               	goto	l703
  2769  02F4                     u3070:
  2770  02F4                     l2540:
  2771  02F4  01B4               	clrf	___flmul@aexp
  2772  02F5  0AB4               	incf	___flmul@aexp,f
  2773  02F6  2AFC               	goto	l2544
  2774  02F7                     l703:
  2775  02F7  1C3A               	btfss	___flmul@prod,0
  2776  02F8  2AFA               	goto	u3081
  2777  02F9  2AFB               	goto	u3080
  2778  02FA                     u3081:
  2779  02FA  2AFC               	goto	l2544
  2780  02FB                     u3080:
  2781  02FB  2AF4               	goto	l2540
  2782  02FC                     l2544:
  2783  02FC  0834               	movf	___flmul@aexp,w
  2784  02FD  1903               	btfsc	3,2
  2785  02FE  2B00               	goto	u3091
  2786  02FF  2B01               	goto	u3090
  2787  0300                     u3091:
  2788  0300  2B32               	goto	l2554
  2789  0301                     u3090:
  2790  0301                     l2546:
  2791  0301  3001               	movlw	1
  2792  0302  07BA               	addwf	___flmul@prod,f
  2793  0303  3000               	movlw	0
  2794  0304  1803               	skipnc
  2795  0305  3001               	movlw	1
  2796  0306  07BB               	addwf	___flmul@prod+1,f
  2797  0307  3000               	movlw	0
  2798  0308  1803               	skipnc
  2799  0309  3001               	movlw	1
  2800  030A  07BC               	addwf	___flmul@prod+2,f
  2801  030B  3000               	movlw	0
  2802  030C  1803               	skipnc
  2803  030D  3001               	movlw	1
  2804  030E  07BD               	addwf	___flmul@prod+3,f
  2805  030F                     l2548:
  2806  030F  1C3D               	btfss	___flmul@prod+3,0
  2807  0310  2B12               	goto	u3101
  2808  0311  2B13               	goto	u3100
  2809  0312                     u3101:
  2810  0312  2B32               	goto	l2554
  2811  0313                     u3100:
  2812  0313                     l2550:
  2813  0313  083A               	movf	___flmul@prod,w
  2814  0314  00AE               	movwf	??___flmul
  2815  0315  083B               	movf	___flmul@prod+1,w
  2816  0316  00AF               	movwf	??___flmul+1
  2817  0317  083C               	movf	___flmul@prod+2,w
  2818  0318  00B0               	movwf	??___flmul+2
  2819  0319  083D               	movf	___flmul@prod+3,w
  2820  031A  00B1               	movwf	??___flmul+3
  2821  031B  3001               	movlw	1
  2822  031C  00B2               	movwf	??___flmul+4
  2823  031D                     u3115:
  2824  031D  0D31               	rlf	??___flmul+3,w
  2825  031E  0CB1               	rrf	??___flmul+3,f
  2826  031F  0CB0               	rrf	??___flmul+2,f
  2827  0320  0CAF               	rrf	??___flmul+1,f
  2828  0321  0CAE               	rrf	??___flmul,f
  2829  0322                     u3110:
  2830  0322  0BB2               	decfsz	??___flmul+4,f
  2831  0323  2B1D               	goto	u3115
  2832  0324  0831               	movf	??___flmul+3,w
  2833  0325  00BD               	movwf	___flmul@prod+3
  2834  0326  0830               	movf	??___flmul+2,w
  2835  0327  00BC               	movwf	___flmul@prod+2
  2836  0328  082F               	movf	??___flmul+1,w
  2837  0329  00BB               	movwf	___flmul@prod+1
  2838  032A  082E               	movf	??___flmul,w
  2839  032B  00BA               	movwf	___flmul@prod
  2840  032C                     l2552:
  2841  032C  3001               	movlw	1
  2842  032D  07BE               	addwf	___flmul@temp,f
  2843  032E  1803               	skipnc
  2844  032F  0ABF               	incf	___flmul@temp+1,f
  2845  0330  3000               	movlw	0
  2846  0331  07BF               	addwf	___flmul@temp+1,f
  2847  0332                     l2554:
  2848  0332  083F               	movf	___flmul@temp+1,w
  2849  0333  3A80               	xorlw	128
  2850  0334  00FF               	movwf	btemp+1
  2851  0335  3080               	movlw	128
  2852  0336  027F               	subwf	btemp+1,w
  2853  0337  1D03               	skipz
  2854  0338  2B3B               	goto	u3125
  2855  0339  30FF               	movlw	255
  2856  033A  023E               	subwf	___flmul@temp,w
  2857  033B                     u3125:
  2858  033B  1C03               	skipc
  2859  033C  2B3E               	goto	u3121
  2860  033D  2B3F               	goto	u3120
  2861  033E                     u3121:
  2862  033E  2B4A               	goto	l2558
  2863  033F                     u3120:
  2864  033F                     l2556:
  2865  033F  307F               	movlw	127
  2866  0340  1283               	bcf	3,5	;RP0=0, select bank0
  2867  0341  1303               	bcf	3,6	;RP1=0, select bank0
  2868  0342  00BD               	movwf	___flmul@prod+3
  2869  0343  3080               	movlw	128
  2870  0344  00BC               	movwf	___flmul@prod+2
  2871  0345  3000               	movlw	0
  2872  0346  00BB               	movwf	___flmul@prod+1
  2873  0347  3000               	movlw	0
  2874  0348  00BA               	movwf	___flmul@prod
  2875  0349  2B7F               	goto	l709
  2876  034A                     l2558:
  2877  034A  1283               	bcf	3,5	;RP0=0, select bank0
  2878  034B  1303               	bcf	3,6	;RP1=0, select bank0
  2879  034C  083F               	movf	___flmul@temp+1,w
  2880  034D  3A80               	xorlw	128
  2881  034E  00FF               	movwf	btemp+1
  2882  034F  3080               	movlw	128
  2883  0350  027F               	subwf	btemp+1,w
  2884  0351  1D03               	skipz
  2885  0352  2B55               	goto	u3135
  2886  0353  3001               	movlw	1
  2887  0354  023E               	subwf	___flmul@temp,w
  2888  0355                     u3135:
  2889  0355  1803               	skipnc
  2890  0356  2B58               	goto	u3131
  2891  0357  2B59               	goto	u3130
  2892  0358                     u3131:
  2893  0358  2B65               	goto	l2564
  2894  0359                     u3130:
  2895  0359                     l2560:
  2896  0359  3000               	movlw	0
  2897  035A  1283               	bcf	3,5	;RP0=0, select bank0
  2898  035B  1303               	bcf	3,6	;RP1=0, select bank0
  2899  035C  00BD               	movwf	___flmul@prod+3
  2900  035D  3000               	movlw	0
  2901  035E  00BC               	movwf	___flmul@prod+2
  2902  035F  3000               	movlw	0
  2903  0360  00BB               	movwf	___flmul@prod+1
  2904  0361  3000               	movlw	0
  2905  0362  00BA               	movwf	___flmul@prod
  2906  0363                     l2562:
  2907  0363  01B3               	clrf	___flmul@sign
  2908  0364  2B7F               	goto	l709
  2909  0365                     l2564:
  2910  0365  1283               	bcf	3,5	;RP0=0, select bank0
  2911  0366  1303               	bcf	3,6	;RP1=0, select bank0
  2912  0367  083E               	movf	___flmul@temp,w
  2913  0368  00AE               	movwf	??___flmul
  2914  0369  082E               	movf	??___flmul,w
  2915  036A  00B9               	movwf	___flmul@bexp
  2916  036B  30FF               	movlw	255
  2917  036C  05BA               	andwf	___flmul@prod,f
  2918  036D  30FF               	movlw	255
  2919  036E  05BB               	andwf	___flmul@prod+1,f
  2920  036F  307F               	movlw	127
  2921  0370  05BC               	andwf	___flmul@prod+2,f
  2922  0371  3000               	movlw	0
  2923  0372  05BD               	andwf	___flmul@prod+3,f
  2924  0373                     l2566:
  2925  0373  1C39               	btfss	___flmul@bexp,0
  2926  0374  2B76               	goto	u3141
  2927  0375  2B77               	goto	u3140
  2928  0376                     u3141:
  2929  0376  2B78               	goto	l2570
  2930  0377                     u3140:
  2931  0377                     l2568:
  2932  0377  17BC               	bsf	___flmul@prod+2,7
  2933  0378                     l2570:
  2934  0378  0839               	movf	___flmul@bexp,w
  2935  0379  00AE               	movwf	??___flmul
  2936  037A  1003               	clrc
  2937  037B  0C2E               	rrf	??___flmul,w
  2938  037C  00AF               	movwf	??___flmul+1
  2939  037D  082F               	movf	??___flmul+1,w
  2940  037E  00BD               	movwf	___flmul@prod+3
  2941  037F                     l709:
  2942  037F  0833               	movf	___flmul@sign,w
  2943  0380  00AE               	movwf	??___flmul
  2944  0381  082E               	movf	??___flmul,w
  2945  0382  04BD               	iorwf	___flmul@prod+3,f
  2946  0383                     l2572:
  2947  0383  083D               	movf	___flmul@prod+3,w
  2948  0384  00A9               	movwf	?___flmul+3
  2949  0385  083C               	movf	___flmul@prod+2,w
  2950  0386  00A8               	movwf	?___flmul+2
  2951  0387  083B               	movf	___flmul@prod+1,w
  2952  0388  00A7               	movwf	?___flmul+1
  2953  0389  083A               	movf	___flmul@prod,w
  2954  038A  00A6               	movwf	?___flmul
  2955  038B                     l697:
  2956  038B  0008               	return
  2957  038C                     __end_of___flmul:
  2958                           
  2959                           	psect	text4
  2960  0C7A                     __ptext4:	
  2961 ;; *************** function __Umul8_16 *****************
  2962 ;; Defined at:
  2963 ;;		line 4 in file "C:\Program Files\Microchip\xc8\v2.31\pic\sources\c90\common\Umul8_16.c"
  2964 ;; Parameters:    Size  Location     Type
  2965 ;;  multiplier      1    wreg     unsigned char 
  2966 ;;  multiplicand    1    2[COMMON] unsigned char 
  2967 ;; Auto vars:     Size  Location     Type
  2968 ;;  multiplier      1    4[BANK0 ] unsigned char 
  2969 ;;  word_mpld       2    2[BANK0 ] unsigned int 
  2970 ;;  product         2    0[BANK0 ] unsigned int 
  2971 ;; Return value:  Size  Location     Type
  2972 ;;                  2    2[COMMON] unsigned int 
  2973 ;; Registers used:
  2974 ;;		wreg, status,2, status,0
  2975 ;; Tracked objects:
  2976 ;;		On entry : 0/0
  2977 ;;		On exit  : 0/0
  2978 ;;		Unchanged: 0/0
  2979 ;; Data sizes:     COMMON   BANK0   BANK1   BANK3   BANK2
  2980 ;;      Params:         2       0       0       0       0
  2981 ;;      Locals:         0       5       0       0       0
  2982 ;;      Temps:          2       0       0       0       0
  2983 ;;      Totals:         4       5       0       0       0
  2984 ;;Total ram usage:        9 bytes
  2985 ;; Hardware stack levels used:    1
  2986 ;; Hardware stack levels required when called:    1
  2987 ;; This function calls:
  2988 ;;		Nothing
  2989 ;; This function is called by:
  2990 ;;		___flmul
  2991 ;; This function uses a non-reentrant model
  2992 ;;
  2993                           
  2994                           
  2995                           ;psect for function __Umul8_16
  2996  0C7A                     __Umul8_16:
  2997                           
  2998                           ;incstack = 0
  2999                           ; Regs used in __Umul8_16: [wreg+status,2+status,0]
  3000                           ;__Umul8_16@multiplier stored from wreg
  3001  0C7A  1283               	bcf	3,5	;RP0=0, select bank0
  3002  0C7B  1303               	bcf	3,6	;RP1=0, select bank0
  3003  0C7C  00A4               	movwf	__Umul8_16@multiplier
  3004  0C7D                     l2366:
  3005  0C7D  01A0               	clrf	__Umul8_16@product
  3006  0C7E  01A1               	clrf	__Umul8_16@product+1
  3007  0C7F                     l2368:
  3008  0C7F  0872               	movf	__Umul8_16@multiplicand,w
  3009  0C80  00F4               	movwf	??__Umul8_16
  3010  0C81  01F5               	clrf	??__Umul8_16+1
  3011  0C82  0874               	movf	??__Umul8_16,w
  3012  0C83  00A2               	movwf	__Umul8_16@word_mpld
  3013  0C84  0875               	movf	??__Umul8_16+1,w
  3014  0C85  00A3               	movwf	__Umul8_16@word_mpld+1
  3015  0C86                     l2370:
  3016  0C86  1C24               	btfss	__Umul8_16@multiplier,0
  3017  0C87  2C89               	goto	u2741
  3018  0C88  2C8A               	goto	u2740
  3019  0C89                     u2741:
  3020  0C89  2C90               	goto	l716
  3021  0C8A                     u2740:
  3022  0C8A                     l2372:
  3023  0C8A  0822               	movf	__Umul8_16@word_mpld,w
  3024  0C8B  07A0               	addwf	__Umul8_16@product,f
  3025  0C8C  1803               	skipnc
  3026  0C8D  0AA1               	incf	__Umul8_16@product+1,f
  3027  0C8E  0823               	movf	__Umul8_16@word_mpld+1,w
  3028  0C8F  07A1               	addwf	__Umul8_16@product+1,f
  3029  0C90                     l716:
  3030  0C90  3001               	movlw	1
  3031  0C91                     u2755:
  3032  0C91  1003               	clrc
  3033  0C92  0DA2               	rlf	__Umul8_16@word_mpld,f
  3034  0C93  0DA3               	rlf	__Umul8_16@word_mpld+1,f
  3035  0C94  3EFF               	addlw	-1
  3036  0C95  1D03               	skipz
  3037  0C96  2C91               	goto	u2755
  3038  0C97  1003               	clrc
  3039  0C98  0CA4               	rrf	__Umul8_16@multiplier,f
  3040  0C99                     l2374:
  3041  0C99  0824               	movf	__Umul8_16@multiplier,w
  3042  0C9A  1D03               	btfss	3,2
  3043  0C9B  2C9D               	goto	u2761
  3044  0C9C  2C9E               	goto	u2760
  3045  0C9D                     u2761:
  3046  0C9D  2C86               	goto	l2370
  3047  0C9E                     u2760:
  3048  0C9E                     l2376:
  3049  0C9E  0821               	movf	__Umul8_16@product+1,w
  3050  0C9F  00F3               	movwf	?__Umul8_16+1
  3051  0CA0  0820               	movf	__Umul8_16@product,w
  3052  0CA1  00F2               	movwf	?__Umul8_16
  3053  0CA2                     l718:
  3054  0CA2  0008               	return
  3055  0CA3                     __end_of__Umul8_16:
  3056                           
  3057                           	psect	text5
  3058  038C                     __ptext5:	
  3059 ;; *************** function ___fladd *****************
  3060 ;; Defined at:
  3061 ;;		line 10 in file "C:\Program Files\Microchip\xc8\v2.31\pic\sources\c90\common\sprcadd.c"
  3062 ;; Parameters:    Size  Location     Type
  3063 ;;  b               4   32[BANK0 ] unsigned int 
  3064 ;;  a               4   36[BANK0 ] unsigned int 
  3065 ;; Auto vars:     Size  Location     Type
  3066 ;;  grs             1   51[BANK0 ] unsigned char 
  3067 ;;  bexp            1   50[BANK0 ] unsigned char 
  3068 ;;  aexp            1   49[BANK0 ] unsigned char 
  3069 ;;  signs           1   48[BANK0 ] unsigned char 
  3070 ;; Return value:  Size  Location     Type
  3071 ;;                  4   32[BANK0 ] unsigned char 
  3072 ;; Registers used:
  3073 ;;		wreg, status,2, status,0, btemp+1
  3074 ;; Tracked objects:
  3075 ;;		On entry : 0/0
  3076 ;;		On exit  : 0/0
  3077 ;;		Unchanged: 0/0
  3078 ;; Data sizes:     COMMON   BANK0   BANK1   BANK3   BANK2
  3079 ;;      Params:         0       8       0       0       0
  3080 ;;      Locals:         0       4       0       0       0
  3081 ;;      Temps:          0       8       0       0       0
  3082 ;;      Totals:         0      20       0       0       0
  3083 ;;Total ram usage:       20 bytes
  3084 ;; Hardware stack levels used:    1
  3085 ;; Hardware stack levels required when called:    1
  3086 ;; This function calls:
  3087 ;;		Nothing
  3088 ;; This function is called by:
  3089 ;;		_main
  3090 ;; This function uses a non-reentrant model
  3091 ;;
  3092                           
  3093                           
  3094                           ;psect for function ___fladd
  3095  038C                     ___fladd:
  3096  038C                     l1814:	
  3097                           ;incstack = 0
  3098                           ; Regs used in ___fladd: [wreg+status,2+status,0+btemp+1]
  3099                           
  3100  038C  1283               	bcf	3,5	;RP0=0, select bank0
  3101  038D  1303               	bcf	3,6	;RP1=0, select bank0
  3102  038E  0843               	movf	___fladd@b+3,w
  3103  038F  3980               	andlw	128
  3104  0390  00C8               	movwf	??___fladd
  3105  0391  0848               	movf	??___fladd,w
  3106  0392  00D0               	movwf	___fladd@signs
  3107  0393                     l1816:
  3108  0393  0843               	movf	___fladd@b+3,w
  3109  0394  00C8               	movwf	??___fladd
  3110  0395  0748               	addwf	??___fladd,w
  3111  0396  00C9               	movwf	??___fladd+1
  3112  0397  0849               	movf	??___fladd+1,w
  3113  0398  00D2               	movwf	___fladd@bexp
  3114  0399                     l1818:
  3115  0399  1FC2               	btfss	___fladd@b+2,7
  3116  039A  2B9C               	goto	u1641
  3117  039B  2B9D               	goto	u1640
  3118  039C                     u1641:
  3119  039C  2B9E               	goto	l1822
  3120  039D                     u1640:
  3121  039D                     l1820:
  3122  039D  1452               	bsf	___fladd@bexp,0
  3123  039E                     l1822:
  3124  039E  0852               	movf	___fladd@bexp,w
  3125  039F  1903               	btfsc	3,2
  3126  03A0  2BA2               	goto	u1651
  3127  03A1  2BA3               	goto	u1650
  3128  03A2                     u1651:
  3129  03A2  2BB3               	goto	l1832
  3130  03A3                     u1650:
  3131  03A3                     l1824:
  3132  03A3  0A52               	incf	___fladd@bexp,w
  3133  03A4  1D03               	btfss	3,2
  3134  03A5  2BA7               	goto	u1661
  3135  03A6  2BA8               	goto	u1660
  3136  03A7                     u1661:
  3137  03A7  2BB0               	goto	l1828
  3138  03A8                     u1660:
  3139  03A8                     l1826:
  3140  03A8  3000               	movlw	0
  3141  03A9  00C3               	movwf	___fladd@b+3
  3142  03AA  3000               	movlw	0
  3143  03AB  00C2               	movwf	___fladd@b+2
  3144  03AC  3000               	movlw	0
  3145  03AD  00C1               	movwf	___fladd@b+1
  3146  03AE  3000               	movlw	0
  3147  03AF  00C0               	movwf	___fladd@b
  3148  03B0                     l1828:
  3149  03B0  17C2               	bsf	___fladd@b+2,7
  3150  03B1                     l1830:
  3151  03B1  01C3               	clrf	___fladd@b+3
  3152  03B2  2BBB               	goto	l1834
  3153  03B3                     l1832:
  3154  03B3  3000               	movlw	0
  3155  03B4  00C3               	movwf	___fladd@b+3
  3156  03B5  3000               	movlw	0
  3157  03B6  00C2               	movwf	___fladd@b+2
  3158  03B7  3000               	movlw	0
  3159  03B8  00C1               	movwf	___fladd@b+1
  3160  03B9  3000               	movlw	0
  3161  03BA  00C0               	movwf	___fladd@b
  3162  03BB                     l1834:
  3163  03BB  0847               	movf	___fladd@a+3,w
  3164  03BC  3980               	andlw	128
  3165  03BD  00C8               	movwf	??___fladd
  3166  03BE  0848               	movf	??___fladd,w
  3167  03BF  00D1               	movwf	___fladd@aexp
  3168  03C0                     l1836:
  3169  03C0  0851               	movf	___fladd@aexp,w
  3170  03C1  0650               	xorwf	___fladd@signs,w
  3171  03C2  1903               	skipnz
  3172  03C3  2BC5               	goto	u1671
  3173  03C4  2BC6               	goto	u1670
  3174  03C5                     u1671:
  3175  03C5  2BC7               	goto	l1840
  3176  03C6                     u1670:
  3177  03C6                     l1838:
  3178  03C6  1750               	bsf	___fladd@signs,6
  3179  03C7                     l1840:
  3180  03C7  0847               	movf	___fladd@a+3,w
  3181  03C8  00C8               	movwf	??___fladd
  3182  03C9  0748               	addwf	??___fladd,w
  3183  03CA  00C9               	movwf	??___fladd+1
  3184  03CB  0849               	movf	??___fladd+1,w
  3185  03CC  00D1               	movwf	___fladd@aexp
  3186  03CD                     l1842:
  3187  03CD  1FC6               	btfss	___fladd@a+2,7
  3188  03CE  2BD0               	goto	u1681
  3189  03CF  2BD1               	goto	u1680
  3190  03D0                     u1681:
  3191  03D0  2BD2               	goto	l1846
  3192  03D1                     u1680:
  3193  03D1                     l1844:
  3194  03D1  1451               	bsf	___fladd@aexp,0
  3195  03D2                     l1846:
  3196  03D2  0851               	movf	___fladd@aexp,w
  3197  03D3  1903               	btfsc	3,2
  3198  03D4  2BD6               	goto	u1691
  3199  03D5  2BD7               	goto	u1690
  3200  03D6                     u1691:
  3201  03D6  2BE7               	goto	l1856
  3202  03D7                     u1690:
  3203  03D7                     l1848:
  3204  03D7  0A51               	incf	___fladd@aexp,w
  3205  03D8  1D03               	btfss	3,2
  3206  03D9  2BDB               	goto	u1701
  3207  03DA  2BDC               	goto	u1700
  3208  03DB                     u1701:
  3209  03DB  2BE4               	goto	l1852
  3210  03DC                     u1700:
  3211  03DC                     l1850:
  3212  03DC  3000               	movlw	0
  3213  03DD  00C7               	movwf	___fladd@a+3
  3214  03DE  3000               	movlw	0
  3215  03DF  00C6               	movwf	___fladd@a+2
  3216  03E0  3000               	movlw	0
  3217  03E1  00C5               	movwf	___fladd@a+1
  3218  03E2  3000               	movlw	0
  3219  03E3  00C4               	movwf	___fladd@a
  3220  03E4                     l1852:
  3221  03E4  17C6               	bsf	___fladd@a+2,7
  3222  03E5                     l1854:
  3223  03E5  01C7               	clrf	___fladd@a+3
  3224  03E6  2BEF               	goto	l601
  3225  03E7                     l1856:
  3226  03E7  3000               	movlw	0
  3227  03E8  00C7               	movwf	___fladd@a+3
  3228  03E9  3000               	movlw	0
  3229  03EA  00C6               	movwf	___fladd@a+2
  3230  03EB  3000               	movlw	0
  3231  03EC  00C5               	movwf	___fladd@a+1
  3232  03ED  3000               	movlw	0
  3233  03EE  00C4               	movwf	___fladd@a
  3234  03EF                     l601:
  3235  03EF  0852               	movf	___fladd@bexp,w
  3236  03F0  0251               	subwf	___fladd@aexp,w
  3237  03F1  1803               	skipnc
  3238  03F2  2BF4               	goto	u1711
  3239  03F3  2BF5               	goto	u1710
  3240  03F4                     u1711:
  3241  03F4  2C39               	goto	l1892
  3242  03F5                     u1710:
  3243  03F5                     l1858:
  3244  03F5  1F50               	btfss	___fladd@signs,6
  3245  03F6  2BF8               	goto	u1721
  3246  03F7  2BF9               	goto	u1720
  3247  03F8                     u1721:
  3248  03F8  2BFD               	goto	l1862
  3249  03F9                     u1720:
  3250  03F9                     l1860:
  3251  03F9  3080               	movlw	128
  3252  03FA  00C8               	movwf	??___fladd
  3253  03FB  0848               	movf	??___fladd,w
  3254  03FC  06D0               	xorwf	___fladd@signs,f
  3255  03FD                     l1862:
  3256  03FD  0852               	movf	___fladd@bexp,w
  3257  03FE  00C8               	movwf	??___fladd
  3258  03FF  0848               	movf	??___fladd,w
  3259  0400  00D3               	movwf	___fladd@grs
  3260  0401                     l1864:
  3261  0401  0851               	movf	___fladd@aexp,w
  3262  0402  00C8               	movwf	??___fladd
  3263  0403  0848               	movf	??___fladd,w
  3264  0404  00D2               	movwf	___fladd@bexp
  3265  0405                     l1866:
  3266  0405  0853               	movf	___fladd@grs,w
  3267  0406  00C8               	movwf	??___fladd
  3268  0407  0848               	movf	??___fladd,w
  3269  0408  00D1               	movwf	___fladd@aexp
  3270  0409                     l1868:
  3271  0409  0840               	movf	___fladd@b,w
  3272  040A  00C8               	movwf	??___fladd
  3273  040B  0848               	movf	??___fladd,w
  3274  040C  00D3               	movwf	___fladd@grs
  3275  040D                     l1870:
  3276  040D  0844               	movf	___fladd@a,w
  3277  040E  00C8               	movwf	??___fladd
  3278  040F  0848               	movf	??___fladd,w
  3279  0410  00C0               	movwf	___fladd@b
  3280  0411                     l1872:
  3281  0411  0853               	movf	___fladd@grs,w
  3282  0412  00C8               	movwf	??___fladd
  3283  0413  0848               	movf	??___fladd,w
  3284  0414  00C4               	movwf	___fladd@a
  3285  0415                     l1874:
  3286  0415  0841               	movf	___fladd@b+1,w
  3287  0416  00C8               	movwf	??___fladd
  3288  0417  0848               	movf	??___fladd,w
  3289  0418  00D3               	movwf	___fladd@grs
  3290  0419                     l1876:
  3291  0419  0845               	movf	___fladd@a+1,w
  3292  041A  00C8               	movwf	??___fladd
  3293  041B  0848               	movf	??___fladd,w
  3294  041C  00C1               	movwf	___fladd@b+1
  3295  041D                     l1878:
  3296  041D  0853               	movf	___fladd@grs,w
  3297  041E  00C8               	movwf	??___fladd
  3298  041F  0848               	movf	??___fladd,w
  3299  0420  00C5               	movwf	___fladd@a+1
  3300  0421                     l1880:
  3301  0421  0842               	movf	___fladd@b+2,w
  3302  0422  00C8               	movwf	??___fladd
  3303  0423  0848               	movf	??___fladd,w
  3304  0424  00D3               	movwf	___fladd@grs
  3305  0425                     l1882:
  3306  0425  0846               	movf	___fladd@a+2,w
  3307  0426  00C8               	movwf	??___fladd
  3308  0427  0848               	movf	??___fladd,w
  3309  0428  00C2               	movwf	___fladd@b+2
  3310  0429                     l1884:
  3311  0429  0853               	movf	___fladd@grs,w
  3312  042A  00C8               	movwf	??___fladd
  3313  042B  0848               	movf	??___fladd,w
  3314  042C  00C6               	movwf	___fladd@a+2
  3315  042D                     l1886:
  3316  042D  0843               	movf	___fladd@b+3,w
  3317  042E  00C8               	movwf	??___fladd
  3318  042F  0848               	movf	??___fladd,w
  3319  0430  00D3               	movwf	___fladd@grs
  3320  0431                     l1888:
  3321  0431  0847               	movf	___fladd@a+3,w
  3322  0432  00C8               	movwf	??___fladd
  3323  0433  0848               	movf	??___fladd,w
  3324  0434  00C3               	movwf	___fladd@b+3
  3325  0435                     l1890:
  3326  0435  0853               	movf	___fladd@grs,w
  3327  0436  00C8               	movwf	??___fladd
  3328  0437  0848               	movf	??___fladd,w
  3329  0438  00C7               	movwf	___fladd@a+3
  3330  0439                     l1892:
  3331  0439  01D3               	clrf	___fladd@grs
  3332  043A                     l1894:
  3333  043A  0851               	movf	___fladd@aexp,w
  3334  043B  00C8               	movwf	??___fladd
  3335  043C  01C9               	clrf	??___fladd+1
  3336  043D  0849               	movf	??___fladd+1,w
  3337  043E  00CB               	movwf	??___fladd+3
  3338  043F  0852               	movf	___fladd@bexp,w
  3339  0440  0248               	subwf	??___fladd,w
  3340  0441  00CA               	movwf	??___fladd+2
  3341  0442  1C03               	skipc
  3342  0443  03CB               	decf	??___fladd+3,f
  3343  0444  084B               	movf	??___fladd+3,w
  3344  0445  3A80               	xorlw	128
  3345  0446  00FF               	movwf	btemp+1
  3346  0447  3080               	movlw	128
  3347  0448  027F               	subwf	btemp+1,w
  3348  0449  1D03               	skipz
  3349  044A  2C4D               	goto	u1735
  3350  044B  301A               	movlw	26
  3351  044C  024A               	subwf	??___fladd+2,w
  3352  044D                     u1735:
  3353  044D  1C03               	skipc
  3354  044E  2C50               	goto	u1731
  3355  044F  2C51               	goto	u1730
  3356  0450                     u1731:
  3357  0450  2C8E               	goto	l1910
  3358  0451                     u1730:
  3359  0451                     l1896:
  3360  0451  1283               	bcf	3,5	;RP0=0, select bank0
  3361  0452  1303               	bcf	3,6	;RP1=0, select bank0
  3362  0453  0843               	movf	___fladd@b+3,w
  3363  0454  0442               	iorwf	___fladd@b+2,w
  3364  0455  0441               	iorwf	___fladd@b+1,w
  3365  0456  0440               	iorwf	___fladd@b,w
  3366  0457  1D03               	skipz
  3367  0458  2C5A               	goto	u1741
  3368  0459  2C5C               	goto	u1740
  3369  045A                     u1741:
  3370  045A  3001               	movlw	1
  3371  045B  2C5D               	goto	u1750
  3372  045C                     u1740:
  3373  045C  3000               	movlw	0
  3374  045D                     u1750:
  3375  045D  00C8               	movwf	??___fladd
  3376  045E  0848               	movf	??___fladd,w
  3377  045F  00D3               	movwf	___fladd@grs
  3378  0460  3000               	movlw	0
  3379  0461  00C3               	movwf	___fladd@b+3
  3380  0462  3000               	movlw	0
  3381  0463  00C2               	movwf	___fladd@b+2
  3382  0464  3000               	movlw	0
  3383  0465  00C1               	movwf	___fladd@b+1
  3384  0466  3000               	movlw	0
  3385  0467  00C0               	movwf	___fladd@b
  3386  0468  0851               	movf	___fladd@aexp,w
  3387  0469  00C8               	movwf	??___fladd
  3388  046A  0848               	movf	??___fladd,w
  3389  046B  00D2               	movwf	___fladd@bexp
  3390  046C  2C96               	goto	l605
  3391  046D                     l607:
  3392  046D  1C53               	btfss	___fladd@grs,0
  3393  046E  2C70               	goto	u1761
  3394  046F  2C71               	goto	u1760
  3395  0470                     u1761:
  3396  0470  2C7A               	goto	l1900
  3397  0471                     u1760:
  3398  0471                     l1898:
  3399  0471  0853               	movf	___fladd@grs,w
  3400  0472  00C8               	movwf	??___fladd
  3401  0473  1003               	clrc
  3402  0474  0C48               	rrf	??___fladd,w
  3403  0475  3801               	iorlw	1
  3404  0476  00C9               	movwf	??___fladd+1
  3405  0477  0849               	movf	??___fladd+1,w
  3406  0478  00D3               	movwf	___fladd@grs
  3407  0479  2C7C               	goto	l1902
  3408  047A                     l1900:
  3409  047A  1003               	clrc
  3410  047B  0CD3               	rrf	___fladd@grs,f
  3411  047C                     l1902:
  3412  047C  1C40               	btfss	___fladd@b,0
  3413  047D  2C7F               	goto	u1771
  3414  047E  2C80               	goto	u1770
  3415  047F                     u1771:
  3416  047F  2C81               	goto	l1906
  3417  0480                     u1770:
  3418  0480                     l1904:
  3419  0480  17D3               	bsf	___fladd@grs,7
  3420  0481                     l1906:
  3421  0481  3001               	movlw	1
  3422  0482  00C8               	movwf	??___fladd
  3423  0483                     u1785:
  3424  0483  0D43               	rlf	___fladd@b+3,w
  3425  0484  0CC3               	rrf	___fladd@b+3,f
  3426  0485  0CC2               	rrf	___fladd@b+2,f
  3427  0486  0CC1               	rrf	___fladd@b+1,f
  3428  0487  0CC0               	rrf	___fladd@b,f
  3429  0488  0BC8               	decfsz	??___fladd& (0+127),f
  3430  0489  2C83               	goto	u1785
  3431  048A                     l1908:
  3432  048A  3001               	movlw	1
  3433  048B  00C8               	movwf	??___fladd
  3434  048C  0848               	movf	??___fladd,w
  3435  048D  07D2               	addwf	___fladd@bexp,f
  3436  048E                     l1910:
  3437  048E  1283               	bcf	3,5	;RP0=0, select bank0
  3438  048F  1303               	bcf	3,6	;RP1=0, select bank0
  3439  0490  0851               	movf	___fladd@aexp,w
  3440  0491  0252               	subwf	___fladd@bexp,w
  3441  0492  1C03               	skipc
  3442  0493  2C95               	goto	u1791
  3443  0494  2C96               	goto	u1790
  3444  0495                     u1791:
  3445  0495  2C6D               	goto	l607
  3446  0496                     u1790:
  3447  0496                     l605:
  3448  0496  1B50               	btfsc	___fladd@signs,6
  3449  0497  2C99               	goto	u1801
  3450  0498  2C9A               	goto	u1800
  3451  0499                     u1801:
  3452  0499  2CE5               	goto	l1936
  3453  049A                     u1800:
  3454  049A                     l1912:
  3455  049A  0852               	movf	___fladd@bexp,w
  3456  049B  1D03               	btfss	3,2
  3457  049C  2C9E               	goto	u1811
  3458  049D  2C9F               	goto	u1810
  3459  049E                     u1811:
  3460  049E  2CA8               	goto	l1918
  3461  049F                     u1810:
  3462  049F                     l1914:
  3463  049F  3000               	movlw	0
  3464  04A0  00C3               	movwf	?___fladd+3
  3465  04A1  3000               	movlw	0
  3466  04A2  00C2               	movwf	?___fladd+2
  3467  04A3  3000               	movlw	0
  3468  04A4  00C1               	movwf	?___fladd+1
  3469  04A5  3000               	movlw	0
  3470  04A6  00C0               	movwf	?___fladd
  3471  04A7  2E13               	goto	l614
  3472  04A8                     l1918:
  3473  04A8  0844               	movf	___fladd@a,w
  3474  04A9  07C0               	addwf	___fladd@b,f
  3475  04AA  0845               	movf	___fladd@a+1,w
  3476  04AB  1103               	clrz
  3477  04AC  1803               	skipnc
  3478  04AD  3E01               	addlw	1
  3479  04AE  1903               	skipnz
  3480  04AF  2CB1               	goto	u1821
  3481  04B0  07C1               	addwf	___fladd@b+1,f
  3482  04B1                     u1821:
  3483  04B1  0846               	movf	___fladd@a+2,w
  3484  04B2  1103               	clrz
  3485  04B3  1803               	skipnc
  3486  04B4  3E01               	addlw	1
  3487  04B5  1903               	skipnz
  3488  04B6  2CB8               	goto	u1822
  3489  04B7  07C2               	addwf	___fladd@b+2,f
  3490  04B8                     u1822:
  3491  04B8  0847               	movf	___fladd@a+3,w
  3492  04B9  1103               	clrz
  3493  04BA  1803               	skipnc
  3494  04BB  3E01               	addlw	1
  3495  04BC  1903               	skipnz
  3496  04BD  2CBF               	goto	u1823
  3497  04BE  07C3               	addwf	___fladd@b+3,f
  3498  04BF                     u1823:
  3499  04BF                     l1920:
  3500  04BF  1C43               	btfss	___fladd@b+3,0
  3501  04C0  2CC2               	goto	u1831
  3502  04C1  2CC3               	goto	u1830
  3503  04C2                     u1831:
  3504  04C2  2D99               	goto	l1970
  3505  04C3                     u1830:
  3506  04C3                     l1922:
  3507  04C3  1C53               	btfss	___fladd@grs,0
  3508  04C4  2CC6               	goto	u1841
  3509  04C5  2CC7               	goto	u1840
  3510  04C6                     u1841:
  3511  04C6  2CD0               	goto	l1926
  3512  04C7                     u1840:
  3513  04C7                     l1924:
  3514  04C7  0853               	movf	___fladd@grs,w
  3515  04C8  00C8               	movwf	??___fladd
  3516  04C9  1003               	clrc
  3517  04CA  0C48               	rrf	??___fladd,w
  3518  04CB  3801               	iorlw	1
  3519  04CC  00C9               	movwf	??___fladd+1
  3520  04CD  0849               	movf	??___fladd+1,w
  3521  04CE  00D3               	movwf	___fladd@grs
  3522  04CF  2CD2               	goto	l1928
  3523  04D0                     l1926:
  3524  04D0  1003               	clrc
  3525  04D1  0CD3               	rrf	___fladd@grs,f
  3526  04D2                     l1928:
  3527  04D2  1C40               	btfss	___fladd@b,0
  3528  04D3  2CD5               	goto	u1851
  3529  04D4  2CD6               	goto	u1850
  3530  04D5                     u1851:
  3531  04D5  2CD7               	goto	l1932
  3532  04D6                     u1850:
  3533  04D6                     l1930:
  3534  04D6  17D3               	bsf	___fladd@grs,7
  3535  04D7                     l1932:
  3536  04D7  3001               	movlw	1
  3537  04D8  00C8               	movwf	??___fladd
  3538  04D9                     u1865:
  3539  04D9  0D43               	rlf	___fladd@b+3,w
  3540  04DA  0CC3               	rrf	___fladd@b+3,f
  3541  04DB  0CC2               	rrf	___fladd@b+2,f
  3542  04DC  0CC1               	rrf	___fladd@b+1,f
  3543  04DD  0CC0               	rrf	___fladd@b,f
  3544  04DE  0BC8               	decfsz	??___fladd& (0+127),f
  3545  04DF  2CD9               	goto	u1865
  3546  04E0                     l1934:
  3547  04E0  3001               	movlw	1
  3548  04E1  00C8               	movwf	??___fladd
  3549  04E2  0848               	movf	??___fladd,w
  3550  04E3  07D2               	addwf	___fladd@bexp,f
  3551  04E4  2D99               	goto	l1970
  3552  04E5                     l1936:
  3553  04E5  0843               	movf	___fladd@b+3,w
  3554  04E6  3A80               	xorlw	128
  3555  04E7  00FF               	movwf	btemp+1
  3556  04E8  0847               	movf	___fladd@a+3,w
  3557  04E9  3A80               	xorlw	128
  3558  04EA  027F               	subwf	btemp+1,w
  3559  04EB  1D03               	skipz
  3560  04EC  2CF7               	goto	u1873
  3561  04ED  0846               	movf	___fladd@a+2,w
  3562  04EE  0242               	subwf	___fladd@b+2,w
  3563  04EF  1D03               	skipz
  3564  04F0  2CF7               	goto	u1873
  3565  04F1  0845               	movf	___fladd@a+1,w
  3566  04F2  0241               	subwf	___fladd@b+1,w
  3567  04F3  1D03               	skipz
  3568  04F4  2CF7               	goto	u1873
  3569  04F5  0844               	movf	___fladd@a,w
  3570  04F6  0240               	subwf	___fladd@b,w
  3571  04F7                     u1873:
  3572  04F7  1803               	skipnc
  3573  04F8  2CFA               	goto	u1871
  3574  04F9  2CFB               	goto	u1870
  3575  04FA                     u1871:
  3576  04FA  2D53               	goto	l1946
  3577  04FB                     u1870:
  3578  04FB                     l1938:
  3579  04FB  30FF               	movlw	255
  3580  04FC  00C8               	movwf	??___fladd
  3581  04FD  30FF               	movlw	255
  3582  04FE  00C9               	movwf	??___fladd+1
  3583  04FF  30FF               	movlw	255
  3584  0500  00CA               	movwf	??___fladd+2
  3585  0501  30FF               	movlw	255
  3586  0502  00CB               	movwf	??___fladd+3
  3587  0503  0844               	movf	___fladd@a,w
  3588  0504  00CC               	movwf	??___fladd+4
  3589  0505  0845               	movf	___fladd@a+1,w
  3590  0506  00CD               	movwf	??___fladd+5
  3591  0507  0846               	movf	___fladd@a+2,w
  3592  0508  00CE               	movwf	??___fladd+6
  3593  0509  0847               	movf	___fladd@a+3,w
  3594  050A  00CF               	movwf	??___fladd+7
  3595  050B  0840               	movf	___fladd@b,w
  3596  050C  02CC               	subwf	??___fladd+4,f
  3597  050D  0841               	movf	___fladd@b+1,w
  3598  050E  1C03               	skipc
  3599  050F  0F41               	incfsz	___fladd@b+1,w
  3600  0510  2D12               	goto	u1881
  3601  0511  2D13               	goto	u1882
  3602  0512                     u1881:
  3603  0512  02CD               	subwf	??___fladd+5,f
  3604  0513                     u1882:
  3605  0513  0842               	movf	___fladd@b+2,w
  3606  0514  1C03               	skipc
  3607  0515  0F42               	incfsz	___fladd@b+2,w
  3608  0516  2D18               	goto	u1883
  3609  0517  2D19               	goto	u1884
  3610  0518                     u1883:
  3611  0518  02CE               	subwf	??___fladd+6,f
  3612  0519                     u1884:
  3613  0519  0843               	movf	___fladd@b+3,w
  3614  051A  1C03               	skipc
  3615  051B  0F43               	incfsz	___fladd@b+3,w
  3616  051C  2D1E               	goto	u1885
  3617  051D  2D1F               	goto	u1886
  3618  051E                     u1885:
  3619  051E  02CF               	subwf	??___fladd+7,f
  3620  051F                     u1886:
  3621  051F  084C               	movf	??___fladd+4,w
  3622  0520  07C8               	addwf	??___fladd,f
  3623  0521  084D               	movf	??___fladd+5,w
  3624  0522  1803               	skipnc
  3625  0523  0F4D               	incfsz	??___fladd+5,w
  3626  0524  2D26               	goto	u1890
  3627  0525  2D27               	goto	u1891
  3628  0526                     u1890:
  3629  0526  07C9               	addwf	??___fladd+1,f
  3630  0527                     u1891:
  3631  0527  084E               	movf	??___fladd+6,w
  3632  0528  1803               	skipnc
  3633  0529  0F4E               	incfsz	??___fladd+6,w
  3634  052A  2D2C               	goto	u1892
  3635  052B  2D2D               	goto	u1893
  3636  052C                     u1892:
  3637  052C  07CA               	addwf	??___fladd+2,f
  3638  052D                     u1893:
  3639  052D  084F               	movf	??___fladd+7,w
  3640  052E  1803               	skipnc
  3641  052F  0A4F               	incf	??___fladd+7,w
  3642  0530  07CB               	addwf	??___fladd+3,f
  3643  0531  084B               	movf	??___fladd+3,w
  3644  0532  00C3               	movwf	___fladd@b+3
  3645  0533  084A               	movf	??___fladd+2,w
  3646  0534  00C2               	movwf	___fladd@b+2
  3647  0535  0849               	movf	??___fladd+1,w
  3648  0536  00C1               	movwf	___fladd@b+1
  3649  0537  0848               	movf	??___fladd,w
  3650  0538  00C0               	movwf	___fladd@b
  3651  0539                     l1940:
  3652  0539  3080               	movlw	128
  3653  053A  00C8               	movwf	??___fladd
  3654  053B  0848               	movf	??___fladd,w
  3655  053C  06D0               	xorwf	___fladd@signs,f
  3656  053D  09D3               	comf	___fladd@grs,f
  3657  053E  0AD3               	incf	___fladd@grs,f
  3658  053F                     l1942:
  3659  053F  0853               	movf	___fladd@grs,w
  3660  0540  1D03               	btfss	3,2
  3661  0541  2D43               	goto	u1901
  3662  0542  2D44               	goto	u1900
  3663  0543                     u1901:
  3664  0543  2D61               	goto	l622
  3665  0544                     u1900:
  3666  0544                     l1944:
  3667  0544  3001               	movlw	1
  3668  0545  07C0               	addwf	___fladd@b,f
  3669  0546  3000               	movlw	0
  3670  0547  1803               	skipnc
  3671  0548  3001               	movlw	1
  3672  0549  07C1               	addwf	___fladd@b+1,f
  3673  054A  3000               	movlw	0
  3674  054B  1803               	skipnc
  3675  054C  3001               	movlw	1
  3676  054D  07C2               	addwf	___fladd@b+2,f
  3677  054E  3000               	movlw	0
  3678  054F  1803               	skipnc
  3679  0550  3001               	movlw	1
  3680  0551  07C3               	addwf	___fladd@b+3,f
  3681  0552  2D61               	goto	l622
  3682  0553                     l1946:
  3683  0553  0844               	movf	___fladd@a,w
  3684  0554  02C0               	subwf	___fladd@b,f
  3685  0555  0845               	movf	___fladd@a+1,w
  3686  0556  1C03               	skipc
  3687  0557  0F45               	incfsz	___fladd@a+1,w
  3688  0558  02C1               	subwf	___fladd@b+1,f
  3689  0559  0846               	movf	___fladd@a+2,w
  3690  055A  1C03               	skipc
  3691  055B  0F46               	incfsz	___fladd@a+2,w
  3692  055C  02C2               	subwf	___fladd@b+2,f
  3693  055D  0847               	movf	___fladd@a+3,w
  3694  055E  1C03               	skipc
  3695  055F  0F47               	incfsz	___fladd@a+3,w
  3696  0560  02C3               	subwf	___fladd@b+3,f
  3697  0561                     l622:
  3698  0561  0843               	movf	___fladd@b+3,w
  3699  0562  0442               	iorwf	___fladd@b+2,w
  3700  0563  0441               	iorwf	___fladd@b+1,w
  3701  0564  0440               	iorwf	___fladd@b,w
  3702  0565  1D03               	skipz
  3703  0566  2D68               	goto	u1911
  3704  0567  2D69               	goto	u1910
  3705  0568                     u1911:
  3706  0568  2D95               	goto	l1968
  3707  0569                     u1910:
  3708  0569                     l1948:
  3709  0569  0853               	movf	___fladd@grs,w
  3710  056A  1D03               	btfss	3,2
  3711  056B  2D6D               	goto	u1921
  3712  056C  2D6E               	goto	u1920
  3713  056D                     u1921:
  3714  056D  2D95               	goto	l1968
  3715  056E                     u1920:
  3716  056E                     l1950:
  3717  056E  3000               	movlw	0
  3718  056F  00C3               	movwf	?___fladd+3
  3719  0570  3000               	movlw	0
  3720  0571  00C2               	movwf	?___fladd+2
  3721  0572  3000               	movlw	0
  3722  0573  00C1               	movwf	?___fladd+1
  3723  0574  3000               	movlw	0
  3724  0575  00C0               	movwf	?___fladd
  3725  0576  2E13               	goto	l614
  3726  0577                     l1954:
  3727  0577  3001               	movlw	1
  3728  0578  00C8               	movwf	??___fladd
  3729  0579                     u1935:
  3730  0579  1003               	clrc
  3731  057A  0DC0               	rlf	___fladd@b,f
  3732  057B  0DC1               	rlf	___fladd@b+1,f
  3733  057C  0DC2               	rlf	___fladd@b+2,f
  3734  057D  0DC3               	rlf	___fladd@b+3,f
  3735  057E  0BC8               	decfsz	??___fladd,f
  3736  057F  2D79               	goto	u1935
  3737  0580                     l1956:
  3738  0580  1FD3               	btfss	___fladd@grs,7
  3739  0581  2D83               	goto	u1941
  3740  0582  2D84               	goto	u1940
  3741  0583                     u1941:
  3742  0583  2D85               	goto	l626
  3743  0584                     u1940:
  3744  0584                     l1958:
  3745  0584  1440               	bsf	___fladd@b,0
  3746  0585                     l626:
  3747  0585  1C53               	btfss	___fladd@grs,0
  3748  0586  2D88               	goto	u1951
  3749  0587  2D89               	goto	u1950
  3750  0588                     u1951:
  3751  0588  2D8C               	goto	l1962
  3752  0589                     u1950:
  3753  0589                     l1960:
  3754  0589  1403               	setc
  3755  058A  0DD3               	rlf	___fladd@grs,f
  3756  058B  2D8E               	goto	l1964
  3757  058C                     l1962:
  3758  058C  1003               	clrc
  3759  058D  0DD3               	rlf	___fladd@grs,f
  3760  058E                     l1964:
  3761  058E  0852               	movf	___fladd@bexp,w
  3762  058F  1903               	btfsc	3,2
  3763  0590  2D92               	goto	u1961
  3764  0591  2D93               	goto	u1960
  3765  0592                     u1961:
  3766  0592  2D95               	goto	l1968
  3767  0593                     u1960:
  3768  0593                     l1966:
  3769  0593  3001               	movlw	1
  3770  0594  02D2               	subwf	___fladd@bexp,f
  3771  0595                     l1968:
  3772  0595  1FC2               	btfss	___fladd@b+2,7
  3773  0596  2D98               	goto	u1971
  3774  0597  2D99               	goto	u1970
  3775  0598                     u1971:
  3776  0598  2D77               	goto	l1954
  3777  0599                     u1970:
  3778  0599                     l1970:
  3779  0599  01D1               	clrf	___fladd@aexp
  3780  059A                     l1972:
  3781  059A  1FD3               	btfss	___fladd@grs,7
  3782  059B  2D9D               	goto	u1981
  3783  059C  2D9E               	goto	u1980
  3784  059D                     u1981:
  3785  059D  2DAC               	goto	l1980
  3786  059E                     u1980:
  3787  059E                     l1974:
  3788  059E  0853               	movf	___fladd@grs,w
  3789  059F  397F               	andlw	127
  3790  05A0  1903               	btfsc	3,2
  3791  05A1  2DA3               	goto	u1991
  3792  05A2  2DA4               	goto	u1990
  3793  05A3                     u1991:
  3794  05A3  2DA7               	goto	l632
  3795  05A4                     u1990:
  3796  05A4                     l1976:
  3797  05A4  01D1               	clrf	___fladd@aexp
  3798  05A5  0AD1               	incf	___fladd@aexp,f
  3799  05A6  2DAC               	goto	l1980
  3800  05A7                     l632:
  3801  05A7  1C40               	btfss	___fladd@b,0
  3802  05A8  2DAA               	goto	u2001
  3803  05A9  2DAB               	goto	u2000
  3804  05AA                     u2001:
  3805  05AA  2DAC               	goto	l1980
  3806  05AB                     u2000:
  3807  05AB  2DA4               	goto	l1976
  3808  05AC                     l1980:
  3809  05AC  0851               	movf	___fladd@aexp,w
  3810  05AD  1903               	btfsc	3,2
  3811  05AE  2DB0               	goto	u2011
  3812  05AF  2DB1               	goto	u2010
  3813  05B0                     u2011:
  3814  05B0  2DE5               	goto	l635
  3815  05B1                     u2010:
  3816  05B1                     l1982:
  3817  05B1  3001               	movlw	1
  3818  05B2  07C0               	addwf	___fladd@b,f
  3819  05B3  3000               	movlw	0
  3820  05B4  1803               	skipnc
  3821  05B5  3001               	movlw	1
  3822  05B6  07C1               	addwf	___fladd@b+1,f
  3823  05B7  3000               	movlw	0
  3824  05B8  1803               	skipnc
  3825  05B9  3001               	movlw	1
  3826  05BA  07C2               	addwf	___fladd@b+2,f
  3827  05BB  3000               	movlw	0
  3828  05BC  1803               	skipnc
  3829  05BD  3001               	movlw	1
  3830  05BE  07C3               	addwf	___fladd@b+3,f
  3831  05BF                     l1984:
  3832  05BF  1C43               	btfss	___fladd@b+3,0
  3833  05C0  2DC2               	goto	u2021
  3834  05C1  2DC3               	goto	u2020
  3835  05C2                     u2021:
  3836  05C2  2DE5               	goto	l635
  3837  05C3                     u2020:
  3838  05C3                     l1986:
  3839  05C3  0840               	movf	___fladd@b,w
  3840  05C4  00C8               	movwf	??___fladd
  3841  05C5  0841               	movf	___fladd@b+1,w
  3842  05C6  00C9               	movwf	??___fladd+1
  3843  05C7  0842               	movf	___fladd@b+2,w
  3844  05C8  00CA               	movwf	??___fladd+2
  3845  05C9  0843               	movf	___fladd@b+3,w
  3846  05CA  00CB               	movwf	??___fladd+3
  3847  05CB  3001               	movlw	1
  3848  05CC  00CC               	movwf	??___fladd+4
  3849  05CD                     u2035:
  3850  05CD  0D4B               	rlf	??___fladd+3,w
  3851  05CE  0CCB               	rrf	??___fladd+3,f
  3852  05CF  0CCA               	rrf	??___fladd+2,f
  3853  05D0  0CC9               	rrf	??___fladd+1,f
  3854  05D1  0CC8               	rrf	??___fladd,f
  3855  05D2                     u2030:
  3856  05D2  0BCC               	decfsz	??___fladd+4,f
  3857  05D3  2DCD               	goto	u2035
  3858  05D4  084B               	movf	??___fladd+3,w
  3859  05D5  00C3               	movwf	___fladd@b+3
  3860  05D6  084A               	movf	??___fladd+2,w
  3861  05D7  00C2               	movwf	___fladd@b+2
  3862  05D8  0849               	movf	??___fladd+1,w
  3863  05D9  00C1               	movwf	___fladd@b+1
  3864  05DA  0848               	movf	??___fladd,w
  3865  05DB  00C0               	movwf	___fladd@b
  3866  05DC  0A52               	incf	___fladd@bexp,w
  3867  05DD  1903               	btfsc	3,2
  3868  05DE  2DE0               	goto	u2041
  3869  05DF  2DE1               	goto	u2040
  3870  05E0                     u2041:
  3871  05E0  2DE5               	goto	l635
  3872  05E1                     u2040:
  3873  05E1                     l1988:
  3874  05E1  3001               	movlw	1
  3875  05E2  00C8               	movwf	??___fladd
  3876  05E3  0848               	movf	??___fladd,w
  3877  05E4  07D2               	addwf	___fladd@bexp,f
  3878  05E5                     l635:
  3879  05E5  0A52               	incf	___fladd@bexp,w
  3880  05E6  1903               	btfsc	3,2
  3881  05E7  2DE9               	goto	u2051
  3882  05E8  2DEA               	goto	u2050
  3883  05E9                     u2051:
  3884  05E9  2DEF               	goto	l1992
  3885  05EA                     u2050:
  3886  05EA                     l1990:
  3887  05EA  0852               	movf	___fladd@bexp,w
  3888  05EB  1D03               	btfss	3,2
  3889  05EC  2DEE               	goto	u2061
  3890  05ED  2DEF               	goto	u2060
  3891  05EE                     u2061:
  3892  05EE  2DFD               	goto	l1998
  3893  05EF                     u2060:
  3894  05EF                     l1992:
  3895  05EF  3000               	movlw	0
  3896  05F0  00C3               	movwf	___fladd@b+3
  3897  05F1  3000               	movlw	0
  3898  05F2  00C2               	movwf	___fladd@b+2
  3899  05F3  3000               	movlw	0
  3900  05F4  00C1               	movwf	___fladd@b+1
  3901  05F5  3000               	movlw	0
  3902  05F6  00C0               	movwf	___fladd@b
  3903  05F7                     l1994:
  3904  05F7  0852               	movf	___fladd@bexp,w
  3905  05F8  1D03               	btfss	3,2
  3906  05F9  2DFB               	goto	u2071
  3907  05FA  2DFC               	goto	u2070
  3908  05FB                     u2071:
  3909  05FB  2DFD               	goto	l1998
  3910  05FC                     u2070:
  3911  05FC                     l1996:
  3912  05FC  01D0               	clrf	___fladd@signs
  3913  05FD                     l1998:
  3914  05FD  1C52               	btfss	___fladd@bexp,0
  3915  05FE  2E00               	goto	u2081
  3916  05FF  2E01               	goto	u2080
  3917  0600                     u2081:
  3918  0600  2E03               	goto	l2002
  3919  0601                     u2080:
  3920  0601                     l2000:
  3921  0601  17C2               	bsf	___fladd@b+2,7
  3922  0602  2E07               	goto	l643
  3923  0603                     l2002:
  3924  0603  307F               	movlw	127
  3925  0604  00C8               	movwf	??___fladd
  3926  0605  0848               	movf	??___fladd,w
  3927  0606  05C2               	andwf	___fladd@b+2,f
  3928  0607                     l643:
  3929  0607  0852               	movf	___fladd@bexp,w
  3930  0608  00C8               	movwf	??___fladd
  3931  0609  1003               	clrc
  3932  060A  0C48               	rrf	??___fladd,w
  3933  060B  00C9               	movwf	??___fladd+1
  3934  060C  0849               	movf	??___fladd+1,w
  3935  060D  00C3               	movwf	___fladd@b+3
  3936  060E                     l2004:
  3937  060E  1FD0               	btfss	___fladd@signs,7
  3938  060F  2E11               	goto	u2091
  3939  0610  2E12               	goto	u2090
  3940  0611                     u2091:
  3941  0611  2E13               	goto	l644
  3942  0612                     u2090:
  3943  0612                     l2006:
  3944  0612  17C3               	bsf	___fladd@b+3,7
  3945  0613                     l644:
  3946  0613                     l614:
  3947  0613  0008               	return
  3948  0614                     __end_of___fladd:
  3949                           
  3950                           	psect	text6
  3951  0C19                     __ptext6:	
  3952 ;; *************** function _USART_Init *****************
  3953 ;; Defined at:
  3954 ;;		line 4 in file "USART.c"
  3955 ;; Parameters:    Size  Location     Type
  3956 ;;		None
  3957 ;; Auto vars:     Size  Location     Type
  3958 ;;		None
  3959 ;; Return value:  Size  Location     Type
  3960 ;;                  1    wreg      void 
  3961 ;; Registers used:
  3962 ;;		wreg, status,2
  3963 ;; Tracked objects:
  3964 ;;		On entry : 0/0
  3965 ;;		On exit  : 0/0
  3966 ;;		Unchanged: 0/0
  3967 ;; Data sizes:     COMMON   BANK0   BANK1   BANK3   BANK2
  3968 ;;      Params:         0       0       0       0       0
  3969 ;;      Locals:         0       0       0       0       0
  3970 ;;      Temps:          0       0       0       0       0
  3971 ;;      Totals:         0       0       0       0       0
  3972 ;;Total ram usage:        0 bytes
  3973 ;; Hardware stack levels used:    1
  3974 ;; Hardware stack levels required when called:    1
  3975 ;; This function calls:
  3976 ;;		Nothing
  3977 ;; This function is called by:
  3978 ;;		_main
  3979 ;; This function uses a non-reentrant model
  3980 ;;
  3981                           
  3982                           
  3983                           ;psect for function _USART_Init
  3984  0C19                     _USART_Init:
  3985  0C19                     l1682:	
  3986                           ;incstack = 0
  3987                           ; Regs used in _USART_Init: [wreg+status,2]
  3988                           
  3989                           
  3990                           ;USART.c: 6:     TXSTAbits.SYNC = 0;
  3991  0C19  1683               	bsf	3,5	;RP0=1, select bank1
  3992  0C1A  1303               	bcf	3,6	;RP1=0, select bank1
  3993  0C1B  1218               	bcf	24,4	;volatile
  3994                           
  3995                           ;USART.c: 7:     TXSTAbits.BRGH = 1;
  3996  0C1C  1518               	bsf	24,2	;volatile
  3997                           
  3998                           ;USART.c: 8:     BAUDCTLbits.BRG16 = 1;
  3999  0C1D  1683               	bsf	3,5	;RP0=1, select bank3
  4000  0C1E  1703               	bsf	3,6	;RP1=1, select bank3
  4001  0C1F  1587               	bsf	7,3	;volatile
  4002  0C20                     l1684:
  4003                           
  4004                           ;USART.c: 10:     SPBRG = 207;
  4005  0C20  30CF               	movlw	207
  4006  0C21  1683               	bsf	3,5	;RP0=1, select bank1
  4007  0C22  1303               	bcf	3,6	;RP1=0, select bank1
  4008  0C23  0099               	movwf	25	;volatile
  4009  0C24                     l1686:
  4010                           
  4011                           ;USART.c: 11:     SPBRGH = 0;
  4012  0C24  019A               	clrf	26	;volatile
  4013  0C25                     l1688:
  4014                           
  4015                           ;USART.c: 13:     RCSTAbits.SPEN = 1;
  4016  0C25  1283               	bcf	3,5	;RP0=0, select bank0
  4017  0C26  1303               	bcf	3,6	;RP1=0, select bank0
  4018  0C27  1798               	bsf	24,7	;volatile
  4019  0C28                     l1690:
  4020                           
  4021                           ;USART.c: 14:     RCSTAbits.RX9 = 0;
  4022  0C28  1318               	bcf	24,6	;volatile
  4023  0C29                     l1692:
  4024                           
  4025                           ;USART.c: 15:     RCSTAbits.CREN = 1;
  4026  0C29  1618               	bsf	24,4	;volatile
  4027  0C2A                     l1694:
  4028                           
  4029                           ;USART.c: 16:     TXSTAbits.TXEN = 1;
  4030  0C2A  1683               	bsf	3,5	;RP0=1, select bank1
  4031  0C2B  1303               	bcf	3,6	;RP1=0, select bank1
  4032  0C2C  1698               	bsf	24,5	;volatile
  4033  0C2D                     l204:
  4034  0C2D  0008               	return
  4035  0C2E                     __end_of_USART_Init:
  4036                           
  4037                           	psect	text7
  4038  0D41                     __ptext7:	
  4039 ;; *************** function _LCD_Print *****************
  4040 ;; Defined at:
  4041 ;;		line 167 in file "I2C.c"
  4042 ;; Parameters:    Size  Location     Type
  4043 ;;  LCD_Str         1    wreg     PTR unsigned char 
  4044 ;;		 -> STR_1(14), 
  4045 ;; Auto vars:     Size  Location     Type
  4046 ;;  LCD_Str         1    7[COMMON] PTR unsigned char 
  4047 ;;		 -> STR_1(14), 
  4048 ;;  i               1    8[COMMON] unsigned char 
  4049 ;; Return value:  Size  Location     Type
  4050 ;;                  1    wreg      void 
  4051 ;; Registers used:
  4052 ;;		wreg, fsr0l, fsr0h, status,2, status,0, pclath, cstack
  4053 ;; Tracked objects:
  4054 ;;		On entry : 0/0
  4055 ;;		On exit  : 0/0
  4056 ;;		Unchanged: 0/0
  4057 ;; Data sizes:     COMMON   BANK0   BANK1   BANK3   BANK2
  4058 ;;      Params:         0       0       0       0       0
  4059 ;;      Locals:         2       0       0       0       0
  4060 ;;      Temps:          1       0       0       0       0
  4061 ;;      Totals:         3       0       0       0       0
  4062 ;;Total ram usage:        3 bytes
  4063 ;; Hardware stack levels used:    1
  4064 ;; Hardware stack levels required when called:    5
  4065 ;; This function calls:
  4066 ;;		_LCD_Write_Nibble
  4067 ;; This function is called by:
  4068 ;;		_main
  4069 ;; This function uses a non-reentrant model
  4070 ;;
  4071                           
  4072                           
  4073                           ;psect for function _LCD_Print
  4074  0D41                     _LCD_Print:
  4075                           
  4076                           ;incstack = 0
  4077                           ; Regs used in _LCD_Print: [wreg-fsr0h+status,2+status,0+pclath+cstack]
  4078                           ;LCD_Print@LCD_Str stored from wreg
  4079  0D41  00F7               	movwf	LCD_Print@LCD_Str
  4080  0D42                     l1752:
  4081                           
  4082                           ;I2C.c: 167: void LCD_Print(char* LCD_Str);I2C.c: 168: {;I2C.c: 169:   uint8_t i = 0;
  4083  0D42  01F8               	clrf	LCD_Print@i
  4084  0D43                     l1754:
  4085                           
  4086                           ;I2C.c: 170:   RS = 1;
  4087  0D43  147A               	bsf	_RS/(0+8),_RS& (0+7)
  4088                           
  4089                           ;I2C.c: 171:   while(LCD_Str[i] != '\0')
  4090  0D44  2D6E               	goto	l1760
  4091  0D45                     l1756:
  4092                           
  4093                           ;I2C.c: 172:   {;I2C.c: 173:     LCD_Write_Nibble(LCD_Str[i] & 0xF0);
  4094  0D45  0878               	movf	LCD_Print@i,w
  4095  0D46  0777               	addwf	LCD_Print@LCD_Str,w
  4096  0D47  0084               	movwf	4
  4097  0D48  120A  158A  2000  120A  158A  	fcall	stringdir
  4098  0D4D  39F0               	andlw	240
  4099  0D4E  120A  158A  242E  120A  158A  	fcall	_LCD_Write_Nibble
  4100                           
  4101                           ;I2C.c: 174:     LCD_Write_Nibble( (LCD_Str[i++] << 4) & 0xF0 );
  4102  0D53  0878               	movf	LCD_Print@i,w
  4103  0D54  0777               	addwf	LCD_Print@LCD_Str,w
  4104  0D55  0084               	movwf	4
  4105  0D56  120A  158A  2000  120A  158A  	fcall	stringdir
  4106  0D5B  00F6               	movwf	??_LCD_Print
  4107  0D5C  3003               	movlw	3
  4108  0D5D                     u1515:
  4109  0D5D  1003               	clrc
  4110  0D5E  0DF6               	rlf	??_LCD_Print,f
  4111  0D5F  3EFF               	addlw	-1
  4112  0D60  1D03               	skipz
  4113  0D61  2D5D               	goto	u1515
  4114  0D62  1003               	clrc
  4115  0D63  0D76               	rlf	??_LCD_Print,w
  4116  0D64  39F0               	andlw	240
  4117  0D65  120A  158A  242E  120A  158A  	fcall	_LCD_Write_Nibble
  4118  0D6A                     l1758:
  4119  0D6A  3001               	movlw	1
  4120  0D6B  00F6               	movwf	??_LCD_Print
  4121  0D6C  0876               	movf	??_LCD_Print,w
  4122  0D6D  07F8               	addwf	LCD_Print@i,f
  4123  0D6E                     l1760:
  4124                           
  4125                           ;I2C.c: 171:   while(LCD_Str[i] != '\0')
  4126  0D6E  0878               	movf	LCD_Print@i,w
  4127  0D6F  0777               	addwf	LCD_Print@LCD_Str,w
  4128  0D70  0084               	movwf	4
  4129  0D71  120A  158A  2000  120A  158A  	fcall	stringdir
  4130  0D76  3A00               	xorlw	0
  4131  0D77  1D03               	skipz
  4132  0D78  2D7A               	goto	u1521
  4133  0D79  2D7B               	goto	u1520
  4134  0D7A                     u1521:
  4135  0D7A  2D45               	goto	l1756
  4136  0D7B                     u1520:
  4137  0D7B                     l178:
  4138  0D7B  0008               	return
  4139  0D7C                     __end_of_LCD_Print:
  4140                           
  4141                           	psect	text8
  4142  0D09                     __ptext8:	
  4143 ;; *************** function _LCD_Goto *****************
  4144 ;; Defined at:
  4145 ;;		line 141 in file "I2C.c"
  4146 ;; Parameters:    Size  Location     Type
  4147 ;;  col             1    wreg     unsigned char 
  4148 ;;  row             1    9[COMMON] unsigned char 
  4149 ;; Auto vars:     Size  Location     Type
  4150 ;;  col             1    2[BANK0 ] unsigned char 
  4151 ;; Return value:  Size  Location     Type
  4152 ;;                  1    wreg      void 
  4153 ;; Registers used:
  4154 ;;		wreg, fsr0l, fsr0h, status,2, status,0, pclath, cstack
  4155 ;; Tracked objects:
  4156 ;;		On entry : 0/0
  4157 ;;		On exit  : 0/0
  4158 ;;		Unchanged: 0/0
  4159 ;; Data sizes:     COMMON   BANK0   BANK1   BANK3   BANK2
  4160 ;;      Params:         1       0       0       0       0
  4161 ;;      Locals:         0       1       0       0       0
  4162 ;;      Temps:          0       2       0       0       0
  4163 ;;      Totals:         1       3       0       0       0
  4164 ;;Total ram usage:        4 bytes
  4165 ;; Hardware stack levels used:    1
  4166 ;; Hardware stack levels required when called:    6
  4167 ;; This function calls:
  4168 ;;		_LCD_Cmd
  4169 ;; This function is called by:
  4170 ;;		_main
  4171 ;; This function uses a non-reentrant model
  4172 ;;
  4173                           
  4174                           
  4175                           ;psect for function _LCD_Goto
  4176  0D09                     _LCD_Goto:
  4177                           
  4178                           ;incstack = 0
  4179                           ; Regs used in _LCD_Goto: [wreg-fsr0h+status,2+status,0+pclath+cstack]
  4180                           ;LCD_Goto@col stored from wreg
  4181  0D09  1283               	bcf	3,5	;RP0=0, select bank0
  4182  0D0A  1303               	bcf	3,6	;RP1=0, select bank0
  4183  0D0B  00A2               	movwf	LCD_Goto@col
  4184  0D0C                     l2418:
  4185                           
  4186                           ;I2C.c: 141: void LCD_Goto(uint8_t col, uint8_t row);I2C.c: 142: {;I2C.c: 143:   switch(
      +                          row)
  4187  0D0C  2D2D               	goto	l2428
  4188  0D0D                     l2420:
  4189                           
  4190                           ;I2C.c: 146:       LCD_Cmd(0xC0 + col - 1);
  4191  0D0D  0822               	movf	LCD_Goto@col,w
  4192  0D0E  3EBF               	addlw	191
  4193  0D0F  120A  158A  24A3  120A  158A  	fcall	_LCD_Cmd
  4194                           
  4195                           ;I2C.c: 147:       break;
  4196  0D14  2D40               	goto	l169
  4197  0D15                     l2422:
  4198                           
  4199                           ;I2C.c: 149:       LCD_Cmd(0x94 + col - 1);
  4200  0D15  0822               	movf	LCD_Goto@col,w
  4201  0D16  3E93               	addlw	147
  4202  0D17  120A  158A  24A3  120A  158A  	fcall	_LCD_Cmd
  4203                           
  4204                           ;I2C.c: 150:       break;
  4205  0D1C  2D40               	goto	l169
  4206  0D1D                     l2424:
  4207                           
  4208                           ;I2C.c: 152:       LCD_Cmd(0xD4 + col - 1);
  4209  0D1D  0822               	movf	LCD_Goto@col,w
  4210  0D1E  3ED3               	addlw	211
  4211  0D1F  120A  158A  24A3  120A  158A  	fcall	_LCD_Cmd
  4212                           
  4213                           ;I2C.c: 153:     break;
  4214  0D24  2D40               	goto	l169
  4215  0D25                     l2426:
  4216                           
  4217                           ;I2C.c: 155:       LCD_Cmd(0x80 + col - 1);
  4218  0D25  0822               	movf	LCD_Goto@col,w
  4219  0D26  3E7F               	addlw	127
  4220  0D27  120A  158A  24A3  120A  158A  	fcall	_LCD_Cmd
  4221                           
  4222                           ;I2C.c: 156:   }
  4223  0D2C  2D40               	goto	l169
  4224  0D2D                     l2428:
  4225  0D2D  0879               	movf	LCD_Goto@row,w
  4226  0D2E  00A0               	movwf	??_LCD_Goto
  4227  0D2F  01A1               	clrf	??_LCD_Goto+1
  4228                           
  4229                           ; Switch on 2 bytes has been partitioned into a top level switch of size 1, and 1 sub-sw
      +                          itches
  4230                           ; Switch size 1, requested type "simple"
  4231                           ; Number of cases is 1, Range of values is 0 to 0
  4232                           ; switch strategies available:
  4233                           ; Name         Instructions Cycles
  4234                           ; simple_byte            4     3 (average)
  4235                           ; direct_byte           11     8 (fixed)
  4236                           ; jumptable            260     6 (fixed)
  4237                           ;	Chosen strategy is simple_byte
  4238  0D30  0821               	movf	??_LCD_Goto+1,w
  4239  0D31  3A00               	xorlw	0	; case 0
  4240  0D32  1903               	skipnz
  4241  0D33  2D35               	goto	l2688
  4242  0D34  2D25               	goto	l2426
  4243  0D35                     l2688:
  4244                           
  4245                           ; Switch size 1, requested type "simple"
  4246                           ; Number of cases is 3, Range of values is 2 to 4
  4247                           ; switch strategies available:
  4248                           ; Name         Instructions Cycles
  4249                           ; simple_byte           10     6 (average)
  4250                           ; direct_byte           20    11 (fixed)
  4251                           ; jumptable            263     9 (fixed)
  4252                           ;	Chosen strategy is simple_byte
  4253  0D35  0820               	movf	??_LCD_Goto,w
  4254  0D36  3A02               	xorlw	2	; case 2
  4255  0D37  1903               	skipnz
  4256  0D38  2D0D               	goto	l2420
  4257  0D39  3A01               	xorlw	1	; case 3
  4258  0D3A  1903               	skipnz
  4259  0D3B  2D15               	goto	l2422
  4260  0D3C  3A07               	xorlw	7	; case 4
  4261  0D3D  1903               	skipnz
  4262  0D3E  2D1D               	goto	l2424
  4263  0D3F  2D25               	goto	l2426
  4264  0D40                     l169:
  4265  0D40  0008               	return
  4266  0D41                     __end_of_LCD_Goto:
  4267                           
  4268                           	psect	text9
  4269  06D0                     __ptext9:	
  4270 ;; *************** function _LCD_Begin *****************
  4271 ;; Defined at:
  4272 ;;		line 178 in file "I2C.c"
  4273 ;; Parameters:    Size  Location     Type
  4274 ;;  _i2c_addr       1    wreg     unsigned char 
  4275 ;; Auto vars:     Size  Location     Type
  4276 ;;  _i2c_addr       1    9[COMMON] unsigned char 
  4277 ;; Return value:  Size  Location     Type
  4278 ;;                  1    wreg      void 
  4279 ;; Registers used:
  4280 ;;		wreg, status,2, status,0, pclath, cstack
  4281 ;; Tracked objects:
  4282 ;;		On entry : 0/0
  4283 ;;		On exit  : 0/0
  4284 ;;		Unchanged: 0/0
  4285 ;; Data sizes:     COMMON   BANK0   BANK1   BANK3   BANK2
  4286 ;;      Params:         0       0       0       0       0
  4287 ;;      Locals:         1       0       0       0       0
  4288 ;;      Temps:          0       2       0       0       0
  4289 ;;      Totals:         1       2       0       0       0
  4290 ;;Total ram usage:        3 bytes
  4291 ;; Hardware stack levels used:    1
  4292 ;; Hardware stack levels required when called:    6
  4293 ;; This function calls:
  4294 ;;		_Expander_Write
  4295 ;;		_LCD_Cmd
  4296 ;; This function is called by:
  4297 ;;		_main
  4298 ;; This function uses a non-reentrant model
  4299 ;;
  4300                           
  4301                           
  4302                           ;psect for function _LCD_Begin
  4303  06D0                     _LCD_Begin:
  4304                           
  4305                           ;incstack = 0
  4306                           ; Regs used in _LCD_Begin: [wreg+status,2+status,0+pclath+cstack]
  4307                           ;LCD_Begin@_i2c_addr stored from wreg
  4308  06D0  00F9               	movwf	LCD_Begin@_i2c_addr
  4309  06D1                     l2392:
  4310                           
  4311                           ;I2C.c: 178: void LCD_Begin(uint8_t _i2c_addr);I2C.c: 179: {;I2C.c: 180:   i2c_addr = _i
      +                          2c_addr;
  4312  06D1  0879               	movf	LCD_Begin@_i2c_addr,w
  4313  06D2  1283               	bcf	3,5	;RP0=0, select bank0
  4314  06D3  1303               	bcf	3,6	;RP1=0, select bank0
  4315  06D4  00A0               	movwf	??_LCD_Begin
  4316  06D5  0820               	movf	??_LCD_Begin,w
  4317  06D6  00EF               	movwf	_i2c_addr
  4318  06D7                     l2394:
  4319                           
  4320                           ;I2C.c: 181:   Expander_Write(0);
  4321  06D7  3000               	movlw	0
  4322  06D8  120A  118A  27E5  120A  118A  	fcall	_Expander_Write
  4323  06DD                     l2396:
  4324                           
  4325                           ;I2C.c: 183:   _delay((unsigned long)((40)*(8000000/4000.0)));
  4326  06DD  3068               	movlw	104
  4327  06DE  1283               	bcf	3,5	;RP0=0, select bank0
  4328  06DF  1303               	bcf	3,6	;RP1=0, select bank0
  4329  06E0  00A1               	movwf	??_LCD_Begin+1
  4330  06E1  30E3               	movlw	227
  4331  06E2  00A0               	movwf	??_LCD_Begin
  4332  06E3                     u3237:
  4333  06E3  0BA0               	decfsz	??_LCD_Begin,f
  4334  06E4  2EE3               	goto	u3237
  4335  06E5  0BA1               	decfsz	??_LCD_Begin+1,f
  4336  06E6  2EE3               	goto	u3237
  4337  06E7  2EE8               	nop2
  4338                           
  4339                           ;I2C.c: 184:   LCD_Cmd(3);
  4340  06E8  3003               	movlw	3
  4341  06E9  120A  158A  24A3  120A  118A  	fcall	_LCD_Cmd
  4342  06EE                     l2398:
  4343                           
  4344                           ;I2C.c: 185:   _delay((unsigned long)((5)*(8000000/4000.0)));
  4345  06EE  300D               	movlw	13
  4346  06EF  1283               	bcf	3,5	;RP0=0, select bank0
  4347  06F0  1303               	bcf	3,6	;RP1=0, select bank0
  4348  06F1  00A1               	movwf	??_LCD_Begin+1
  4349  06F2  30FB               	movlw	251
  4350  06F3  00A0               	movwf	??_LCD_Begin
  4351  06F4                     u3247:
  4352  06F4  0BA0               	decfsz	??_LCD_Begin,f
  4353  06F5  2EF4               	goto	u3247
  4354  06F6  0BA1               	decfsz	??_LCD_Begin+1,f
  4355  06F7  2EF4               	goto	u3247
  4356  06F8                     l2400:
  4357                           
  4358                           ;I2C.c: 186:   LCD_Cmd(3);
  4359  06F8  3003               	movlw	3
  4360  06F9  120A  158A  24A3  120A  118A  	fcall	_LCD_Cmd
  4361                           
  4362                           ;I2C.c: 187:   _delay((unsigned long)((5)*(8000000/4000.0)));
  4363  06FE  300D               	movlw	13
  4364  06FF  1283               	bcf	3,5	;RP0=0, select bank0
  4365  0700  1303               	bcf	3,6	;RP1=0, select bank0
  4366  0701  00A1               	movwf	??_LCD_Begin+1
  4367  0702  30FB               	movlw	251
  4368  0703  00A0               	movwf	??_LCD_Begin
  4369  0704                     u3257:
  4370  0704  0BA0               	decfsz	??_LCD_Begin,f
  4371  0705  2F04               	goto	u3257
  4372  0706  0BA1               	decfsz	??_LCD_Begin+1,f
  4373  0707  2F04               	goto	u3257
  4374  0708                     l2402:
  4375                           
  4376                           ;I2C.c: 188:   LCD_Cmd(3);
  4377  0708  3003               	movlw	3
  4378  0709  120A  158A  24A3  120A  118A  	fcall	_LCD_Cmd
  4379  070E                     l2404:
  4380                           
  4381                           ;I2C.c: 189:   _delay((unsigned long)((5)*(8000000/4000.0)));
  4382  070E  300D               	movlw	13
  4383  070F  1283               	bcf	3,5	;RP0=0, select bank0
  4384  0710  1303               	bcf	3,6	;RP1=0, select bank0
  4385  0711  00A1               	movwf	??_LCD_Begin+1
  4386  0712  30FB               	movlw	251
  4387  0713  00A0               	movwf	??_LCD_Begin
  4388  0714                     u3267:
  4389  0714  0BA0               	decfsz	??_LCD_Begin,f
  4390  0715  2F14               	goto	u3267
  4391  0716  0BA1               	decfsz	??_LCD_Begin+1,f
  4392  0717  2F14               	goto	u3267
  4393                           
  4394                           ;I2C.c: 190:   LCD_Cmd(0x02);
  4395  0718  3002               	movlw	2
  4396  0719  120A  158A  24A3  120A  118A  	fcall	_LCD_Cmd
  4397  071E                     l2406:
  4398                           
  4399                           ;I2C.c: 191:   _delay((unsigned long)((5)*(8000000/4000.0)));
  4400  071E  300D               	movlw	13
  4401  071F  1283               	bcf	3,5	;RP0=0, select bank0
  4402  0720  1303               	bcf	3,6	;RP1=0, select bank0
  4403  0721  00A1               	movwf	??_LCD_Begin+1
  4404  0722  30FB               	movlw	251
  4405  0723  00A0               	movwf	??_LCD_Begin
  4406  0724                     u3277:
  4407  0724  0BA0               	decfsz	??_LCD_Begin,f
  4408  0725  2F24               	goto	u3277
  4409  0726  0BA1               	decfsz	??_LCD_Begin+1,f
  4410  0727  2F24               	goto	u3277
  4411  0728                     l2408:
  4412                           
  4413                           ;I2C.c: 192:   LCD_Cmd(0x20 | (2 << 2));
  4414  0728  3028               	movlw	40
  4415  0729  120A  158A  24A3  120A  118A  	fcall	_LCD_Cmd
  4416                           
  4417                           ;I2C.c: 193:   _delay((unsigned long)((50)*(8000000/4000.0)));
  4418  072E  3082               	movlw	130
  4419  072F  1283               	bcf	3,5	;RP0=0, select bank0
  4420  0730  1303               	bcf	3,6	;RP1=0, select bank0
  4421  0731  00A1               	movwf	??_LCD_Begin+1
  4422  0732  30DD               	movlw	221
  4423  0733  00A0               	movwf	??_LCD_Begin
  4424  0734                     u3287:
  4425  0734  0BA0               	decfsz	??_LCD_Begin,f
  4426  0735  2F34               	goto	u3287
  4427  0736  0BA1               	decfsz	??_LCD_Begin+1,f
  4428  0737  2F34               	goto	u3287
  4429  0738                     l2410:
  4430                           
  4431                           ;I2C.c: 194:   LCD_Cmd(0x0C);
  4432  0738  300C               	movlw	12
  4433  0739  120A  158A  24A3  120A  118A  	fcall	_LCD_Cmd
  4434  073E                     l2412:
  4435                           
  4436                           ;I2C.c: 195:   _delay((unsigned long)((50)*(8000000/4000.0)));
  4437  073E  3082               	movlw	130
  4438  073F  1283               	bcf	3,5	;RP0=0, select bank0
  4439  0740  1303               	bcf	3,6	;RP1=0, select bank0
  4440  0741  00A1               	movwf	??_LCD_Begin+1
  4441  0742  30DD               	movlw	221
  4442  0743  00A0               	movwf	??_LCD_Begin
  4443  0744                     u3297:
  4444  0744  0BA0               	decfsz	??_LCD_Begin,f
  4445  0745  2F44               	goto	u3297
  4446  0746  0BA1               	decfsz	??_LCD_Begin+1,f
  4447  0747  2F44               	goto	u3297
  4448                           
  4449                           ;I2C.c: 196:   LCD_Cmd(0x01);
  4450  0748  3001               	movlw	1
  4451  0749  120A  158A  24A3  120A  118A  	fcall	_LCD_Cmd
  4452  074E                     l2414:
  4453                           
  4454                           ;I2C.c: 197:   _delay((unsigned long)((50)*(8000000/4000.0)));
  4455  074E  3082               	movlw	130
  4456  074F  1283               	bcf	3,5	;RP0=0, select bank0
  4457  0750  1303               	bcf	3,6	;RP1=0, select bank0
  4458  0751  00A1               	movwf	??_LCD_Begin+1
  4459  0752  30DD               	movlw	221
  4460  0753  00A0               	movwf	??_LCD_Begin
  4461  0754                     u3307:
  4462  0754  0BA0               	decfsz	??_LCD_Begin,f
  4463  0755  2F54               	goto	u3307
  4464  0756  0BA1               	decfsz	??_LCD_Begin+1,f
  4465  0757  2F54               	goto	u3307
  4466  0758                     l2416:
  4467                           
  4468                           ;I2C.c: 198:   LCD_Cmd(0x04 | 0x02);
  4469  0758  3006               	movlw	6
  4470  0759  120A  158A  24A3  120A  118A  	fcall	_LCD_Cmd
  4471                           
  4472                           ;I2C.c: 199:   _delay((unsigned long)((50)*(8000000/4000.0)));
  4473  075E  3082               	movlw	130
  4474  075F  1283               	bcf	3,5	;RP0=0, select bank0
  4475  0760  1303               	bcf	3,6	;RP1=0, select bank0
  4476  0761  00A1               	movwf	??_LCD_Begin+1
  4477  0762  30DD               	movlw	221
  4478  0763  00A0               	movwf	??_LCD_Begin
  4479  0764                     u3317:
  4480  0764  0BA0               	decfsz	??_LCD_Begin,f
  4481  0765  2F64               	goto	u3317
  4482  0766  0BA1               	decfsz	??_LCD_Begin+1,f
  4483  0767  2F64               	goto	u3317
  4484  0768                     l181:
  4485  0768  0008               	return
  4486  0769                     __end_of_LCD_Begin:
  4487                           
  4488                           	psect	text10
  4489  0CA3                     __ptext10:	
  4490 ;; *************** function _LCD_Cmd *****************
  4491 ;; Defined at:
  4492 ;;		line 132 in file "I2C.c"
  4493 ;; Parameters:    Size  Location     Type
  4494 ;;  Command         1    wreg     unsigned char 
  4495 ;; Auto vars:     Size  Location     Type
  4496 ;;  Command         1    8[COMMON] unsigned char 
  4497 ;; Return value:  Size  Location     Type
  4498 ;;                  1    wreg      void 
  4499 ;; Registers used:
  4500 ;;		wreg, status,2, status,0, pclath, cstack
  4501 ;; Tracked objects:
  4502 ;;		On entry : 0/0
  4503 ;;		On exit  : 0/0
  4504 ;;		Unchanged: 0/0
  4505 ;; Data sizes:     COMMON   BANK0   BANK1   BANK3   BANK2
  4506 ;;      Params:         0       0       0       0       0
  4507 ;;      Locals:         1       0       0       0       0
  4508 ;;      Temps:          2       0       0       0       0
  4509 ;;      Totals:         3       0       0       0       0
  4510 ;;Total ram usage:        3 bytes
  4511 ;; Hardware stack levels used:    1
  4512 ;; Hardware stack levels required when called:    5
  4513 ;; This function calls:
  4514 ;;		_LCD_Write_Nibble
  4515 ;; This function is called by:
  4516 ;;		_LCD_Goto
  4517 ;;		_LCD_Begin
  4518 ;; This function uses a non-reentrant model
  4519 ;;
  4520                           
  4521                           
  4522                           ;psect for function _LCD_Cmd
  4523  0CA3                     _LCD_Cmd:
  4524                           
  4525                           ;incstack = 0
  4526                           ; Regs used in _LCD_Cmd: [wreg+status,2+status,0+pclath+cstack]
  4527                           ;LCD_Cmd@Command stored from wreg
  4528  0CA3  00F8               	movwf	LCD_Cmd@Command
  4529  0CA4                     l1634:
  4530                           
  4531                           ;I2C.c: 132: void LCD_Cmd(uint8_t Command);I2C.c: 133: {;I2C.c: 134:   RS = 0;
  4532  0CA4  107A               	bcf	_RS/(0+8),_RS& (0+7)
  4533  0CA5                     l1636:
  4534                           
  4535                           ;I2C.c: 135:   LCD_Write_Nibble(Command & 0xF0);
  4536  0CA5  0878               	movf	LCD_Cmd@Command,w
  4537  0CA6  39F0               	andlw	240
  4538  0CA7  120A  158A  242E  120A  158A  	fcall	_LCD_Write_Nibble
  4539                           
  4540                           ;I2C.c: 136:   LCD_Write_Nibble((Command << 4) & 0xF0);
  4541  0CAC  0878               	movf	LCD_Cmd@Command,w
  4542  0CAD  00F6               	movwf	??_LCD_Cmd
  4543  0CAE  3003               	movlw	3
  4544  0CAF                     u1375:
  4545  0CAF  1003               	clrc
  4546  0CB0  0DF6               	rlf	??_LCD_Cmd,f
  4547  0CB1  3EFF               	addlw	-1
  4548  0CB2  1D03               	skipz
  4549  0CB3  2CAF               	goto	u1375
  4550  0CB4  1003               	clrc
  4551  0CB5  0D76               	rlf	??_LCD_Cmd,w
  4552  0CB6  39F0               	andlw	240
  4553  0CB7  120A  158A  242E  120A  158A  	fcall	_LCD_Write_Nibble
  4554  0CBC                     l1638:
  4555                           
  4556                           ;I2C.c: 137:   if((Command == 0x01) || (Command == 0x02))
  4557  0CBC  0378               	decf	LCD_Cmd@Command,w
  4558  0CBD  1903               	btfsc	3,2
  4559  0CBE  2CC0               	goto	u1381
  4560  0CBF  2CC1               	goto	u1380
  4561  0CC0                     u1381:
  4562  0CC0  2CC7               	goto	l1642
  4563  0CC1                     u1380:
  4564  0CC1                     l1640:
  4565  0CC1  3002               	movlw	2
  4566  0CC2  0678               	xorwf	LCD_Cmd@Command,w
  4567  0CC3  1D03               	btfss	3,2
  4568  0CC4  2CC6               	goto	u1391
  4569  0CC5  2CC7               	goto	u1390
  4570  0CC6                     u1391:
  4571  0CC6  2CD0               	goto	l160
  4572  0CC7                     u1390:
  4573  0CC7                     l1642:
  4574                           
  4575                           ;I2C.c: 138:     _delay((unsigned long)((2)*(8000000/4000.0)));
  4576  0CC7  3006               	movlw	6
  4577  0CC8  00F7               	movwf	??_LCD_Cmd+1
  4578  0CC9  3030               	movlw	48
  4579  0CCA  00F6               	movwf	??_LCD_Cmd
  4580  0CCB                     u3327:
  4581  0CCB  0BF6               	decfsz	??_LCD_Cmd,f
  4582  0CCC  2CCB               	goto	u3327
  4583  0CCD  0BF7               	decfsz	??_LCD_Cmd+1,f
  4584  0CCE  2CCB               	goto	u3327
  4585  0CCF  0000               	nop
  4586  0CD0                     l160:
  4587  0CD0  0008               	return
  4588  0CD1                     __end_of_LCD_Cmd:
  4589                           
  4590                           	psect	text11
  4591  0C2E                     __ptext11:	
  4592 ;; *************** function _LCD_Write_Nibble *****************
  4593 ;; Defined at:
  4594 ;;		line 121 in file "I2C.c"
  4595 ;; Parameters:    Size  Location     Type
  4596 ;;  n               1    wreg     unsigned char 
  4597 ;; Auto vars:     Size  Location     Type
  4598 ;;  n               1    5[COMMON] unsigned char 
  4599 ;; Return value:  Size  Location     Type
  4600 ;;                  1    wreg      void 
  4601 ;; Registers used:
  4602 ;;		wreg, status,2, status,0, pclath, cstack
  4603 ;; Tracked objects:
  4604 ;;		On entry : 0/0
  4605 ;;		On exit  : 0/0
  4606 ;;		Unchanged: 0/0
  4607 ;; Data sizes:     COMMON   BANK0   BANK1   BANK3   BANK2
  4608 ;;      Params:         0       0       0       0       0
  4609 ;;      Locals:         1       0       0       0       0
  4610 ;;      Temps:          1       0       0       0       0
  4611 ;;      Totals:         2       0       0       0       0
  4612 ;;Total ram usage:        2 bytes
  4613 ;; Hardware stack levels used:    1
  4614 ;; Hardware stack levels required when called:    4
  4615 ;; This function calls:
  4616 ;;		_Expander_Write
  4617 ;; This function is called by:
  4618 ;;		_LCD_Cmd
  4619 ;;		_LCD_Print
  4620 ;;		_LCD_PutC
  4621 ;; This function uses a non-reentrant model
  4622 ;;
  4623                           
  4624                           
  4625                           ;psect for function _LCD_Write_Nibble
  4626  0C2E                     _LCD_Write_Nibble:
  4627                           
  4628                           ;incstack = 0
  4629                           ; Regs used in _LCD_Write_Nibble: [wreg+status,2+status,0+pclath+cstack]
  4630                           ;LCD_Write_Nibble@n stored from wreg
  4631  0C2E  00F5               	movwf	LCD_Write_Nibble@n
  4632  0C2F                     l1620:
  4633                           
  4634                           ;I2C.c: 121: void LCD_Write_Nibble(uint8_t n);I2C.c: 122: {;I2C.c: 123:   n |= RS;
  4635  0C2F  3000               	movlw	0
  4636  0C30  187A               	btfsc	_RS/(0+8),_RS& (0+7)
  4637  0C31  3001               	movlw	1
  4638  0C32  00F4               	movwf	??_LCD_Write_Nibble
  4639  0C33  0874               	movf	??_LCD_Write_Nibble,w
  4640  0C34  04F5               	iorwf	LCD_Write_Nibble@n,f
  4641  0C35                     l1622:
  4642                           
  4643                           ;I2C.c: 124:   Expander_Write(n & 0xFB);
  4644  0C35  0875               	movf	LCD_Write_Nibble@n,w
  4645  0C36  39FB               	andlw	251
  4646  0C37  120A  118A  27E5  120A  158A  	fcall	_Expander_Write
  4647  0C3C                     l1624:
  4648                           
  4649                           ;I2C.c: 125:   _delay((unsigned long)((1)*(8000000/4000000.0)));
  4650  0C3C  2C3D               	nop2	;2 cycle nop
  4651  0C3D                     l1626:
  4652                           
  4653                           ;I2C.c: 126:   Expander_Write(n | 0x04);
  4654  0C3D  0875               	movf	LCD_Write_Nibble@n,w
  4655  0C3E  3804               	iorlw	4
  4656  0C3F  120A  118A  27E5  120A  158A  	fcall	_Expander_Write
  4657  0C44                     l1628:
  4658                           
  4659                           ;I2C.c: 127:   _delay((unsigned long)((1)*(8000000/4000000.0)));
  4660  0C44  2C45               	nop2	;2 cycle nop
  4661  0C45                     l1630:
  4662                           
  4663                           ;I2C.c: 128:   Expander_Write(n & 0xFB);
  4664  0C45  0875               	movf	LCD_Write_Nibble@n,w
  4665  0C46  39FB               	andlw	251
  4666  0C47  120A  118A  27E5  120A  158A  	fcall	_Expander_Write
  4667  0C4C                     l1632:
  4668                           
  4669                           ;I2C.c: 129:   _delay((unsigned long)((100)*(8000000/4000000.0)));
  4670  0C4C  3042               	movlw	66
  4671  0C4D  00F4               	movwf	??_LCD_Write_Nibble
  4672  0C4E                     u3337:
  4673  0C4E  0BF4               	decfsz	??_LCD_Write_Nibble,f
  4674  0C4F  2C4E               	goto	u3337
  4675  0C50  0000               	nop
  4676  0C51                     l154:
  4677  0C51  0008               	return
  4678  0C52                     __end_of_LCD_Write_Nibble:
  4679                           
  4680                           	psect	text12
  4681  07E5                     __ptext12:	
  4682 ;; *************** function _Expander_Write *****************
  4683 ;; Defined at:
  4684 ;;		line 113 in file "I2C.c"
  4685 ;; Parameters:    Size  Location     Type
  4686 ;;  value           1    wreg     unsigned char 
  4687 ;; Auto vars:     Size  Location     Type
  4688 ;;  value           1    3[COMMON] unsigned char 
  4689 ;; Return value:  Size  Location     Type
  4690 ;;                  1    wreg      void 
  4691 ;; Registers used:
  4692 ;;		wreg, status,2, status,0, pclath, cstack
  4693 ;; Tracked objects:
  4694 ;;		On entry : 0/0
  4695 ;;		On exit  : 0/0
  4696 ;;		Unchanged: 0/0
  4697 ;; Data sizes:     COMMON   BANK0   BANK1   BANK3   BANK2
  4698 ;;      Params:         0       0       0       0       0
  4699 ;;      Locals:         1       0       0       0       0
  4700 ;;      Temps:          0       0       0       0       0
  4701 ;;      Totals:         1       0       0       0       0
  4702 ;;Total ram usage:        1 bytes
  4703 ;; Hardware stack levels used:    1
  4704 ;; Hardware stack levels required when called:    3
  4705 ;; This function calls:
  4706 ;;		_I2C_Master_Start
  4707 ;;		_I2C_Master_Stop
  4708 ;;		_I2C_Master_Write
  4709 ;; This function is called by:
  4710 ;;		_LCD_Write_Nibble
  4711 ;;		_LCD_Begin
  4712 ;;		_Backlight
  4713 ;;		_noBacklight
  4714 ;; This function uses a non-reentrant model
  4715 ;;
  4716                           
  4717                           
  4718                           ;psect for function _Expander_Write
  4719  07E5                     _Expander_Write:
  4720                           
  4721                           ;incstack = 0
  4722                           ; Regs used in _Expander_Write: [wreg+status,2+status,0+pclath+cstack]
  4723                           ;Expander_Write@value stored from wreg
  4724  07E5  00F3               	movwf	Expander_Write@value
  4725  07E6                     l1618:
  4726                           
  4727                           ;I2C.c: 113: void Expander_Write(uint8_t value);I2C.c: 114: {;I2C.c: 115:   I2C_Master_S
      +                          tart();
  4728  07E6  120A  158A  23EF  120A  118A  	fcall	_I2C_Master_Start
  4729                           
  4730                           ;I2C.c: 116:   I2C_Master_Write(i2c_addr);
  4731  07EB  1283               	bcf	3,5	;RP0=0, select bank0
  4732  07EC  1303               	bcf	3,6	;RP1=0, select bank0
  4733  07ED  086F               	movf	_i2c_addr,w
  4734  07EE  120A  158A  2401  120A  118A  	fcall	_I2C_Master_Write
  4735                           
  4736                           ;I2C.c: 117:   I2C_Master_Write(value | backlight_val);
  4737  07F3  0873               	movf	Expander_Write@value,w
  4738  07F4  047B               	iorwf	_backlight_val,w
  4739  07F5  120A  158A  2401  120A  118A  	fcall	_I2C_Master_Write
  4740                           
  4741                           ;I2C.c: 118:   I2C_Master_Stop();
  4742  07FA  120A  158A  23F8  120A  118A  	fcall	_I2C_Master_Stop
  4743  07FF                     l151:
  4744  07FF  0008               	return
  4745  0800                     __end_of_Expander_Write:
  4746                           
  4747                           	psect	text13
  4748  0C01                     __ptext13:	
  4749 ;; *************** function _I2C_Master_Write *****************
  4750 ;; Defined at:
  4751 ;;		line 69 in file "I2C.c"
  4752 ;; Parameters:    Size  Location     Type
  4753 ;;  d               1    wreg     unsigned char 
  4754 ;; Auto vars:     Size  Location     Type
  4755 ;;  d               1    2[COMMON] unsigned char 
  4756 ;; Return value:  Size  Location     Type
  4757 ;;                  1    wreg      void 
  4758 ;; Registers used:
  4759 ;;		wreg, status,2, status,0, pclath, cstack
  4760 ;; Tracked objects:
  4761 ;;		On entry : 0/0
  4762 ;;		On exit  : 0/0
  4763 ;;		Unchanged: 0/0
  4764 ;; Data sizes:     COMMON   BANK0   BANK1   BANK3   BANK2
  4765 ;;      Params:         0       0       0       0       0
  4766 ;;      Locals:         1       0       0       0       0
  4767 ;;      Temps:          0       0       0       0       0
  4768 ;;      Totals:         1       0       0       0       0
  4769 ;;Total ram usage:        1 bytes
  4770 ;; Hardware stack levels used:    1
  4771 ;; Hardware stack levels required when called:    2
  4772 ;; This function calls:
  4773 ;;		_I2C_Master_Wait
  4774 ;; This function is called by:
  4775 ;;		_main
  4776 ;;		_Expander_Write
  4777 ;;		_Init_AHT10
  4778 ;; This function uses a non-reentrant model
  4779 ;;
  4780                           
  4781                           
  4782                           ;psect for function _I2C_Master_Write
  4783  0C01                     _I2C_Master_Write:
  4784                           
  4785                           ;incstack = 0
  4786                           ; Regs used in _I2C_Master_Write: [wreg+status,2+status,0+pclath+cstack]
  4787                           ;I2C_Master_Write@d stored from wreg
  4788  0C01  00F2               	movwf	I2C_Master_Write@d
  4789  0C02                     l1610:
  4790                           
  4791                           ;I2C.c: 69: void I2C_Master_Write(unsigned char d);I2C.c: 70: {;I2C.c: 71:     I2C_Maste
      +                          r_Wait();
  4792  0C02  120A  158A  240C  120A  158A  	fcall	_I2C_Master_Wait
  4793  0C07                     l1612:
  4794                           
  4795                           ;I2C.c: 72:     SSPBUF = d;
  4796  0C07  0872               	movf	I2C_Master_Write@d,w
  4797  0C08  1283               	bcf	3,5	;RP0=0, select bank0
  4798  0C09  1303               	bcf	3,6	;RP1=0, select bank0
  4799  0C0A  0093               	movwf	19	;volatile
  4800  0C0B                     l140:
  4801  0C0B  0008               	return
  4802  0C0C                     __end_of_I2C_Master_Write:
  4803                           
  4804                           	psect	text14
  4805  0BF8                     __ptext14:	
  4806 ;; *************** function _I2C_Master_Stop *****************
  4807 ;; Defined at:
  4808 ;;		line 59 in file "I2C.c"
  4809 ;; Parameters:    Size  Location     Type
  4810 ;;		None
  4811 ;; Auto vars:     Size  Location     Type
  4812 ;;		None
  4813 ;; Return value:  Size  Location     Type
  4814 ;;                  1    wreg      void 
  4815 ;; Registers used:
  4816 ;;		wreg, status,2, status,0, pclath, cstack
  4817 ;; Tracked objects:
  4818 ;;		On entry : 0/0
  4819 ;;		On exit  : 0/0
  4820 ;;		Unchanged: 0/0
  4821 ;; Data sizes:     COMMON   BANK0   BANK1   BANK3   BANK2
  4822 ;;      Params:         0       0       0       0       0
  4823 ;;      Locals:         0       0       0       0       0
  4824 ;;      Temps:          0       0       0       0       0
  4825 ;;      Totals:         0       0       0       0       0
  4826 ;;Total ram usage:        0 bytes
  4827 ;; Hardware stack levels used:    1
  4828 ;; Hardware stack levels required when called:    2
  4829 ;; This function calls:
  4830 ;;		_I2C_Master_Wait
  4831 ;; This function is called by:
  4832 ;;		_main
  4833 ;;		_Expander_Write
  4834 ;;		_Init_AHT10
  4835 ;; This function uses a non-reentrant model
  4836 ;;
  4837                           
  4838                           
  4839                           ;psect for function _I2C_Master_Stop
  4840  0BF8                     _I2C_Master_Stop:
  4841  0BF8                     l1614:	
  4842                           ;incstack = 0
  4843                           ; Regs used in _I2C_Master_Stop: [wreg+status,2+status,0+pclath+cstack]
  4844                           
  4845                           
  4846                           ;I2C.c: 61:     I2C_Master_Wait();
  4847  0BF8  120A  158A  240C  120A  158A  	fcall	_I2C_Master_Wait
  4848  0BFD                     l1616:
  4849                           
  4850                           ;I2C.c: 62:     SSPCON2bits.PEN = 1;
  4851  0BFD  1683               	bsf	3,5	;RP0=1, select bank1
  4852  0BFE  1303               	bcf	3,6	;RP1=0, select bank1
  4853  0BFF  1511               	bsf	17,2	;volatile
  4854  0C00                     l137:
  4855  0C00  0008               	return
  4856  0C01                     __end_of_I2C_Master_Stop:
  4857                           
  4858                           	psect	text15
  4859  0BEF                     __ptext15:	
  4860 ;; *************** function _I2C_Master_Start *****************
  4861 ;; Defined at:
  4862 ;;		line 43 in file "I2C.c"
  4863 ;; Parameters:    Size  Location     Type
  4864 ;;		None
  4865 ;; Auto vars:     Size  Location     Type
  4866 ;;		None
  4867 ;; Return value:  Size  Location     Type
  4868 ;;                  1    wreg      void 
  4869 ;; Registers used:
  4870 ;;		wreg, status,2, status,0, pclath, cstack
  4871 ;; Tracked objects:
  4872 ;;		On entry : 0/0
  4873 ;;		On exit  : 0/0
  4874 ;;		Unchanged: 0/0
  4875 ;; Data sizes:     COMMON   BANK0   BANK1   BANK3   BANK2
  4876 ;;      Params:         0       0       0       0       0
  4877 ;;      Locals:         0       0       0       0       0
  4878 ;;      Temps:          0       0       0       0       0
  4879 ;;      Totals:         0       0       0       0       0
  4880 ;;Total ram usage:        0 bytes
  4881 ;; Hardware stack levels used:    1
  4882 ;; Hardware stack levels required when called:    2
  4883 ;; This function calls:
  4884 ;;		_I2C_Master_Wait
  4885 ;; This function is called by:
  4886 ;;		_main
  4887 ;;		_Expander_Write
  4888 ;;		_Init_AHT10
  4889 ;; This function uses a non-reentrant model
  4890 ;;
  4891                           
  4892                           
  4893                           ;psect for function _I2C_Master_Start
  4894  0BEF                     _I2C_Master_Start:
  4895  0BEF                     l1606:	
  4896                           ;incstack = 0
  4897                           ; Regs used in _I2C_Master_Start: [wreg+status,2+status,0+pclath+cstack]
  4898                           
  4899                           
  4900                           ;I2C.c: 45:     I2C_Master_Wait();
  4901  0BEF  120A  158A  240C  120A  158A  	fcall	_I2C_Master_Wait
  4902  0BF4                     l1608:
  4903                           
  4904                           ;I2C.c: 46:     SSPCON2bits.SEN = 1;
  4905  0BF4  1683               	bsf	3,5	;RP0=1, select bank1
  4906  0BF5  1303               	bcf	3,6	;RP1=0, select bank1
  4907  0BF6  1411               	bsf	17,0	;volatile
  4908  0BF7                     l131:
  4909  0BF7  0008               	return
  4910  0BF8                     __end_of_I2C_Master_Start:
  4911                           
  4912                           	psect	text16
  4913  0C52                     __ptext16:	
  4914 ;; *************** function _I2C_Master_Read *****************
  4915 ;; Defined at:
  4916 ;;		line 78 in file "I2C.c"
  4917 ;; Parameters:    Size  Location     Type
  4918 ;;  a               1    wreg     unsigned char 
  4919 ;; Auto vars:     Size  Location     Type
  4920 ;;  a               1    3[COMMON] unsigned char 
  4921 ;;  temp            1    4[COMMON] unsigned char 
  4922 ;; Return value:  Size  Location     Type
  4923 ;;                  1    wreg      unsigned char 
  4924 ;; Registers used:
  4925 ;;		wreg, status,2, status,0, pclath, cstack
  4926 ;; Tracked objects:
  4927 ;;		On entry : 0/0
  4928 ;;		On exit  : 0/0
  4929 ;;		Unchanged: 0/0
  4930 ;; Data sizes:     COMMON   BANK0   BANK1   BANK3   BANK2
  4931 ;;      Params:         0       0       0       0       0
  4932 ;;      Locals:         2       0       0       0       0
  4933 ;;      Temps:          1       0       0       0       0
  4934 ;;      Totals:         3       0       0       0       0
  4935 ;;Total ram usage:        3 bytes
  4936 ;; Hardware stack levels used:    1
  4937 ;; Hardware stack levels required when called:    2
  4938 ;; This function calls:
  4939 ;;		_I2C_Master_Wait
  4940 ;; This function is called by:
  4941 ;;		_main
  4942 ;; This function uses a non-reentrant model
  4943 ;;
  4944                           
  4945                           
  4946                           ;psect for function _I2C_Master_Read
  4947  0C52                     _I2C_Master_Read:
  4948                           
  4949                           ;incstack = 0
  4950                           ; Regs used in _I2C_Master_Read: [wreg+status,2+status,0+pclath+cstack]
  4951                           ;I2C_Master_Read@a stored from wreg
  4952  0C52  00F3               	movwf	I2C_Master_Read@a
  4953  0C53                     l1762:
  4954                           
  4955                           ;I2C.c: 78: unsigned char I2C_Master_Read(unsigned char a);I2C.c: 79: {;I2C.c: 80:     u
      +                          nsigned char temp;;I2C.c: 81:     I2C_Master_Wait();
  4956  0C53  120A  158A  240C  120A  158A  	fcall	_I2C_Master_Wait
  4957  0C58                     l1764:
  4958                           
  4959                           ;I2C.c: 82:     SSPCON2bits.RCEN = 1;
  4960  0C58  1683               	bsf	3,5	;RP0=1, select bank1
  4961  0C59  1303               	bcf	3,6	;RP1=0, select bank1
  4962  0C5A  1591               	bsf	17,3	;volatile
  4963                           
  4964                           ;I2C.c: 83:     I2C_Master_Wait();
  4965  0C5B  120A  158A  240C  120A  158A  	fcall	_I2C_Master_Wait
  4966  0C60                     l1766:
  4967                           
  4968                           ;I2C.c: 84:     temp = SSPBUF;
  4969  0C60  1283               	bcf	3,5	;RP0=0, select bank0
  4970  0C61  1303               	bcf	3,6	;RP1=0, select bank0
  4971  0C62  0813               	movf	19,w	;volatile
  4972  0C63  00F2               	movwf	??_I2C_Master_Read
  4973  0C64  0872               	movf	??_I2C_Master_Read,w
  4974  0C65  00F4               	movwf	I2C_Master_Read@temp
  4975  0C66                     l1768:
  4976                           
  4977                           ;I2C.c: 85:     I2C_Master_Wait();
  4978  0C66  120A  158A  240C  120A  158A  	fcall	_I2C_Master_Wait
  4979  0C6B                     l1770:
  4980                           
  4981                           ;I2C.c: 86:     if(a == 1){
  4982  0C6B  0373               	decf	I2C_Master_Read@a,w
  4983  0C6C  1D03               	btfss	3,2
  4984  0C6D  2C6F               	goto	u1531
  4985  0C6E  2C70               	goto	u1530
  4986  0C6F                     u1531:
  4987  0C6F  2C74               	goto	l143
  4988  0C70                     u1530:
  4989  0C70                     l1772:
  4990                           
  4991                           ;I2C.c: 87:         SSPCON2bits.ACKDT = 0;
  4992  0C70  1683               	bsf	3,5	;RP0=1, select bank1
  4993  0C71  1303               	bcf	3,6	;RP1=0, select bank1
  4994  0C72  1291               	bcf	17,5	;volatile
  4995                           
  4996                           ;I2C.c: 88:     }else{
  4997  0C73  2C77               	goto	l144
  4998  0C74                     l143:
  4999                           
  5000                           ;I2C.c: 89:         SSPCON2bits.ACKDT = 1;
  5001  0C74  1683               	bsf	3,5	;RP0=1, select bank1
  5002  0C75  1303               	bcf	3,6	;RP1=0, select bank1
  5003  0C76  1691               	bsf	17,5	;volatile
  5004  0C77                     l144:	
  5005                           ;I2C.c: 90:     }
  5006                           
  5007                           
  5008                           ;I2C.c: 91:     SSPCON2bits.ACKEN = 1;
  5009  0C77  1611               	bsf	17,4	;volatile
  5010  0C78                     l1774:
  5011                           
  5012                           ;I2C.c: 92:     return temp;
  5013  0C78  0874               	movf	I2C_Master_Read@temp,w
  5014  0C79                     l145:
  5015  0C79  0008               	return
  5016  0C7A                     __end_of_I2C_Master_Read:
  5017                           
  5018                           	psect	text17
  5019  0C0C                     __ptext17:	
  5020 ;; *************** function _I2C_Master_Wait *****************
  5021 ;; Defined at:
  5022 ;;		line 36 in file "I2C.c"
  5023 ;; Parameters:    Size  Location     Type
  5024 ;;		None
  5025 ;; Auto vars:     Size  Location     Type
  5026 ;;		None
  5027 ;; Return value:  Size  Location     Type
  5028 ;;                  1    wreg      void 
  5029 ;; Registers used:
  5030 ;;		wreg, status,2
  5031 ;; Tracked objects:
  5032 ;;		On entry : 0/0
  5033 ;;		On exit  : 0/0
  5034 ;;		Unchanged: 0/0
  5035 ;; Data sizes:     COMMON   BANK0   BANK1   BANK3   BANK2
  5036 ;;      Params:         0       0       0       0       0
  5037 ;;      Locals:         0       0       0       0       0
  5038 ;;      Temps:          0       0       0       0       0
  5039 ;;      Totals:         0       0       0       0       0
  5040 ;;Total ram usage:        0 bytes
  5041 ;; Hardware stack levels used:    1
  5042 ;; Hardware stack levels required when called:    1
  5043 ;; This function calls:
  5044 ;;		Nothing
  5045 ;; This function is called by:
  5046 ;;		_I2C_Master_Start
  5047 ;;		_I2C_Master_Stop
  5048 ;;		_I2C_Master_Write
  5049 ;;		_I2C_Master_Read
  5050 ;;		_I2C_Master_RepeatedStart
  5051 ;; This function uses a non-reentrant model
  5052 ;;
  5053                           
  5054                           
  5055                           ;psect for function _I2C_Master_Wait
  5056  0C0C                     _I2C_Master_Wait:
  5057  0C0C                     l1602:	
  5058                           ;incstack = 0
  5059                           ; Regs used in _I2C_Master_Wait: [wreg+status,2]
  5060                           
  5061  0C0C                     l125:	
  5062                           ;I2C.c: 38:     while ((SSPSTAT & 0x04) || (SSPCON2 & 0x1F));
  5063                           
  5064  0C0C  1683               	bsf	3,5	;RP0=1, select bank1
  5065  0C0D  1303               	bcf	3,6	;RP1=0, select bank1
  5066  0C0E  1914               	btfsc	20,2	;volatile
  5067  0C0F  2C11               	goto	u1351
  5068  0C10  2C12               	goto	u1350
  5069  0C11                     u1351:
  5070  0C11  2C0C               	goto	l125
  5071  0C12                     u1350:
  5072  0C12                     l1604:
  5073  0C12  0811               	movf	17,w	;volatile
  5074  0C13  391F               	andlw	31
  5075  0C14  1D03               	btfss	3,2
  5076  0C15  2C17               	goto	u1361
  5077  0C16  2C18               	goto	u1360
  5078  0C17                     u1361:
  5079  0C17  2C0C               	goto	l125
  5080  0C18                     u1360:
  5081  0C18                     l128:
  5082  0C18  0008               	return
  5083  0C19                     __end_of_I2C_Master_Wait:
  5084                           
  5085                           	psect	text18
  5086  0CD1                     __ptext18:	
  5087 ;; *************** function _I2C_Master_Init *****************
  5088 ;; Defined at:
  5089 ;;		line 20 in file "I2C.c"
  5090 ;; Parameters:    Size  Location     Type
  5091 ;;  c               4    6[BANK0 ] const unsigned long 
  5092 ;; Auto vars:     Size  Location     Type
  5093 ;;		None
  5094 ;; Return value:  Size  Location     Type
  5095 ;;                  1    wreg      void 
  5096 ;; Registers used:
  5097 ;;		wreg, status,2, status,0, pclath, cstack
  5098 ;; Tracked objects:
  5099 ;;		On entry : 0/0
  5100 ;;		On exit  : 0/0
  5101 ;;		Unchanged: 0/0
  5102 ;; Data sizes:     COMMON   BANK0   BANK1   BANK3   BANK2
  5103 ;;      Params:         0       4       0       0       0
  5104 ;;      Locals:         0       0       0       0       0
  5105 ;;      Temps:          0       4       0       0       0
  5106 ;;      Totals:         0       8       0       0       0
  5107 ;;Total ram usage:        8 bytes
  5108 ;; Hardware stack levels used:    1
  5109 ;; Hardware stack levels required when called:    2
  5110 ;; This function calls:
  5111 ;;		___lldiv
  5112 ;; This function is called by:
  5113 ;;		_main
  5114 ;; This function uses a non-reentrant model
  5115 ;;
  5116                           
  5117                           
  5118                           ;psect for function _I2C_Master_Init
  5119  0CD1                     _I2C_Master_Init:
  5120  0CD1                     l2380:	
  5121                           ;incstack = 0
  5122                           ; Regs used in _I2C_Master_Init: [wreg+status,2+status,0+pclath+cstack]
  5123                           
  5124                           
  5125                           ;I2C.c: 20: void I2C_Master_Init(const unsigned long c);I2C.c: 21: {;I2C.c: 22:     SSPC
      +                          ON = 0b00101000;
  5126  0CD1  3028               	movlw	40
  5127  0CD2  1283               	bcf	3,5	;RP0=0, select bank0
  5128  0CD3  1303               	bcf	3,6	;RP1=0, select bank0
  5129  0CD4  0094               	movwf	20	;volatile
  5130  0CD5                     l2382:
  5131                           
  5132                           ;I2C.c: 23:     SSPCON2 = 0;
  5133  0CD5  1683               	bsf	3,5	;RP0=1, select bank1
  5134  0CD6  1303               	bcf	3,6	;RP1=0, select bank1
  5135  0CD7  0191               	clrf	17	;volatile
  5136  0CD8                     l2384:
  5137                           
  5138                           ;I2C.c: 24:     SSPADD = (8000000/(4*c))-1;
  5139  0CD8  1283               	bcf	3,5	;RP0=0, select bank0
  5140  0CD9  1303               	bcf	3,6	;RP1=0, select bank0
  5141  0CDA  0826               	movf	I2C_Master_Init@c,w
  5142  0CDB  00AA               	movwf	??_I2C_Master_Init
  5143  0CDC  0827               	movf	I2C_Master_Init@c+1,w
  5144  0CDD  00AB               	movwf	??_I2C_Master_Init+1
  5145  0CDE  0828               	movf	I2C_Master_Init@c+2,w
  5146  0CDF  00AC               	movwf	??_I2C_Master_Init+2
  5147  0CE0  0829               	movf	I2C_Master_Init@c+3,w
  5148  0CE1  00AD               	movwf	??_I2C_Master_Init+3
  5149  0CE2  3002               	movlw	2
  5150  0CE3                     u2775:
  5151  0CE3  1003               	clrc
  5152  0CE4  0DAA               	rlf	??_I2C_Master_Init,f
  5153  0CE5  0DAB               	rlf	??_I2C_Master_Init+1,f
  5154  0CE6  0DAC               	rlf	??_I2C_Master_Init+2,f
  5155  0CE7  0DAD               	rlf	??_I2C_Master_Init+3,f
  5156  0CE8                     u2770:
  5157  0CE8  3EFF               	addlw	-1
  5158  0CE9  1D03               	skipz
  5159  0CEA  2CE3               	goto	u2775
  5160  0CEB  082D               	movf	??_I2C_Master_Init+3,w
  5161  0CEC  00F5               	movwf	___lldiv@divisor+3
  5162  0CED  082C               	movf	??_I2C_Master_Init+2,w
  5163  0CEE  00F4               	movwf	___lldiv@divisor+2
  5164  0CEF  082B               	movf	??_I2C_Master_Init+1,w
  5165  0CF0  00F3               	movwf	___lldiv@divisor+1
  5166  0CF1  082A               	movf	??_I2C_Master_Init,w
  5167  0CF2  00F2               	movwf	___lldiv@divisor
  5168  0CF3  3000               	movlw	0
  5169  0CF4  00F9               	movwf	___lldiv@dividend+3
  5170  0CF5  307A               	movlw	122
  5171  0CF6  00F8               	movwf	___lldiv@dividend+2
  5172  0CF7  3012               	movlw	18
  5173  0CF8  00F7               	movwf	___lldiv@dividend+1
  5174  0CF9  3000               	movlw	0
  5175  0CFA  00F6               	movwf	___lldiv@dividend
  5176  0CFB  120A  158A  257C  120A  158A  	fcall	___lldiv
  5177  0D00  0872               	movf	?___lldiv,w
  5178  0D01  3EFF               	addlw	255
  5179  0D02  1683               	bsf	3,5	;RP0=1, select bank1
  5180  0D03  1303               	bcf	3,6	;RP1=0, select bank1
  5181  0D04  0093               	movwf	19	;volatile
  5182  0D05                     l2386:
  5183                           
  5184                           ;I2C.c: 25:     SSPSTAT = 0;
  5185  0D05  0194               	clrf	20	;volatile
  5186  0D06                     l2388:
  5187                           
  5188                           ;I2C.c: 26:     TRISCbits.TRISC3 = 1;
  5189  0D06  1587               	bsf	7,3	;volatile
  5190  0D07                     l2390:
  5191                           
  5192                           ;I2C.c: 27:     TRISCbits.TRISC4 = 1;
  5193  0D07  1607               	bsf	7,4	;volatile
  5194  0D08                     l122:
  5195  0D08  0008               	return
  5196  0D09                     __end_of_I2C_Master_Init:
  5197                           
  5198                           	psect	text19
  5199  0D7C                     __ptext19:	
  5200 ;; *************** function ___lldiv *****************
  5201 ;; Defined at:
  5202 ;;		line 5 in file "C:\Program Files\Microchip\xc8\v2.31\pic\sources\c90\common\__lldiv.c"
  5203 ;; Parameters:    Size  Location     Type
  5204 ;;  divisor         4    2[COMMON] unsigned long 
  5205 ;;  dividend        4    6[COMMON] unsigned long 
  5206 ;; Auto vars:     Size  Location     Type
  5207 ;;  quotient        4    1[BANK0 ] unsigned long 
  5208 ;;  counter         1    5[BANK0 ] unsigned char 
  5209 ;; Return value:  Size  Location     Type
  5210 ;;                  4    2[COMMON] unsigned long 
  5211 ;; Registers used:
  5212 ;;		wreg, status,2, status,0
  5213 ;; Tracked objects:
  5214 ;;		On entry : 0/0
  5215 ;;		On exit  : 0/0
  5216 ;;		Unchanged: 0/0
  5217 ;; Data sizes:     COMMON   BANK0   BANK1   BANK3   BANK2
  5218 ;;      Params:         8       0       0       0       0
  5219 ;;      Locals:         0       5       0       0       0
  5220 ;;      Temps:          0       1       0       0       0
  5221 ;;      Totals:         8       6       0       0       0
  5222 ;;Total ram usage:       14 bytes
  5223 ;; Hardware stack levels used:    1
  5224 ;; Hardware stack levels required when called:    1
  5225 ;; This function calls:
  5226 ;;		Nothing
  5227 ;; This function is called by:
  5228 ;;		_I2C_Master_Init
  5229 ;; This function uses a non-reentrant model
  5230 ;;
  5231                           
  5232                           
  5233                           ;psect for function ___lldiv
  5234  0D7C                     ___lldiv:
  5235  0D7C                     l2342:	
  5236                           ;incstack = 0
  5237                           ; Regs used in ___lldiv: [wreg+status,2+status,0]
  5238                           
  5239  0D7C  3000               	movlw	0
  5240  0D7D  1283               	bcf	3,5	;RP0=0, select bank0
  5241  0D7E  1303               	bcf	3,6	;RP1=0, select bank0
  5242  0D7F  00A4               	movwf	___lldiv@quotient+3
  5243  0D80  3000               	movlw	0
  5244  0D81  00A3               	movwf	___lldiv@quotient+2
  5245  0D82  3000               	movlw	0
  5246  0D83  00A2               	movwf	___lldiv@quotient+1
  5247  0D84  3000               	movlw	0
  5248  0D85  00A1               	movwf	___lldiv@quotient
  5249  0D86  0875               	movf	___lldiv@divisor+3,w
  5250  0D87  0474               	iorwf	___lldiv@divisor+2,w
  5251  0D88  0473               	iorwf	___lldiv@divisor+1,w
  5252  0D89  0472               	iorwf	___lldiv@divisor,w
  5253  0D8A  1903               	skipnz
  5254  0D8B  2D8D               	goto	u2671
  5255  0D8C  2D8E               	goto	u2670
  5256  0D8D                     u2671:
  5257  0D8D  2DDB               	goto	l2362
  5258  0D8E                     u2670:
  5259  0D8E                     l2344:
  5260  0D8E  01A5               	clrf	___lldiv@counter
  5261  0D8F  0AA5               	incf	___lldiv@counter,f
  5262  0D90  2D9E               	goto	l2348
  5263  0D91                     l2346:
  5264  0D91  3001               	movlw	1
  5265  0D92  00A0               	movwf	??___lldiv
  5266  0D93                     u2685:
  5267  0D93  1003               	clrc
  5268  0D94  0DF2               	rlf	___lldiv@divisor,f
  5269  0D95  0DF3               	rlf	___lldiv@divisor+1,f
  5270  0D96  0DF4               	rlf	___lldiv@divisor+2,f
  5271  0D97  0DF5               	rlf	___lldiv@divisor+3,f
  5272  0D98  0BA0               	decfsz	??___lldiv,f
  5273  0D99  2D93               	goto	u2685
  5274  0D9A  3001               	movlw	1
  5275  0D9B  00A0               	movwf	??___lldiv
  5276  0D9C  0820               	movf	??___lldiv,w
  5277  0D9D  07A5               	addwf	___lldiv@counter,f
  5278  0D9E                     l2348:
  5279  0D9E  1FF5               	btfss	___lldiv@divisor+3,7
  5280  0D9F  2DA1               	goto	u2691
  5281  0DA0  2DA2               	goto	u2690
  5282  0DA1                     u2691:
  5283  0DA1  2D91               	goto	l2346
  5284  0DA2                     u2690:
  5285  0DA2                     l2350:
  5286  0DA2  3001               	movlw	1
  5287  0DA3  00A0               	movwf	??___lldiv
  5288  0DA4                     u2705:
  5289  0DA4  1003               	clrc
  5290  0DA5  0DA1               	rlf	___lldiv@quotient,f
  5291  0DA6  0DA2               	rlf	___lldiv@quotient+1,f
  5292  0DA7  0DA3               	rlf	___lldiv@quotient+2,f
  5293  0DA8  0DA4               	rlf	___lldiv@quotient+3,f
  5294  0DA9  0BA0               	decfsz	??___lldiv,f
  5295  0DAA  2DA4               	goto	u2705
  5296  0DAB                     l2352:
  5297  0DAB  0875               	movf	___lldiv@divisor+3,w
  5298  0DAC  0279               	subwf	___lldiv@dividend+3,w
  5299  0DAD  1D03               	skipz
  5300  0DAE  2DB9               	goto	u2715
  5301  0DAF  0874               	movf	___lldiv@divisor+2,w
  5302  0DB0  0278               	subwf	___lldiv@dividend+2,w
  5303  0DB1  1D03               	skipz
  5304  0DB2  2DB9               	goto	u2715
  5305  0DB3  0873               	movf	___lldiv@divisor+1,w
  5306  0DB4  0277               	subwf	___lldiv@dividend+1,w
  5307  0DB5  1D03               	skipz
  5308  0DB6  2DB9               	goto	u2715
  5309  0DB7  0872               	movf	___lldiv@divisor,w
  5310  0DB8  0276               	subwf	___lldiv@dividend,w
  5311  0DB9                     u2715:
  5312  0DB9  1C03               	skipc
  5313  0DBA  2DBC               	goto	u2711
  5314  0DBB  2DBD               	goto	u2710
  5315  0DBC                     u2711:
  5316  0DBC  2DCC               	goto	l2358
  5317  0DBD                     u2710:
  5318  0DBD                     l2354:
  5319  0DBD  0872               	movf	___lldiv@divisor,w
  5320  0DBE  02F6               	subwf	___lldiv@dividend,f
  5321  0DBF  0873               	movf	___lldiv@divisor+1,w
  5322  0DC0  1C03               	skipc
  5323  0DC1  0F73               	incfsz	___lldiv@divisor+1,w
  5324  0DC2  02F7               	subwf	___lldiv@dividend+1,f
  5325  0DC3  0874               	movf	___lldiv@divisor+2,w
  5326  0DC4  1C03               	skipc
  5327  0DC5  0F74               	incfsz	___lldiv@divisor+2,w
  5328  0DC6  02F8               	subwf	___lldiv@dividend+2,f
  5329  0DC7  0875               	movf	___lldiv@divisor+3,w
  5330  0DC8  1C03               	skipc
  5331  0DC9  0F75               	incfsz	___lldiv@divisor+3,w
  5332  0DCA  02F9               	subwf	___lldiv@dividend+3,f
  5333  0DCB                     l2356:
  5334  0DCB  1421               	bsf	___lldiv@quotient,0
  5335  0DCC                     l2358:
  5336  0DCC  3001               	movlw	1
  5337  0DCD                     u2725:
  5338  0DCD  1003               	clrc
  5339  0DCE  0CF5               	rrf	___lldiv@divisor+3,f
  5340  0DCF  0CF4               	rrf	___lldiv@divisor+2,f
  5341  0DD0  0CF3               	rrf	___lldiv@divisor+1,f
  5342  0DD1  0CF2               	rrf	___lldiv@divisor,f
  5343  0DD2  3EFF               	addlw	-1
  5344  0DD3  1D03               	skipz
  5345  0DD4  2DCD               	goto	u2725
  5346  0DD5                     l2360:
  5347  0DD5  3001               	movlw	1
  5348  0DD6  02A5               	subwf	___lldiv@counter,f
  5349  0DD7  1D03               	btfss	3,2
  5350  0DD8  2DDA               	goto	u2731
  5351  0DD9  2DDB               	goto	u2730
  5352  0DDA                     u2731:
  5353  0DDA  2DA2               	goto	l2350
  5354  0DDB                     u2730:
  5355  0DDB                     l2362:
  5356  0DDB  0824               	movf	___lldiv@quotient+3,w
  5357  0DDC  00F5               	movwf	?___lldiv+3
  5358  0DDD  0823               	movf	___lldiv@quotient+2,w
  5359  0DDE  00F4               	movwf	?___lldiv+2
  5360  0DDF  0822               	movf	___lldiv@quotient+1,w
  5361  0DE0  00F3               	movwf	?___lldiv+1
  5362  0DE1  0821               	movf	___lldiv@quotient,w
  5363  0DE2  00F2               	movwf	?___lldiv
  5364  0DE3                     l344:
  5365  0DE3  0008               	return
  5366  0DE4                     __end_of___lldiv:
  5367                           
  5368                           	psect	text20
  5369  0BE0                     __ptext20:	
  5370 ;; *************** function _isr *****************
  5371 ;; Defined at:
  5372 ;;		line 63 in file "main.c"
  5373 ;; Parameters:    Size  Location     Type
  5374 ;;		None
  5375 ;; Auto vars:     Size  Location     Type
  5376 ;;		None
  5377 ;; Return value:  Size  Location     Type
  5378 ;;                  1    wreg      void 
  5379 ;; Registers used:
  5380 ;;		None
  5381 ;; Tracked objects:
  5382 ;;		On entry : 0/0
  5383 ;;		On exit  : 0/0
  5384 ;;		Unchanged: 0/0
  5385 ;; Data sizes:     COMMON   BANK0   BANK1   BANK3   BANK2
  5386 ;;      Params:         0       0       0       0       0
  5387 ;;      Locals:         0       0       0       0       0
  5388 ;;      Temps:          2       0       0       0       0
  5389 ;;      Totals:         2       0       0       0       0
  5390 ;;Total ram usage:        2 bytes
  5391 ;; Hardware stack levels used:    1
  5392 ;; This function calls:
  5393 ;;		Nothing
  5394 ;; This function is called by:
  5395 ;;		Interrupt level 1
  5396 ;; This function uses a non-reentrant model
  5397 ;;
  5398                           
  5399                           
  5400                           ;psect for function _isr
  5401  0BE0                     _isr:
  5402  0BE0                     i1l63:
  5403  0BE0  0871               	movf	??_isr+1,w
  5404  0BE1  008A               	movwf	10
  5405  0BE2  0E70               	swapf	??_isr,w
  5406  0BE3  0083               	movwf	3
  5407  0BE4  0EFE               	swapf	btemp,f
  5408  0BE5  0E7E               	swapf	btemp,w
  5409  0BE6  0009               	retfie
  5410  0BE7                     __end_of_isr:
  5411  007E                     btemp	set	126	;btemp
  5412  007E                     wtemp0	set	126
  5413                           
  5414                           	psect	intentry
  5415  0004                     __pintentry:	
  5416                           ;incstack = 0
  5417                           ; Regs used in _isr: []
  5418                           
  5419  0004                     interrupt_function:
  5420  007E                     saved_w	set	btemp
  5421  0004  00FE               	movwf	btemp
  5422  0005  0E03               	swapf	3,w
  5423  0006  00F0               	movwf	??_isr
  5424  0007  080A               	movf	10,w
  5425  0008  00F1               	movwf	??_isr+1
  5426  0009  120A  158A  2BE0   	ljmp	_isr
  5427                           
  5428                           	psect	config
  5429                           
  5430                           ;Config register CONFIG1 @ 0x2007
  5431                           ;	Oscillator Selection bits
  5432                           ;	FOSC = INTRC_NOCLKOUT, INTOSCIO oscillator: I/O function on RA6/OSC2/CLKOUT pin, I/O f
      +                          unction on RA7/OSC1/CLKIN
  5433                           ;	Watchdog Timer Enable bit
  5434                           ;	WDTE = OFF, WDT disabled and can be enabled by SWDTEN bit of the WDTCON register
  5435                           ;	Power-up Timer Enable bit
  5436                           ;	PWRTE = OFF, PWRT disabled
  5437                           ;	RE3/MCLR pin function select bit
  5438                           ;	MCLRE = OFF, RE3/MCLR pin function is digital input, MCLR internally tied to VDD
  5439                           ;	Code Protection bit
  5440                           ;	CP = OFF, Program memory code protection is disabled
  5441                           ;	Data Code Protection bit
  5442                           ;	CPD = OFF, Data memory code protection is disabled
  5443                           ;	Brown Out Reset Selection bits
  5444                           ;	BOREN = OFF, BOR disabled
  5445                           ;	Internal External Switchover bit
  5446                           ;	IESO = OFF, Internal/External Switchover mode is disabled
  5447                           ;	Fail-Safe Clock Monitor Enabled bit
  5448                           ;	FCMEN = OFF, Fail-Safe Clock Monitor is disabled
  5449                           ;	Low Voltage Programming Enable bit
  5450                           ;	LVP = OFF, RB3 pin has digital I/O, HV on MCLR must be used for programming
  5451                           ;	In-Circuit Debugger Mode bit
  5452                           ;	DEBUG = 0x1, unprogrammed default
  5453  2007                     	org	8199
  5454  2007  20D4               	dw	8404
  5455                           
  5456                           ;Config register CONFIG2 @ 0x2008
  5457                           ;	Brown-out Reset Selection bit
  5458                           ;	BOR4V = BOR40V, Brown-out Reset set to 4.0V
  5459                           ;	Flash Program Memory Self Write Enable bits
  5460                           ;	WRT = OFF, Write protection off
  5461  2008                     	org	8200
  5462  2008  3FFF               	dw	16383

Data Sizes:
    Strings     14
    Constant    0
    Data        1
    BSS         25
    Persistent  1
    Stack       0

Auto Spaces:
    Space          Size  Autos    Used
    COMMON           14     10      12
    BANK0            80     66      80
    BANK1            80      0      12
    BANK3            96      0       0
    BANK2            96      0       0

Pointer List with Targets:

    LCD_Print@LCD_Str	PTR unsigned char  size(1) Largest target is 14
		 -> STR_1(CODE[14]), 


Critical Paths under _main in COMMON

    _main->_LCD_Begin
    _main->_LCD_Goto
    _main->___xxtofl
    ___fltol->___xxtofl
    ___flmul->___xxtofl
    ___fladd->___xxtofl
    _LCD_Print->_LCD_Write_Nibble
    _LCD_Goto->_LCD_Cmd
    _LCD_Begin->_LCD_Cmd
    _LCD_Cmd->_LCD_Write_Nibble
    _LCD_Write_Nibble->_Expander_Write
    _Expander_Write->_I2C_Master_Write
    _I2C_Master_Init->___lldiv

Critical Paths under _isr in COMMON

    None.

Critical Paths under _main in BANK0

    _main->___fladd
    ___fltol->___flmul
    ___flmul->___xxtofl
    ___fladd->___flmul
    _I2C_Master_Init->___lldiv

Critical Paths under _isr in BANK0

    None.

Critical Paths under _main in BANK1

    None.

Critical Paths under _isr in BANK1

    None.

Critical Paths under _main in BANK3

    None.

Critical Paths under _isr in BANK3

    None.

Critical Paths under _main in BANK2

    None.

Critical Paths under _isr in BANK2

    None.

Call Graph Tables:

 ---------------------------------------------------------------------------------
 (Depth) Function   	        Calls       Base Space   Used Autos Params    Refs
 ---------------------------------------------------------------------------------
 (0) _main                                                14    14      0    8179
                                             52 BANK0     14    14      0
                    _I2C_Master_Init
                    _I2C_Master_Read
                   _I2C_Master_Start
                    _I2C_Master_Stop
                   _I2C_Master_Write
                          _LCD_Begin
                           _LCD_Goto
                          _LCD_Print
                         _USART_Init
                            ___fladd
                            ___flmul
                            ___fltol
                           ___xxtofl
 ---------------------------------------------------------------------------------
 (1) ___xxtofl                                            14    10      4     474
                                              2 COMMON     8     4      4
                                              0 BANK0      6     6      0
 ---------------------------------------------------------------------------------
 (1) ___fltol                                             11     7      4     305
                                             32 BANK0     11     7      4
                            ___flmul (ARG)
                           ___xxtofl (ARG)
 ---------------------------------------------------------------------------------
 (1) ___flmul                                             26    18      8    3533
                                              6 BANK0     26    18      8
                          __Umul8_16
                           ___xxtofl (ARG)
 ---------------------------------------------------------------------------------
 (2) __Umul8_16                                            9     7      2     980
                                              2 COMMON     4     2      2
                                              0 BANK0      5     5      0
 ---------------------------------------------------------------------------------
 (1) ___fladd                                             20    12      8    2262
                                             32 BANK0     20    12      8
                            ___flmul (ARG)
                           ___xxtofl (ARG)
 ---------------------------------------------------------------------------------
 (1) _USART_Init                                           0     0      0       0
 ---------------------------------------------------------------------------------
 (1) _LCD_Print                                            3     3      0     278
                                              6 COMMON     3     3      0
                   _LCD_Write_Nibble
 ---------------------------------------------------------------------------------
 (1) _LCD_Goto                                             4     3      1     444
                                              9 COMMON     1     0      1
                                              0 BANK0      3     3      0
                            _LCD_Cmd
 ---------------------------------------------------------------------------------
 (1) _LCD_Begin                                            3     3      0     274
                                              9 COMMON     1     1      0
                                              0 BANK0      2     2      0
                     _Expander_Write
                            _LCD_Cmd
 ---------------------------------------------------------------------------------
 (2) _LCD_Cmd                                              3     3      0     199
                                              6 COMMON     3     3      0
                   _LCD_Write_Nibble
 ---------------------------------------------------------------------------------
 (2) _LCD_Write_Nibble                                     2     2      0     111
                                              4 COMMON     2     2      0
                     _Expander_Write
 ---------------------------------------------------------------------------------
 (3) _Expander_Write                                       1     1      0      44
                                              3 COMMON     1     1      0
                   _I2C_Master_Start
                    _I2C_Master_Stop
                   _I2C_Master_Write
 ---------------------------------------------------------------------------------
 (4) _I2C_Master_Write                                     1     1      0      22
                                              2 COMMON     1     1      0
                    _I2C_Master_Wait
 ---------------------------------------------------------------------------------
 (4) _I2C_Master_Stop                                      0     0      0       0
                    _I2C_Master_Wait
 ---------------------------------------------------------------------------------
 (4) _I2C_Master_Start                                     0     0      0       0
                    _I2C_Master_Wait
 ---------------------------------------------------------------------------------
 (1) _I2C_Master_Read                                      3     3      0      45
                                              2 COMMON     3     3      0
                    _I2C_Master_Wait
 ---------------------------------------------------------------------------------
 (5) _I2C_Master_Wait                                      0     0      0       0
 ---------------------------------------------------------------------------------
 (1) _I2C_Master_Init                                      8     4      4     542
                                              6 BANK0      8     4      4
                            ___lldiv
 ---------------------------------------------------------------------------------
 (2) ___lldiv                                             14     6      8     421
                                              2 COMMON     8     0      8
                                              0 BANK0      6     6      0
 ---------------------------------------------------------------------------------
 Estimated maximum stack depth 5
 ---------------------------------------------------------------------------------
 (Depth) Function   	        Calls       Base Space   Used Autos Params    Refs
 ---------------------------------------------------------------------------------
 (7) _isr                                                  2     2      0       0
                                              0 COMMON     2     2      0
 ---------------------------------------------------------------------------------
 Estimated maximum stack depth 7
 ---------------------------------------------------------------------------------

 Call Graph Graphs:

 _main (ROOT)
   _I2C_Master_Init
     ___lldiv
   _I2C_Master_Read
     _I2C_Master_Wait
   _I2C_Master_Start
     _I2C_Master_Wait
   _I2C_Master_Stop
     _I2C_Master_Wait
   _I2C_Master_Write
     _I2C_Master_Wait
   _LCD_Begin
     _Expander_Write
       _I2C_Master_Start
         _I2C_Master_Wait
       _I2C_Master_Stop
         _I2C_Master_Wait
       _I2C_Master_Write
         _I2C_Master_Wait
     _LCD_Cmd
       _LCD_Write_Nibble
         _Expander_Write
           _I2C_Master_Start
             _I2C_Master_Wait
           _I2C_Master_Stop
             _I2C_Master_Wait
           _I2C_Master_Write
             _I2C_Master_Wait
   _LCD_Goto
     _LCD_Cmd
       _LCD_Write_Nibble
         _Expander_Write
           _I2C_Master_Start
             _I2C_Master_Wait
           _I2C_Master_Stop
             _I2C_Master_Wait
           _I2C_Master_Write
             _I2C_Master_Wait
   _LCD_Print
     _LCD_Write_Nibble
       _Expander_Write
         _I2C_Master_Start
           _I2C_Master_Wait
         _I2C_Master_Stop
           _I2C_Master_Wait
         _I2C_Master_Write
           _I2C_Master_Wait
   _USART_Init
   ___fladd
     ___flmul (ARG)
       __Umul8_16
       ___xxtofl (ARG)
     ___xxtofl (ARG)
   ___flmul
     __Umul8_16
     ___xxtofl (ARG)
   ___fltol
     ___flmul (ARG)
       __Umul8_16
       ___xxtofl (ARG)
     ___xxtofl (ARG)
   ___xxtofl

 _isr (ROOT)

 Address spaces:
Name               Size   Autos  Total    Cost      Usage
BANK3               60      0       0       9        0.0%
BITBANK3            60      0       0       8        0.0%
SFR3                 0      0       0       4        0.0%
BITSFR3              0      0       0       4        0.0%
BANK2               60      0       0      11        0.0%
BITBANK2            60      0       0      10        0.0%
SFR2                 0      0       0       5        0.0%
BITSFR2              0      0       0       5        0.0%
BANK1               50      0       C       7       15.0%
BITBANK1            50      0       0       6        0.0%
SFR1                 0      0       0       2        0.0%
BITSFR1              0      0       0       2        0.0%
BANK0               50     42      50       5      100.0%
BITBANK0            50      0       0       4        0.0%
SFR0                 0      0       0       1        0.0%
BITSFR0              0      0       0       1        0.0%
COMMON               E      A       C       1       85.7%
BITCOMMON            E      0       1       0        7.1%
CODE                 0      0       0       0        0.0%
DATA                 0      0      68      12        0.0%
ABS                  0      0      68       3        0.0%
NULL                 0      0       0       0        0.0%
STACK                0      0       0       2        0.0%
EEDATA             100      0       0       0        0.0%


Microchip Technology PIC Macro Assembler V2.31 build 20201012212115 
Symbol Table                                                                                   Mon Aug 23 20:45:31 2021

                        pc 0002                         _RS 03D0                         fsr 0004  
      __Umul8_16@word_mpld 0022                        l122 0D08                        l131 0BF7  
                      l140 0C0B                        l204 0C2D                        l125 0C0C  
                      l143 0C74                        l151 07FF                        l128 0C18  
                      l144 0C77                        l160 0CD0                        l145 0C79  
                      l137 0C00                        l154 0C51                        l181 0768  
                      l501 07CF                        l344 0DE3                        l504 07E4  
                      l169 0D40                        l601 03EF                        l178 0D7B  
                      l605 0496                        l622 0561                        l614 0613  
                      l607 046D                        l703 02F7                        l632 05A7  
                      l626 0585                        l643 0607                        l635 05E5  
                      l644 0613                        l716 0C90                        l709 037F  
                      l741 0638                        l718 0CA2                        l494 07E4  
                      l743 06CF                        l754 0699                        l755 06A5  
                      l747 067D                        l697 038B                        _GIE 005F  
                      _dec 006B                        _cen 006C                        _isr 0BE0  
                      fsr0 0004                        _uni 006A                        indf 0000  
             ___flmul@aexp 0034               ___flmul@bexp 0039               ___flmul@sign 0033  
             ___flmul@temp 003E               ___flmul@prod 003A                 _DataBuffer 0062  
          __end_of_LCD_Cmd 0CD1               ___fltol@exp1 004A                       l2000 0601  
                     l2002 0603                       l2004 060E                       l2006 0612  
                     l2150 061C                       l2400 06F8                       l2160 0649  
                     l2152 0620                       l1602 0C0C                       l1610 0C02  
                     l2410 0738                       l2402 0708                       l2170 0674  
                     l2162 064E                       l2154 0630                       l1604 0C12  
                     l1612 0C07                       l1620 0C2F                       l2412 073E  
                     l2404 070E                       l2420 0D0D                       l2500 0188  
                     l2180 06A7                       l2172 0684                       l2164 065B  
                     l2156 0640                       l2148 0617                       l2350 0DA2  
                     l2342 0D7C                       l1606 0BEF                       l1614 0BF8  
                     l1630 0C45                       l1622 0C35                       l2414 074E  
                     l2406 071E                       l2422 0D15                       l2510 0218  
                     l2502 0198                       l2182 06BD                       l2174 068F  
                     l2166 0662                       l2360 0DD5                       l2352 0DAB  
                     l2344 0D8E                       l1608 0BF4                       l1616 0BFD  
                     l1632 0C4C                       l1624 0C3C                       l1640 0CC1  
                     l2416 0758                       l2408 0728                       l2424 0D1D  
                     l2520 02AC                       l2512 0228                       l2504 01B5  
                     l2440 0038                       l1800 07AB                       l2184 06C2  
                     l2176 0693                       l2168 0666                       l2600 0E0A  
                     l2354 0DBD                       l2346 0D91                       l2362 0DDB  
                     l1618 07E6                       l1626 0C3D                       l1642 0CC7  
                     l1634 0CA4                       l2426 0D25                       l2418 0D0C  
                     l2370 0C86                       l2530 02D1                       l2522 02BA  
                     l2514 0255                       l2506 01CE                       l2450 004F  
                     l2442 003C                       l1810 07D4                       l1802 07BD  
                     l2186 06C6                       l2178 069D                       l2610 0E29  
                     l2602 0E10                       l2356 0DCB                       l2348 0D9E  
                     l2380 0CD1                       l1628 0C44                       l1636 0CA5  
                     l2428 0D2D                       l1900 047A                       l1820 039D  
                     l2372 0C8A                       l2540 02F4                       l2524 02C3  
                     l2532 02D7                       l2516 027B                       l2508 01EB  
                     l2460 0068                       l2452 0051                       l2444 003D  
                     l2436 002B                       l1812 07D9                       l2188 06C7  
                     l2620 0E4A                       l2612 0E2F                       l2604 0E18  
                     l2358 0DCC                       l2390 0D07                       l2382 0CD5  
                     l1638 0CBC                       l1902 047C                       l1910 048E  
                     l1830 03B1                       l1822 039E                       l1814 038C  
                     l2374 0C99                       l2366 0C7D                       l2550 0313  
                     l2534 02DB                       l2526 02C7                       l2518 02A3  
                     l2470 007D                       l2462 0069                       l2454 0059  
                     l2446 0042                       l2438 0032                       l2630 0E76  
                     l2622 0E4F                       l2614 0E35                       l2606 0E1E  
                     l2384 0CD8                       l2392 06D1                       l1760 0D6E  
                     l1752 0D42                       l1920 04BF                       l1912 049A  
                     l1904 0480                       l1840 03C7                       l1824 03A3  
                     l1832 03B3                       l1816 0393                       l2376 0C9E  
                     l2368 0C7F                       l2560 0359                       l2552 032C  
                     l2544 02FC                       l2536 02DC                       l2528 02C8  
                     l2480 0098                       l2472 0085                       l2464 006E  
                     l2456 005E                       l2448 0047                       l1808 07C4  
                     l2640 0EAB                       l2632 0E81                       l2624 0E55  
                     l2616 0E3B                       l2608 0E23                       l2386 0D05  
                     l1770 0C6B                       l1762 0C53                       l2394 06D7  
                     l1754 0D43                       l1690 0C28                       l1682 0C19  
                     l1930 04D6                       l1922 04C3                       l1914 049F  
                     l1906 0481                       l1850 03DC                       l1842 03CD  
                     l1834 03BB                       l1826 03A8                       l1818 0399  
                     l2570 0378                       l2562 0363                       l2546 0301  
                     l2554 0332                       l2538 02E0                       l2490 011A  
                     l2482 00A8                       l2474 008A                       l2466 0073  
                     l2458 0064                       l2650 0F4B                       l2642 0EFB  
                     l2634 0E8C                       l2626 0E60                       l2618 0E40  
                     l2388 0D06                       l1772 0C70                       l1764 0C58  
                     l2396 06DD                       l1756 0D45                       l1692 0C29  
                     l1684 0C20                       l1940 0539                       l1932 04D7  
                     l1924 04C7                       l1908 048A                       l1860 03F9  
                     l1852 03E4                       l1844 03D1                       l1836 03C0  
                     l1828 03B0                       l2572 0383                       l2564 0365  
                     l2556 033F                       l2548 030F                       l2492 0136  
                     l2484 00B5                       l2476 008F                       l2468 007B  
                     l1780 0776                       l2652 0F51                       l2644 0F38  
                     l2636 0E97                       l2628 0E6B                       l2580 0DEC  
                     l1774 0C78                       l1766 0C60                       l2398 06EE  
                     l1758 0D6A                       l1694 0C2A                       l1686 0C24  
                     l1950 056E                       l1942 053F                       l1934 04E0  
                     l1926 04D0                       l1918 04A8                       l1870 040D  
                     l1862 03FD                       l1854 03E5                       l1846 03D2  
                     l1838 03C6                       l2566 0373                       l2558 034A  
                     l2494 0152                       l2486 00D2                       l1790 079D  
                     l2654 0F95                       l2646 0F3C                       l2638 0E9C  
                     l2590 0DF5                       l2582 0DED                       l1768 0C66  
                     l1688 0C25                       l1960 0589                       l1944 0544  
                     l1928 04D2                       l1936 04E5                       l1880 0421  
                     l1872 0411                       l1864 0401                       l1848 03D7  
                     l1856 03E7                       l2568 0377                       l2496 015B  
                     l2488 00EE                       l1792 079F                       l1784 077F  
                     l2656 0FED                       l2648 0F3E                       l2592 0DF6  
                     l2584 0DF0                       l2576 0DE4                       l1962 058C  
                     l1954 0577                       l1938 04FB                       l1946 0553  
                     l1970 0599                       l1890 0435                       l1882 0425  
                     l1874 0415                       l1866 0405                       l1858 03F5  
                     l2498 016B                       l1794 07A3                       l1786 0794  
                     l1778 0769                       l2594 0E05                       l2586 0DF2  
                     l2578 0DE9                       l1980 05AC                       l1972 059A  
                     l1964 058E                       l1956 0580                       l1948 0569  
                     l1884 0429                       l1876 0419                       l1868 0409  
                     l1892 0439                       l1788 0795                       l2596 0E08  
                     l2588 0DF3                       l1990 05EA                       l1982 05B1  
                     l1974 059E                       l1966 0593                       l1958 0584  
                     l1894 043A                       l1886 042D                       l1878 041D  
                     l2598 0E09                       l2688 0D35                       l1992 05EF  
                     l1984 05BF                       l1976 05A4                       l1968 0595  
                     l1896 0451                       l1888 0431                       l1994 05F7  
                     l1986 05C3                       l1898 0471                       l1996 05FC  
                     l1988 05E1                       l1998 05FD          ?_LCD_Write_Nibble 0070  
                     ?_isr 0070                       STR_1 0806                       u2000 05AB  
                     u2001 05AA                       u2010 05B1                       u2011 05B0  
                     u2020 05C3                       u2021 05C2                       u2030 05D2  
                     u2040 05E1                       u2041 05E0                       u3001 0295  
                     u2050 05EA                       u3002 029C                       u2051 05E9  
                     u2035 05CD                       u3003 02A3                       u2060 05EF  
                     u3100 0313                       u2061 05EE                       u3101 0312  
                     u1350 0C12                       u2070 05FC                       u3110 0322  
                     u3030 02C7                       u1351 0C11                       u2071 05FB  
                     u3031 02C6                       u3015 02A5                       u1360 0C18  
                     u1520 0D7B                       u2080 0601                       u3120 033F  
                     u1600 07C3                       u1361 0C17                       u1521 0D7A  
                     u2081 0600                       u3121 033E                       u3025 02BC  
                     u1601 07C2                       u1530 0C70                       u2090 0612  
                     u3130 0359                       u3050 02DB                       u1531 0C6F  
                     u1515 0D5D                       u2091 0611                       u3131 0358  
                     u3115 031D                       u3051 02DA                       u1380 0CC1  
                     u1700 03DC                       u3140 0377                       u3060 02E0  
                     u1620 07D4                       u1540 0776                       u1381 0CC0  
                     u1701 03DB                       u3141 0376                       u3125 033B  
                     u3061 02DF                       u3045 02CA                       u1621 07D3  
                     u1541 0775                       u1390 0CC7                       u1710 03F5  
                     u3070 02F4                       u1630 07D9                       u1550 078D  
                     u2510 0661                       u3150 0EC9                       u1391 0CC6  
                     u1375 0CAF                       u1711 03F4                       u3135 0355  
                     u3071 02F3                       u1631 07D8                       u1615 07C6  
                     u2511 0660                       u3207 0E46                       u1800 049A  
                     u1720 03F9                       u1640 039D                       u3080 02FB  
                     u1560 07A3                       u2600 06C6                       u3160 0EE2  
                     u1801 0499                       u1721 03F8                       u1641 039C  
                     u3081 02FA                       u1561 07A2                       u2601 06C5  
                     u2505 0653                       u3217 0EA4                       u1810 049F  
                     u1730 0451                       u1650 03A3                       u3090 0301  
                     u1570 07AA                       u2530 0683                       u3170 0F3C  
                     u3307 0754                       u1811 049E                       u1731 0450  
                     u1651 03A2                       u3091 0300                       u1571 07A9  
                     u1555 0788                       u2531 0682                       u3227 0FF5  
                     u3171 0F3B                       u3155 0EC4                       u1900 0544  
                     u1740 045C                       u1660 03A8                       u3180 0F4B  
                     u3317 0764                       u3237 06E3                       u1901 0543  
                     u1821 04B1                       u1741 045A                       u1661 03A7  
                     u2525 0675                       u3181 0F4A                       u3165 0EDD  
                     u2710 0DBD                       u1910 0569                       u1830 04C3  
                     u1822 04B8                       u1750 045D                       u1670 03C6  
                     u1590 07BC                       u2550 0693                       u2470 061C  
                     u3190 0F70                       u2711 0DBC                       u3327 0CCB  
                     u3247 06F4                       u1911 0568                       u1831 04C2  
                     u1823 04BF                       u1735 044D                       u1671 03C5  
                     u1591 07BB                       u2551 0692                       u2471 061B  
                     u1920 056E                       u1840 04C7                       u1760 0471  
                     u1680 03D1                       u2800 0047                       u2560 0699  
                     u2480 0620                       u2705 0DA4                       u3337 0C4E  
                     u3257 0704                       u1921 056D                       u1841 04C6  
                     u1761 0470                       u1681 03D0                       u2801 0046  
                     u1585 07AC                       u2561 0698                       u2545 0688  
                     u2481 061F                       u3185 0F47                       u2730 0DDB  
                     u1850 04D6                       u1770 0480                       u1690 03D7  
                     u2810 0068                       u2570 069D                       u2490 0640  
                     u2731 0DDA                       u2715 0DB9                       u3267 0714  
                     u1851 04D5                       u1771 047F                       u1691 03D6  
                     u2811 0067                       u2571 069C                       u2491 063F  
                     u3195 0F6B                       u1940 0584                       u2740 0C8A  
                     u2820 006E                       u2580 06B2                       u2725 0DCD  
                     u3277 0724                       u1941 0583                       u2741 0C89  
                     u2821 006D                       u2670 0D8E                       u1950 0589  
                     u1870 04FB                       u1790 0496                       u2830 0073  
                     u2590 06C2                       u2671 0D8D                       u3287 0734  
                     u1951 0588                       u1935 0579                       u1871 04FA  
                     u1791 0495                       u2911 017A                       u2831 0072  
                     u2591 06C1                       u1960 0593                       u2760 0C9E  
                     u2912 0181                       u2840 008A                       u3297 0744  
                     u1961 0592                       u1881 0512                       u1873 04F7  
                     u1865 04D9                       u1785 0483                       u2761 0C9D  
                     u2921 01A7                       u2913 0188                       u2905 0154  
                     u2841 0089                       u2585 06AD                       u2690 0DA2  
                     u2770 0CE8                       u1970 0599                       u1890 0526  
                     u1882 0513                       u2922 01AE                       u2850 008F  
                     u2691 0DA1                       u1971 0598                       u1891 0527  
                     u1883 0518                       u2755 0C91                       u2923 01B5  
                     u2851 008E                       _PEIE 005E                       u1980 059E  
                     u1892 052C                       u1884 0519                       u2780 003C  
                     u2685 0D93                       u1981 059D                       u1893 052D  
                     u1885 051E                       u2941 01DD                       u2861 00E0  
                     u2781 003B                       u1990 05A4                       u1886 051F  
                     u2942 01E4                       u2862 00E7                       u2790 0042  
                     u2775 0CE3                       u1991 05A3                       u2951 020A  
                     u2943 01EB                       u2935 01B7                       u2871 00FC  
                     u2863 00EE                       u2791 0041                       u2952 0211  
                     u2872 0103                       u2961 0237                       u2953 0218  
                     u2881 0128                       u2873 010A                       u2970 0261  
                     u2962 023E                       u2882 012F                       u2963 0245  
                     u2891 0144                       u2883 0136                       u2892 014B  
                     u2981 026D                       u2893 0152                       u2990 0289  
                     u2982 0274                       i1l63 0BE0                       u2983 027B  
                     u2975 025C                       u2995 0284         ??_LCD_Write_Nibble 0074  
                     _main 0DE4         __size_of_LCD_Begin 0099                       btemp 007E  
       __size_of_LCD_Print 003B                       start 000C                LCD_Goto@col 0022  
              LCD_Goto@row 0079                      ??_isr 0070           __end_of_LCD_Goto 0D41  
         ?_I2C_Master_Init 0026           ?_I2C_Master_Read 0070           ?_I2C_Master_Wait 0070  
         ?_I2C_Master_Stop 0070              ___fltol@sign1 0049            __end_of___fladd 0614  
                    ?_main 0070            __end_of___flmul 038C            __end_of___fltol 07E5  
                    _ANSEL 0188            __end_of___lldiv 0DE4                      _RCREG 001A  
                    _SPBRG 0099                      _PORTA 0005                      _PORTC 0007  
                    _PORTD 0008                      _TRISA 0085                      _TRISC 0087  
                    _TRISD 0088                      _SSPIE 0463                      _SSPIF 0063  
                    _TXREG 0019             __pbitbssCOMMON 03D0                      pclath 000A  
                    status 0003                      wtemp0 007E                ?_USART_Init 0070  
          __initialization 000F               __end_of_main 1000                     ??_main 0054  
        __end_of_LCD_Begin 0769                  ??_LCD_Cmd 0076          __end_of_LCD_Print 0D7C  
        ?_I2C_Master_Start 0070          ?_I2C_Master_Write 0070         ??_I2C_Master_Start 0072  
       ??_I2C_Master_Write 0072                     _ANSELH 0189                     _SPBRGH 009A  
                   _SSPADD 0093                     _TRISC3 043B                     _TRISC4 043C  
                   _SSPCON 0014                     _SSPBUF 0013           __end_of___xxtofl 06D0  
                ??___fladd 0048                  ??___flmul 002E                  ??___fltol 0044  
                ??___lldiv 0020                     _entero 006E    __size_of_Expander_Write 001B  
             __pdataCOMMON 007B         __size_of__Umul8_16 0029                     saved_w 007E  
      __size_of_USART_Init 0015               ___xxtofl@arg 0022               ___xxtofl@exp 0021  
             ___xxtofl@val 0072    __end_of__initialization 0027                  ?_LCD_Goto 0079  
               ___fltol@f1 0040              _backlight_val 007B             __pcstackCOMMON 0070  
           LCD_Cmd@Command 0078                 __pbssBANK0 0062                 __pbssBANK1 00A0  
               ??_LCD_Goto 0020          __end_of__Umul8_16 0CA3                 __pmaintext 0DE4  
__size_of_LCD_Write_Nibble 0024                 __pintentry 0004                _Raw_humedad 00A8  
                  _LCD_Cmd 0CA3                  ?___xxtofl 0072                    _SSPCON2 0091  
                  _SSPSTAT 0094                 __stringtab 0800               ??_USART_Init 0072  
      Expander_Write@value 0073                    ___fladd 038C                    ___flmul 002B  
                  ___fltol 0769                    ___lldiv 0D7C                    _decimal 006D  
                  __ptext1 0614                    __ptext2 0769                    __ptext3 002B  
                  __ptext4 0C7A                    __ptext5 038C                    __ptext6 0C19  
                  __ptext7 0D41                    __ptext8 0D09                    __ptext9 06D0  
           _Expander_Write 07E5               __size_of_isr 0007                 ??___xxtofl 0076  
                  _humedad 0068   __size_of_I2C_Master_Init 0038   __size_of_I2C_Master_Read 0028  
 __size_of_I2C_Master_Wait 000D                  _LCD_Begin 06D0   __size_of_I2C_Master_Stop 0009  
       __end_of_USART_Init 0C2E                  _LCD_Print 0D41                    clrloop0 0BE8  
     end_of_initialization 0027  __size_of_I2C_Master_Start 0009  __size_of_I2C_Master_Write 000B  
          ___lldiv@divisor 0072            ___lldiv@counter 0025                  _RCSTAbits 0018  
         I2C_Master_Init@c 0026           I2C_Master_Read@a 0073          LCD_Write_Nibble@n 0075  
   __end_of_Expander_Write 0800                ___fladd@grs 0053              ___xxtofl@sign 0020  
                _TRISCbits 0087                 ?_LCD_Begin 0070                 ?_LCD_Print 0070  
              ___flmul@grs 0035                  _TXSTAbits 0098          __size_of_LCD_Goto 0038  
         _LCD_Write_Nibble 0C2E                 LCD_Print@i 0078              __pidataCOMMON 0003  
          ?_Expander_Write 0070                _BAUDCTLbits 0187        start_initialization 000F  
              __end_of_isr 0BE7          ??_I2C_Master_Init 002A          ??_I2C_Master_Read 0072  
        ??_I2C_Master_Wait 0072          ??_I2C_Master_Stop 0072                  __Umul8_16 0C7A  
                ___fladd@a 0044                  ___fladd@b 0040                   ?_LCD_Cmd 0070  
                ___flmul@a 002A                  ___flmul@b 0026                  ___latbits 0002  
            __pcstackBANK0 0020                ??_LCD_Begin 0020          __size_of___xxtofl 00BC  
              ??_LCD_Print 0076                  __pnvBANK0 006F           _I2C_Master_Start 0BEF  
         _I2C_Master_Write 0C01                   ?___fladd 0040                   ?___flmul 0026  
                 ?___fltol 0040                   ?___lldiv 0072                 ?__Umul8_16 0072  
         LCD_Print@LCD_Str 0077                  __pstrings 0800          interrupt_function 0004  
                 _LCD_Goto 0D09                  clear_ram0 0BE7                __stringbase 0805  
         __size_of_LCD_Cmd 002E        I2C_Master_Read@temp 0074   __end_of_LCD_Write_Nibble 0C52  
                 _i2c_addr 006F           ??_Expander_Write 0073                ??__Umul8_16 0074  
         __size_of___fladd 0288           __size_of___flmul 0361           __size_of___fltol 007C  
         __size_of___lldiv 0068            _Raw_temperatura 00A4         __end_of__stringtab 0806  
          _I2C_Master_Init 0CD1            _I2C_Master_Read 0C52                   ___xxtofl 0614  
          _I2C_Master_Wait 0C0C            _I2C_Master_Stop 0BF8                   __ptext10 0CA3  
                 __ptext11 0C2E                   __ptext20 0BE0                   __ptext12 07E5  
                 __ptext13 0C01                   __ptext14 0BF8                   __ptext15 0BEF  
                 __ptext16 0C52                   __ptext17 0C0C                   __ptext18 0CD1  
                 __ptext19 0D7C              __size_of_main 021C   __end_of_I2C_Master_Start 0BF8  
 __end_of_I2C_Master_Write 0C0C         LCD_Begin@_i2c_addr 0079                   intlevel1 0000  
         ___lldiv@dividend 0076                  stringcode 0800                 _OSCCONbits 008F  
  __end_of_I2C_Master_Init 0D09    __end_of_I2C_Master_Read 0C7A    __end_of_I2C_Master_Wait 0C19  
  __end_of_I2C_Master_Stop 0C01     __Umul8_16@multiplicand 0072                _temperatura 00A0  
         ___lldiv@quotient 0021          I2C_Master_Write@d 0072                   stringdir 0800  
                 stringtab 0800                _SSPCON2bits 0091              ___fladd@signs 0050  
             ___fladd@aexp 0051               ___fladd@bexp 0052       __Umul8_16@multiplier 0024  
               _USART_Init 0C19          __Umul8_16@product 0020  
