

Microchip MPLAB XC8 Assembler V2.31 build 20201012212115 
                                                                                               Mon Aug 23 17:35:28 2021

Microchip MPLAB XC8 C Compiler v2.31 (Free license) build 20201012212115 Og1 
     1                           	processor	16F887
     2                           	pagewidth 120
     3                           	opt	flic
     4                           	psect	stringtext,global,reloc=256,class=STRCODE,delta=2,noexec
     5                           	psect	cinit,global,class=CODE,merge=1,delta=2
     6                           	psect	bssCOMMON,global,class=COMMON,space=1,delta=1,noexec
     7                           	psect	bssBANK1,global,class=BANK1,space=1,delta=1,noexec
     8                           	psect	bssBANK3,global,class=BANK3,space=1,delta=1,noexec
     9                           	psect	clrtext,global,class=CODE,delta=2
    10                           	psect	cstackBANK1,global,class=BANK1,space=1,delta=1,noexec
    11                           	psect	cstackCOMMON,global,class=COMMON,space=1,delta=1,noexec
    12                           	psect	cstackBANK0,global,class=BANK0,space=1,delta=1,noexec
    13                           	psect	maintext,global,class=CODE,split=1,delta=2
    14                           	psect	text1,local,class=CODE,merge=1,delta=2,group=1
    15                           	psect	text2,local,class=CODE,merge=1,delta=2,group=1
    16                           	psect	text3,local,class=CODE,merge=1,delta=2,group=2
    17                           	psect	text4,local,class=CODE,merge=1,delta=2,group=2
    18                           	psect	text5,local,class=CODE,merge=1,delta=2,group=3
    19                           	psect	text6,local,class=CODE,merge=1,delta=2,group=1
    20                           	psect	text7,local,class=CODE,merge=1,delta=2,group=2
    21                           	psect	text8,local,class=CODE,merge=1,delta=2,group=2
    22                           	psect	text9,local,class=CODE,merge=1,delta=2,group=2
    23                           	psect	text10,local,class=CODE,merge=1,delta=2,group=2
    24                           	psect	text11,local,class=CODE,merge=1,delta=2,group=2
    25                           	psect	text12,local,class=CODE,merge=1,delta=2,group=2
    26                           	psect	text13,local,class=CODE,merge=1,delta=2,group=2
    27                           	psect	text14,local,class=CODE,merge=1,delta=2,group=2
    28                           	psect	text15,local,class=CODE,merge=1,delta=2,group=2
    29                           	psect	text16,local,class=CODE,merge=1,delta=2,group=2
    30                           	psect	text17,local,class=CODE,merge=1,delta=2,group=2
    31                           	psect	text18,local,class=CODE,merge=1,delta=2,group=2
    32                           	psect	text19,local,class=CODE,merge=1,delta=2,group=2
    33                           	psect	text20,local,class=CODE,merge=1,delta=2,group=2
    34                           	psect	text21,local,class=CODE,merge=1,delta=2,group=2
    35                           	psect	text22,local,class=CODE,merge=1,delta=2,group=2
    36                           	psect	text23,local,class=CODE,merge=1,delta=2
    37                           	psect	text24,local,class=CODE,merge=1,delta=2
    38                           	psect	text25,local,class=CODE,merge=1,delta=2
    39                           	psect	text26,local,class=CODE,merge=1,delta=2
    40                           	psect	text27,local,class=CODE,merge=1,delta=2
    41                           	psect	text28,local,class=CODE,merge=1,delta=2
    42                           	psect	text29,local,class=CODE,merge=1,delta=2
    43                           	psect	text30,local,class=CODE,merge=1,delta=2
    44                           	psect	text31,local,class=CODE,merge=1,delta=2
    45                           	psect	text32,local,class=CODE,merge=1,delta=2
    46                           	psect	intentry,global,class=CODE,delta=2
    47                           	psect	config,global,abs,ovrld,class=CONFIG,space=4,delta=2,noexec
    48                           	psect	text1_split_1,local,class=CODE,merge=1,delta=2
    49                           	dabs	1,0x7E,2
    50  0000                     
    51                           ; Version 2.20
    52                           ; Generated 12/02/2020 GMT
    53                           ; 
    54                           ; Copyright © 2020, Microchip Technology Inc. and its subsidiaries ("Microchip")
    55                           ; All rights reserved.
    56                           ; 
    57                           ; This software is developed by Microchip Technology Inc. and its subsidiaries ("Microch
      +                          ip").
    58                           ; 
    59                           ; Redistribution and use in source and binary forms, with or without modification, are
    60                           ; permitted provided that the following conditions are met:
    61                           ; 
    62                           ;     1. Redistributions of source code must retain the above copyright notice, this lis
      +                          t of
    63                           ;        conditions and the following disclaimer.
    64                           ; 
    65                           ;     2. Redistributions in binary form must reproduce the above copyright notice, this 
      +                          list
    66                           ;        of conditions and the following disclaimer in the documentation and/or other
    67                           ;        materials provided with the distribution.
    68                           ; 
    69                           ;     3. Microchip's name may not be used to endorse or promote products derived from th
      +                          is
    70                           ;        software without specific prior written permission.
    71                           ; 
    72                           ; THIS SOFTWARE IS PROVIDED BY MICROCHIP "AS IS" AND ANY EXPRESS OR IMPLIED WARRANTIES,
    73                           ; INCLUDING, BUT NOT LIMITED TO, THE IMPLIED WARRANTIES OF MERCHANTABILITY AND FITNESS F
      +                          OR
    74                           ; PURPOSE ARE DISCLAIMED.  IN NO EVENT SHALL MICROCHIP BE LIABLE FOR ANY DIRECT, INDIREC
      +                          T,
    75                           ; INCIDENTAL, SPECIAL, EXEMPLARY, OR CONSEQUENTIAL DAMAGES (INCLUDING BUT NOT LIMITED TO
    76                           ; PROCUREMENT OF SUBSTITUTE GOODS OR SERVICES; LOSS OF USE, DATA OR PROFITS; OR BUSINESS
    77                           ; INTERRUPTION) HOWSOEVER CAUSED AND ON ANY THEORY OF LIABILITY, WHETHER IN CONTRACT, ST
      +                          RICT
    78                           ; LIABILITY, OR TORT (INCLUDING NEGLIGENCE OR OTHERWISE) ARISING IN ANY WAY OUT OF THE U
      +                          SE OF
    79                           ; THIS SOFTWARE, EVEN IF ADVISED OF THE POSSIBILITY OF SUCH DAMAGE.
    80                           ; 
    81                           ; 
    82                           ; Code-generator required, PIC16F887 Definitions
    83                           ; 
    84                           ; SFR Addresses
    85  0000                     	;# 
    86  0001                     	;# 
    87  0002                     	;# 
    88  0003                     	;# 
    89  0004                     	;# 
    90  0005                     	;# 
    91  0006                     	;# 
    92  0007                     	;# 
    93  0008                     	;# 
    94  0009                     	;# 
    95  000A                     	;# 
    96  000B                     	;# 
    97  000C                     	;# 
    98  000D                     	;# 
    99  000E                     	;# 
   100  000E                     	;# 
   101  000F                     	;# 
   102  0010                     	;# 
   103  0011                     	;# 
   104  0012                     	;# 
   105  0013                     	;# 
   106  0014                     	;# 
   107  0015                     	;# 
   108  0015                     	;# 
   109  0016                     	;# 
   110  0017                     	;# 
   111  0018                     	;# 
   112  0019                     	;# 
   113  001A                     	;# 
   114  001B                     	;# 
   115  001B                     	;# 
   116  001C                     	;# 
   117  001D                     	;# 
   118  001E                     	;# 
   119  001F                     	;# 
   120  0081                     	;# 
   121  0085                     	;# 
   122  0086                     	;# 
   123  0087                     	;# 
   124  0088                     	;# 
   125  0089                     	;# 
   126  008C                     	;# 
   127  008D                     	;# 
   128  008E                     	;# 
   129  008F                     	;# 
   130  0090                     	;# 
   131  0091                     	;# 
   132  0092                     	;# 
   133  0093                     	;# 
   134  0093                     	;# 
   135  0093                     	;# 
   136  0094                     	;# 
   137  0095                     	;# 
   138  0096                     	;# 
   139  0097                     	;# 
   140  0098                     	;# 
   141  0099                     	;# 
   142  009A                     	;# 
   143  009B                     	;# 
   144  009C                     	;# 
   145  009D                     	;# 
   146  009E                     	;# 
   147  009F                     	;# 
   148  0105                     	;# 
   149  0107                     	;# 
   150  0108                     	;# 
   151  0109                     	;# 
   152  010C                     	;# 
   153  010C                     	;# 
   154  010D                     	;# 
   155  010E                     	;# 
   156  010F                     	;# 
   157  0185                     	;# 
   158  0187                     	;# 
   159  0188                     	;# 
   160  0189                     	;# 
   161  018C                     	;# 
   162  018D                     	;# 
   163  0000                     	;# 
   164  0001                     	;# 
   165  0002                     	;# 
   166  0003                     	;# 
   167  0004                     	;# 
   168  0005                     	;# 
   169  0006                     	;# 
   170  0007                     	;# 
   171  0008                     	;# 
   172  0009                     	;# 
   173  000A                     	;# 
   174  000B                     	;# 
   175  000C                     	;# 
   176  000D                     	;# 
   177  000E                     	;# 
   178  000E                     	;# 
   179  000F                     	;# 
   180  0010                     	;# 
   181  0011                     	;# 
   182  0012                     	;# 
   183  0013                     	;# 
   184  0014                     	;# 
   185  0015                     	;# 
   186  0015                     	;# 
   187  0016                     	;# 
   188  0017                     	;# 
   189  0018                     	;# 
   190  0019                     	;# 
   191  001A                     	;# 
   192  001B                     	;# 
   193  001B                     	;# 
   194  001C                     	;# 
   195  001D                     	;# 
   196  001E                     	;# 
   197  001F                     	;# 
   198  0081                     	;# 
   199  0085                     	;# 
   200  0086                     	;# 
   201  0087                     	;# 
   202  0088                     	;# 
   203  0089                     	;# 
   204  008C                     	;# 
   205  008D                     	;# 
   206  008E                     	;# 
   207  008F                     	;# 
   208  0090                     	;# 
   209  0091                     	;# 
   210  0092                     	;# 
   211  0093                     	;# 
   212  0093                     	;# 
   213  0093                     	;# 
   214  0094                     	;# 
   215  0095                     	;# 
   216  0096                     	;# 
   217  0097                     	;# 
   218  0098                     	;# 
   219  0099                     	;# 
   220  009A                     	;# 
   221  009B                     	;# 
   222  009C                     	;# 
   223  009D                     	;# 
   224  009E                     	;# 
   225  009F                     	;# 
   226  0105                     	;# 
   227  0107                     	;# 
   228  0108                     	;# 
   229  0109                     	;# 
   230  010C                     	;# 
   231  010C                     	;# 
   232  010D                     	;# 
   233  010E                     	;# 
   234  010F                     	;# 
   235  0185                     	;# 
   236  0187                     	;# 
   237  0188                     	;# 
   238  0189                     	;# 
   239  018C                     	;# 
   240  018D                     	;# 
   241  0000                     	;# 
   242  0001                     	;# 
   243  0002                     	;# 
   244  0003                     	;# 
   245  0004                     	;# 
   246  0005                     	;# 
   247  0006                     	;# 
   248  0007                     	;# 
   249  0008                     	;# 
   250  0009                     	;# 
   251  000A                     	;# 
   252  000B                     	;# 
   253  000C                     	;# 
   254  000D                     	;# 
   255  000E                     	;# 
   256  000E                     	;# 
   257  000F                     	;# 
   258  0010                     	;# 
   259  0011                     	;# 
   260  0012                     	;# 
   261  0013                     	;# 
   262  0014                     	;# 
   263  0015                     	;# 
   264  0015                     	;# 
   265  0016                     	;# 
   266  0017                     	;# 
   267  0018                     	;# 
   268  0019                     	;# 
   269  001A                     	;# 
   270  001B                     	;# 
   271  001B                     	;# 
   272  001C                     	;# 
   273  001D                     	;# 
   274  001E                     	;# 
   275  001F                     	;# 
   276  0081                     	;# 
   277  0085                     	;# 
   278  0086                     	;# 
   279  0087                     	;# 
   280  0088                     	;# 
   281  0089                     	;# 
   282  008C                     	;# 
   283  008D                     	;# 
   284  008E                     	;# 
   285  008F                     	;# 
   286  0090                     	;# 
   287  0091                     	;# 
   288  0092                     	;# 
   289  0093                     	;# 
   290  0093                     	;# 
   291  0093                     	;# 
   292  0094                     	;# 
   293  0095                     	;# 
   294  0096                     	;# 
   295  0097                     	;# 
   296  0098                     	;# 
   297  0099                     	;# 
   298  009A                     	;# 
   299  009B                     	;# 
   300  009C                     	;# 
   301  009D                     	;# 
   302  009E                     	;# 
   303  009F                     	;# 
   304  0105                     	;# 
   305  0107                     	;# 
   306  0108                     	;# 
   307  0109                     	;# 
   308  010C                     	;# 
   309  010C                     	;# 
   310  010D                     	;# 
   311  010E                     	;# 
   312  010F                     	;# 
   313  0185                     	;# 
   314  0187                     	;# 
   315  0188                     	;# 
   316  0189                     	;# 
   317  018C                     	;# 
   318  018D                     	;# 
   319  0000                     	;# 
   320  0001                     	;# 
   321  0002                     	;# 
   322  0003                     	;# 
   323  0004                     	;# 
   324  0005                     	;# 
   325  0006                     	;# 
   326  0007                     	;# 
   327  0008                     	;# 
   328  0009                     	;# 
   329  000A                     	;# 
   330  000B                     	;# 
   331  000C                     	;# 
   332  000D                     	;# 
   333  000E                     	;# 
   334  000E                     	;# 
   335  000F                     	;# 
   336  0010                     	;# 
   337  0011                     	;# 
   338  0012                     	;# 
   339  0013                     	;# 
   340  0014                     	;# 
   341  0015                     	;# 
   342  0015                     	;# 
   343  0016                     	;# 
   344  0017                     	;# 
   345  0018                     	;# 
   346  0019                     	;# 
   347  001A                     	;# 
   348  001B                     	;# 
   349  001B                     	;# 
   350  001C                     	;# 
   351  001D                     	;# 
   352  001E                     	;# 
   353  001F                     	;# 
   354  0081                     	;# 
   355  0085                     	;# 
   356  0086                     	;# 
   357  0087                     	;# 
   358  0088                     	;# 
   359  0089                     	;# 
   360  008C                     	;# 
   361  008D                     	;# 
   362  008E                     	;# 
   363  008F                     	;# 
   364  0090                     	;# 
   365  0091                     	;# 
   366  0092                     	;# 
   367  0093                     	;# 
   368  0093                     	;# 
   369  0093                     	;# 
   370  0094                     	;# 
   371  0095                     	;# 
   372  0096                     	;# 
   373  0097                     	;# 
   374  0098                     	;# 
   375  0099                     	;# 
   376  009A                     	;# 
   377  009B                     	;# 
   378  009C                     	;# 
   379  009D                     	;# 
   380  009E                     	;# 
   381  009F                     	;# 
   382  0105                     	;# 
   383  0107                     	;# 
   384  0108                     	;# 
   385  0109                     	;# 
   386  010C                     	;# 
   387  010C                     	;# 
   388  010D                     	;# 
   389  010E                     	;# 
   390  010F                     	;# 
   391  0185                     	;# 
   392  0187                     	;# 
   393  0188                     	;# 
   394  0189                     	;# 
   395  018C                     	;# 
   396  018D                     	;# 
   397  0000                     	;# 
   398  0001                     	;# 
   399  0002                     	;# 
   400  0003                     	;# 
   401  0004                     	;# 
   402  0005                     	;# 
   403  0006                     	;# 
   404  0007                     	;# 
   405  0008                     	;# 
   406  0009                     	;# 
   407  000A                     	;# 
   408  000B                     	;# 
   409  000C                     	;# 
   410  000D                     	;# 
   411  000E                     	;# 
   412  000E                     	;# 
   413  000F                     	;# 
   414  0010                     	;# 
   415  0011                     	;# 
   416  0012                     	;# 
   417  0013                     	;# 
   418  0014                     	;# 
   419  0015                     	;# 
   420  0015                     	;# 
   421  0016                     	;# 
   422  0017                     	;# 
   423  0018                     	;# 
   424  0019                     	;# 
   425  001A                     	;# 
   426  001B                     	;# 
   427  001B                     	;# 
   428  001C                     	;# 
   429  001D                     	;# 
   430  001E                     	;# 
   431  001F                     	;# 
   432  0081                     	;# 
   433  0085                     	;# 
   434  0086                     	;# 
   435  0087                     	;# 
   436  0088                     	;# 
   437  0089                     	;# 
   438  008C                     	;# 
   439  008D                     	;# 
   440  008E                     	;# 
   441  008F                     	;# 
   442  0090                     	;# 
   443  0091                     	;# 
   444  0092                     	;# 
   445  0093                     	;# 
   446  0093                     	;# 
   447  0093                     	;# 
   448  0094                     	;# 
   449  0095                     	;# 
   450  0096                     	;# 
   451  0097                     	;# 
   452  0098                     	;# 
   453  0099                     	;# 
   454  009A                     	;# 
   455  009B                     	;# 
   456  009C                     	;# 
   457  009D                     	;# 
   458  009E                     	;# 
   459  009F                     	;# 
   460  0105                     	;# 
   461  0107                     	;# 
   462  0108                     	;# 
   463  0109                     	;# 
   464  010C                     	;# 
   465  010C                     	;# 
   466  010D                     	;# 
   467  010E                     	;# 
   468  010F                     	;# 
   469  0185                     	;# 
   470  0187                     	;# 
   471  0188                     	;# 
   472  0189                     	;# 
   473  018C                     	;# 
   474  018D                     	;# 
   475                           
   476                           	psect	stringtext
   477  0000'                    __pstringtext:
   478  0000'                    stringtab:
   479  0000'                    __stringtab:
   480                           
   481                           ;	String table - string pointers are 2 bytes each
   482  0000' 1BFF               	btfsc	btemp+1,7
   483  0001' 2800'              	ljmp	stringcode
   484  0002' 1383               	bcf	3,7
   485  0003' 187F               	btfsc	btemp+1,0
   486  0004' 1783               	bsf	3,7
   487  0005' 0800               	movf	0,w
   488  0006' 0A84               	incf	4,f
   489  0007' 1903               	skipnz
   490  0008' 0AFF               	incf	btemp+1,f
   491  0009' 0008               	return
   492  000A'                    stringcode:
   493  000A' 087F               	movf	btemp+1,w
   494  000B' 397F               	andlw	127
   495  000C' 008A               	movwf	10
   496  000D' 0804               	movf	4,w
   497  000E' 0A84               	incf	4,f
   498  000F' 1903               	skipnz
   499  0010' 0AFF               	incf	btemp+1,f
   500  0011' 0082               	movwf	2
   501  0012'                    __stringbase:
   502  0012'                    __end_of__stringtab:
   503  0012'                    __powers_:
   504  0012' 3400               	retlw	0
   505  0013' 3400               	retlw	0
   506  0014' 3480               	retlw	128
   507  0015' 343F               	retlw	63
   508  0016' 3400               	retlw	0
   509  0017' 3400               	retlw	0
   510  0018' 3420               	retlw	32
   511  0019' 3441               	retlw	65
   512  001A' 3400               	retlw	0
   513  001B' 3400               	retlw	0
   514  001C' 34C8               	retlw	200
   515  001D' 3442               	retlw	66
   516  001E' 3400               	retlw	0
   517  001F' 3400               	retlw	0
   518  0020' 347A               	retlw	122
   519  0021' 3444               	retlw	68
   520  0022' 3400               	retlw	0
   521  0023' 3440               	retlw	64
   522  0024' 341C               	retlw	28
   523  0025' 3446               	retlw	70
   524  0026' 3400               	retlw	0
   525  0027' 3450               	retlw	80
   526  0028' 34C3               	retlw	195
   527  0029' 3447               	retlw	71
   528  002A' 3400               	retlw	0
   529  002B' 3424               	retlw	36
   530  002C' 3474               	retlw	116
   531  002D' 3449               	retlw	73
   532  002E' 3480               	retlw	128
   533  002F' 3496               	retlw	150
   534  0030' 3418               	retlw	24
   535  0031' 344B               	retlw	75
   536  0032' 3420               	retlw	32
   537  0033' 34BC               	retlw	188
   538  0034' 34BE               	retlw	190
   539  0035' 344C               	retlw	76
   540  0036' 3428               	retlw	40
   541  0037' 346B               	retlw	107
   542  0038' 346E               	retlw	110
   543  0039' 344E               	retlw	78
   544  003A' 34F9               	retlw	249
   545  003B' 3402               	retlw	2
   546  003C' 3415               	retlw	21
   547  003D' 3450               	retlw	80
   548  003E' 34EC               	retlw	236
   549  003F' 3478               	retlw	120
   550  0040' 34AD               	retlw	173
   551  0041' 3460               	retlw	96
   552  0042' 34CA               	retlw	202
   553  0043' 34F2               	retlw	242
   554  0044' 3449               	retlw	73
   555  0045' 3471               	retlw	113
   556  0046'                    __end_of__powers_:
   557  0046'                    __npowers_:
   558  0046' 3400               	retlw	0
   559  0047' 3400               	retlw	0
   560  0048' 3480               	retlw	128
   561  0049' 343F               	retlw	63
   562  004A' 34CD               	retlw	205
   563  004B' 34CC               	retlw	204
   564  004C' 34CC               	retlw	204
   565  004D' 343D               	retlw	61
   566  004E' 340A               	retlw	10
   567  004F' 34D7               	retlw	215
   568  0050' 3423               	retlw	35
   569  0051' 343C               	retlw	60
   570  0052' 346F               	retlw	111
   571  0053' 3412               	retlw	18
   572  0054' 3483               	retlw	131
   573  0055' 343A               	retlw	58
   574  0056' 3417               	retlw	23
   575  0057' 34B7               	retlw	183
   576  0058' 34D1               	retlw	209
   577  0059' 3438               	retlw	56
   578  005A' 34AC               	retlw	172
   579  005B' 34C5               	retlw	197
   580  005C' 3427               	retlw	39
   581  005D' 3437               	retlw	55
   582  005E' 34BD               	retlw	189
   583  005F' 3437               	retlw	55
   584  0060' 3486               	retlw	134
   585  0061' 3435               	retlw	53
   586  0062' 3495               	retlw	149
   587  0063' 34BF               	retlw	191
   588  0064' 34D6               	retlw	214
   589  0065' 3433               	retlw	51
   590  0066' 3477               	retlw	119
   591  0067' 34CC               	retlw	204
   592  0068' 342B               	retlw	43
   593  0069' 3432               	retlw	50
   594  006A' 345F               	retlw	95
   595  006B' 3470               	retlw	112
   596  006C' 3489               	retlw	137
   597  006D' 3430               	retlw	48
   598  006E' 34FF               	retlw	255
   599  006F' 34E6               	retlw	230
   600  0070' 34DB               	retlw	219
   601  0071' 342E               	retlw	46
   602  0072' 3408               	retlw	8
   603  0073' 34E5               	retlw	229
   604  0074' 343C               	retlw	60
   605  0075' 341E               	retlw	30
   606  0076' 3460               	retlw	96
   607  0077' 3442               	retlw	66
   608  0078' 34A2               	retlw	162
   609  0079' 340D               	retlw	13
   610  007A'                    __end_of__npowers_:
   611  007A'                    _dpowers:
   612  007A' 3401               	retlw	1
   613  007B' 3400               	retlw	0
   614  007C' 3400               	retlw	0
   615  007D' 3400               	retlw	0
   616  007E' 340A               	retlw	10
   617  007F' 3400               	retlw	0
   618  0080' 3400               	retlw	0
   619  0081' 3400               	retlw	0
   620  0082' 3464               	retlw	100
   621  0083' 3400               	retlw	0
   622  0084' 3400               	retlw	0
   623  0085' 3400               	retlw	0
   624  0086' 34E8               	retlw	232
   625  0087' 3403               	retlw	3
   626  0088' 3400               	retlw	0
   627  0089' 3400               	retlw	0
   628  008A' 3410               	retlw	16
   629  008B' 3427               	retlw	39
   630  008C' 3400               	retlw	0
   631  008D' 3400               	retlw	0
   632  008E' 34A0               	retlw	160
   633  008F' 3486               	retlw	134
   634  0090' 3401               	retlw	1
   635  0091' 3400               	retlw	0
   636  0092' 3440               	retlw	64
   637  0093' 3442               	retlw	66
   638  0094' 340F               	retlw	15
   639  0095' 3400               	retlw	0
   640  0096' 3480               	retlw	128
   641  0097' 3496               	retlw	150
   642  0098' 3498               	retlw	152
   643  0099' 3400               	retlw	0
   644  009A' 3400               	retlw	0
   645  009B' 34E1               	retlw	225
   646  009C' 34F5               	retlw	245
   647  009D' 3405               	retlw	5
   648  009E' 3400               	retlw	0
   649  009F' 34CA               	retlw	202
   650  00A0' 349A               	retlw	154
   651  00A1' 343B               	retlw	59
   652  00A2'                    __end_of_dpowers:
   653  001A                     _RCREG	set	26
   654  0019                     _TXREG	set	25
   655  0018                     _RCSTAbits	set	24
   656  0007                     _PORTCbits	set	7
   657  000C                     _PIR1bits	set	12
   658  001E                     _ADRESH	set	30
   659  0009                     _PORTE	set	9
   660  0008                     _PORTD	set	8
   661  0007                     _PORTC	set	7
   662  0005                     _PORTA	set	5
   663  001F                     _ADCON0bits	set	31
   664  009A                     _SPBRGH	set	154
   665  0099                     _SPBRG	set	153
   666  0098                     _TXSTAbits	set	152
   667  0087                     _TRISCbits	set	135
   668  009F                     _ADCON1bits	set	159
   669  008F                     _OSCCONbits	set	143
   670  0089                     _TRISE	set	137
   671  0088                     _TRISD	set	136
   672  0087                     _TRISC	set	135
   673  0085                     _TRISA	set	133
   674  0187                     _BAUDCTLbits	set	391
   675  0189                     _ANSELH	set	393
   676  0188                     _ANSEL	set	392
   677  00A2'                    STR_5:
   678  00A2' 340A               	retlw	10
   679  00A3' 340D               	retlw	13
   680  00A4' 340A               	retlw	10
   681  00A5' 340D               	retlw	13
   682  00A6' 342B               	retlw	43	;'+'
   683  00A7' 3420               	retlw	32	;' '
   684  00A8' 3470               	retlw	112	;'p'
   685  00A9' 3461               	retlw	97	;'a'
   686  00AA' 3472               	retlw	114	;'r'
   687  00AB' 3461               	retlw	97	;'a'
   688  00AC' 3420               	retlw	32	;' '
   689  00AD' 3461               	retlw	97	;'a'
   690  00AE' 3475               	retlw	117	;'u'
   691  00AF' 346D               	retlw	109	;'m'
   692  00B0' 3465               	retlw	101	;'e'
   693  00B1' 346E               	retlw	110	;'n'
   694  00B2' 3474               	retlw	116	;'t'
   695  00B3' 3461               	retlw	97	;'a'
   696  00B4' 3472               	retlw	114	;'r'
   697  00B5' 3420               	retlw	32	;' '
   698  00B6' 3463               	retlw	99	;'c'
   699  00B7' 346F               	retlw	111	;'o'
   700  00B8' 346E               	retlw	110	;'n'
   701  00B9' 3474               	retlw	116	;'t'
   702  00BA' 3461               	retlw	97	;'a'
   703  00BB' 3464               	retlw	100	;'d'
   704  00BC' 346F               	retlw	111	;'o'
   705  00BD' 3472               	retlw	114	;'r'
   706  00BE' 340A               	retlw	10
   707  00BF' 340D               	retlw	13
   708  00C0' 3400               	retlw	0
   709  00C1'                    STR_6:
   710  00C1' 342D               	retlw	45	;'-'
   711  00C2' 3420               	retlw	32	;' '
   712  00C3' 3470               	retlw	112	;'p'
   713  00C4' 3461               	retlw	97	;'a'
   714  00C5' 3472               	retlw	114	;'r'
   715  00C6' 3461               	retlw	97	;'a'
   716  00C7' 3420               	retlw	32	;' '
   717  00C8' 3464               	retlw	100	;'d'
   718  00C9' 3469               	retlw	105	;'i'
   719  00CA' 3473               	retlw	115	;'s'
   720  00CB' 346D               	retlw	109	;'m'
   721  00CC' 3469               	retlw	105	;'i'
   722  00CD' 346E               	retlw	110	;'n'
   723  00CE' 3475               	retlw	117	;'u'
   724  00CF' 3469               	retlw	105	;'i'
   725  00D0' 3472               	retlw	114	;'r'
   726  00D1' 3420               	retlw	32	;' '
   727  00D2' 3463               	retlw	99	;'c'
   728  00D3' 346F               	retlw	111	;'o'
   729  00D4' 346E               	retlw	110	;'n'
   730  00D5' 3474               	retlw	116	;'t'
   731  00D6' 3461               	retlw	97	;'a'
   732  00D7' 3464               	retlw	100	;'d'
   733  00D8' 346F               	retlw	111	;'o'
   734  00D9' 3472               	retlw	114	;'r'
   735  00DA' 340A               	retlw	10
   736  00DB' 340D               	retlw	13
   737  00DC' 340A               	retlw	10
   738  00DD' 340D               	retlw	13
   739  00DE' 3400               	retlw	0
   740  00DF'                    STR_8:
   741  00DF' 340A               	retlw	10
   742  00E0' 340D               	retlw	13
   743  00E1' 3456               	retlw	86	;'V'
   744  00E2' 346F               	retlw	111	;'o'
   745  00E3' 346C               	retlw	108	;'l'
   746  00E4' 3474               	retlw	116	;'t'
   747  00E5' 3461               	retlw	97	;'a'
   748  00E6' 346A               	retlw	106	;'j'
   749  00E7' 3465               	retlw	101	;'e'
   750  00E8' 3420               	retlw	32	;' '
   751  00E9' 3470               	retlw	112	;'p'
   752  00EA' 346F               	retlw	111	;'o'
   753  00EB' 3474               	retlw	116	;'t'
   754  00EC' 3432               	retlw	50	;'2'
   755  00ED' 343A               	retlw	58	;':'
   756  00EE' 3420               	retlw	32	;' '
   757  00EF' 3400               	retlw	0
   758  00F0'                    STR_4:
   759  00F0' 3453               	retlw	83	;'S'
   760  00F1' 3431               	retlw	49	;'1'
   761  00F2' 343A               	retlw	58	;':'
   762  00F3' 3420               	retlw	32	;' '
   763  00F4' 3420               	retlw	32	;' '
   764  00F5' 3420               	retlw	32	;' '
   765  00F6' 3453               	retlw	83	;'S'
   766  00F7' 3432               	retlw	50	;'2'
   767  00F8' 343A               	retlw	58	;':'
   768  00F9' 3420               	retlw	32	;' '
   769  00FA' 3420               	retlw	32	;' '
   770  00FB' 3420               	retlw	32	;' '
   771  00FC' 3453               	retlw	83	;'S'
   772  00FD' 3433               	retlw	51	;'3'
   773  00FE' 343A               	retlw	58	;':'
   774  00FF' 3400               	retlw	0
   775  0100'                    STR_7:
   776  0100' 3456               	retlw	86	;'V'
   777  0101' 346F               	retlw	111	;'o'
   778  0102' 346C               	retlw	108	;'l'
   779  0103' 3474               	retlw	116	;'t'
   780  0104' 3461               	retlw	97	;'a'
   781  0105' 346A               	retlw	106	;'j'
   782  0106' 3465               	retlw	101	;'e'
   783  0107' 3420               	retlw	32	;' '
   784  0108' 3470               	retlw	112	;'p'
   785  0109' 346F               	retlw	111	;'o'
   786  010A' 3474               	retlw	116	;'t'
   787  010B' 3431               	retlw	49	;'1'
   788  010C' 343A               	retlw	58	;':'
   789  010D' 3420               	retlw	32	;' '
   790  010E' 3400               	retlw	0
   791  010F'                    STR_1:
   792  010F' 3425               	retlw	37	;'%'
   793  0110' 3433               	retlw	51	;'3'
   794  0111' 342E               	retlw	46	;'.'
   795  0112' 3432               	retlw	50	;'2'
   796  0113' 3466               	retlw	102	;'f'
   797  0114' 3476               	retlw	118	;'v'
   798  0115' 3400               	retlw	0
   799  010F'                    
   800                           	psect	cinit
   801  0000'                    start_initialization:	
   802                           ; #config settings
   803                           
   804  0000'                    __initialization:
   805                           
   806                           ; Clear objects allocated to COMMON
   807  0000' 0180'              	clrf	__pbssCOMMON& (0+127)
   808  0001' 0180'              	clrf	(__pbssCOMMON+1)& (0+127)
   809                           
   810                           ; Clear objects allocated to BANK1
   811  0002' 1383               	bcf	3,7	;select IRP bank0
   812  0003' 3000'              	movlw	low __pbssBANK1
   813  0004' 0084               	movwf	4
   814  0005' 3000'              	movlw	low (__pbssBANK1+34)
   815  0006' 120A' 118A' 2000' 120A' 118A' 	fcall	clear_ram0
   816                           
   817                           ; Clear objects allocated to BANK3
   818  000B' 1683               	bsf	3,5	;RP0=1, select bank3
   819  000C' 1703               	bsf	3,6	;RP1=1, select bank3
   820  000D' 0180'              	clrf	__pbssBANK3& (0+127)
   821  000E' 0180'              	clrf	(__pbssBANK3+1)& (0+127)
   822  000F' 0180'              	clrf	(__pbssBANK3+2)& (0+127)
   823  0010' 0180'              	clrf	(__pbssBANK3+3)& (0+127)
   824  0011' 0180'              	clrf	(__pbssBANK3+4)& (0+127)
   825  0012' 0180'              	clrf	(__pbssBANK3+5)& (0+127)
   826  0013'                    end_of_initialization:	
   827                           ;End of C runtime variable initialization code
   828                           
   829  0013'                    __end_of__initialization:
   830  0013' 0183               	clrf	3
   831  0014' 120A' 118A' 2800'  	ljmp	_main	;jump to C main() function
   832                           
   833                           	psect	bssCOMMON
   834  0000'                    __pbssCOMMON:
   835  0000'                    _data_menor:
   836  0000'                    	ds	1
   837  0001'                    _data_mayor:
   838  0001'                    	ds	1
   839                           
   840                           	psect	bssBANK1
   841  0000'                    __pbssBANK1:
   842  0000'                    _noentero:
   843  0000'                    	ds	4
   844  0004'                    _voltaje3:
   845  0004'                    	ds	4
   846  0008'                    _voltaje2:
   847  0008'                    	ds	4
   848  000C'                    _voltaje1:
   849  000C'                    	ds	4
   850  0010'                    _prr:
   851  0010'                    	ds	1
   852  0011'                    _ingreso:
   853  0011'                    	ds	1
   854  0012'                    _comp2:
   855  0012'                    	ds	1
   856  0013'                    _comp1:
   857  0013'                    	ds	1
   858  0014'                    _dato2:
   859  0014'                    	ds	1
   860  0015'                    _dato1:
   861  0015'                    	ds	1
   862  0016'                    _valor2:
   863  0016'                    	ds	6
   864  001C'                    _valor1:
   865  001C'                    	ds	6
   866                           
   867                           	psect	bssBANK3
   868  0000'                    __pbssBANK3:
   869  0000'                    _valor3:
   870  0000'                    	ds	6
   871                           
   872                           	psect	clrtext
   873  0000'                    clear_ram0:	
   874                           ;	Called with FSR containing the base address, and
   875                           ;	W with the last address+1
   876                           
   877  0000' 0064               	clrwdt	;clear the watchdog before getting into this loop
   878  0001'                    clrloop0:
   879  0001' 0180               	clrf	0	;clear RAM location pointed to by FSR
   880  0002' 0A84               	incf	4,f	;increment pointer
   881  0003' 0604               	xorwf	4,w	;XOR with final address
   882  0004' 1903               	btfsc	3,2	;have we reached the end yet?
   883  0005' 3400               	retlw	0	;all done for this memory range, return
   884  0006' 0604               	xorwf	4,w	;XOR again to restore value
   885  0007' 2800'              	goto	clrloop0	;do the next byte
   886                           
   887                           	psect	cstackBANK1
   888  0000'                    __pcstackBANK1:
   889  0000'                    ?___flsub:
   890  0000'                    ___flsub@a:	
   891                           ; 4 bytes @ 0x0
   892                           
   893                           
   894                           ; 4 bytes @ 0x0
   895  0000'                    	ds	4
   896  0004'                    ___flsub@b:
   897                           
   898                           ; 4 bytes @ 0x4
   899  0004'                    	ds	4
   900  0008'                    ?_sprintf:
   901  0008'                    sprintf@sp:	
   902                           ; 2 bytes @ 0x8
   903                           
   904                           
   905                           ; 2 bytes @ 0x8
   906  0008'                    	ds	2
   907  000A'                    sprintf@f:
   908                           
   909                           ; 2 bytes @ 0xA
   910  000A'                    	ds	6
   911  0010'                    _sprintf$1192:
   912                           
   913                           ; 4 bytes @ 0x10
   914  0010'                    	ds	4
   915  0014'                    sprintf@ap:
   916                           
   917                           ; 1 bytes @ 0x14
   918  0014'                    	ds	1
   919  0015'                    sprintf@val:
   920                           
   921                           ; 4 bytes @ 0x15
   922  0015'                    	ds	4
   923  0019'                    sprintf@flag:
   924                           
   925                           ; 2 bytes @ 0x19
   926  0019'                    	ds	2
   927  001B'                    sprintf@width:
   928                           
   929                           ; 2 bytes @ 0x1B
   930  001B'                    	ds	2
   931  001D'                    sprintf@tmpval:
   932                           
   933                           ; 4 bytes @ 0x1D
   934  001D'                    	ds	4
   935  0021'                    sprintf@eexp:
   936                           
   937                           ; 2 bytes @ 0x21
   938  0021'                    	ds	2
   939  0023'                    sprintf@fval:
   940                           
   941                           ; 4 bytes @ 0x23
   942  0023'                    	ds	4
   943  0027'                    sprintf@prec:
   944                           
   945                           ; 2 bytes @ 0x27
   946  0027'                    	ds	2
   947  0029'                    sprintf@c:
   948                           
   949                           ; 1 bytes @ 0x29
   950  0029'                    	ds	1
   951  002A'                    ??_main:
   952                           
   953                           ; 1 bytes @ 0x2A
   954  002A'                    	ds	4
   955                           
   956                           	psect	cstackCOMMON
   957  0000'                    __pcstackCOMMON:
   958  0000'                    ?_isdigit:
   959  0000'                    ?_LCD_Init8:	
   960                           ; 1 bit 
   961                           
   962  0000'                    ?_USART_Init:	
   963                           ; 1 bytes @ 0x0
   964                           
   965  0000'                    ?_USART_Rx:	
   966                           ; 1 bytes @ 0x0
   967                           
   968  0000'                    ?_LCD_8_comando:	
   969                           ; 1 bytes @ 0x0
   970                           
   971  0000'                    ?_LCD_8Data:	
   972                           ; 1 bytes @ 0x0
   973                           
   974  0000'                    ?_isr:	
   975                           ; 1 bytes @ 0x0
   976                           
   977  0000'                    ??_isr:	
   978                           ; 1 bytes @ 0x0
   979                           
   980  0000'                    ?_main:	
   981                           ; 1 bytes @ 0x0
   982                           
   983  0000'                    ?_USART_Tx:	
   984                           ; 1 bytes @ 0x0
   985                           
   986                           
   987                           ; 1 bytes @ 0x0
   988  0000'                    	ds	2
   989  0002'                    ?___fleq:
   990  0002'                    ?___flge:	
   991                           ; 1 bit 
   992                           
   993  0002'                    ??_USART_Init:	
   994                           ; 1 bit 
   995                           
   996  0002'                    ??_USART_Rx:	
   997                           ; 1 bytes @ 0x2
   998                           
   999  0002'                    ??_LCD_8_comando:	
  1000                           ; 1 bytes @ 0x2
  1001                           
  1002  0002'                    ??_LCD_8Data:	
  1003                           ; 1 bytes @ 0x2
  1004                           
  1005  0002'                    ??_isdigit:	
  1006                           ; 1 bytes @ 0x2
  1007                           
  1008  0002'                    ??_USART_Tx:	
  1009                           ; 1 bytes @ 0x2
  1010                           
  1011  0002'                    ?__Umul8_16:	
  1012                           ; 1 bytes @ 0x2
  1013                           
  1014  0002'                    ?___wmul:	
  1015                           ; 2 bytes @ 0x2
  1016                           
  1017  0002'                    ?___awmod:	
  1018                           ; 2 bytes @ 0x2
  1019                           
  1020  0002'                    ?___lwmod:	
  1021                           ; 2 bytes @ 0x2
  1022                           
  1023  0002'                    ?__tdiv_to_l_:	
  1024                           ; 2 bytes @ 0x2
  1025                           
  1026  0002'                    ?__div_to_l_:	
  1027                           ; 4 bytes @ 0x2
  1028                           
  1029  0002'                    ?___lldiv:	
  1030                           ; 4 bytes @ 0x2
  1031                           
  1032  0002'                    ?___flneg:	
  1033                           ; 4 bytes @ 0x2
  1034                           
  1035  0002'                    ?___llmod:	
  1036                           ; 4 bytes @ 0x2
  1037                           
  1038  0002'                    ?___xxtofl:	
  1039                           ; 4 bytes @ 0x2
  1040                           
  1041  0002'                    USART_Tx@data:	
  1042                           ; 4 bytes @ 0x2
  1043                           
  1044  0002'                    __Umul8_16@multiplicand:	
  1045                           ; 1 bytes @ 0x2
  1046                           
  1047  0002'                    _isdigit$1000:	
  1048                           ; 1 bytes @ 0x2
  1049                           
  1050  0002'                    ___wmul@multiplier:	
  1051                           ; 1 bytes @ 0x2
  1052                           
  1053  0002'                    ___awmod@divisor:	
  1054                           ; 2 bytes @ 0x2
  1055                           
  1056  0002'                    ___lwmod@divisor:	
  1057                           ; 2 bytes @ 0x2
  1058                           
  1059  0002'                    ___lldiv@divisor:	
  1060                           ; 2 bytes @ 0x2
  1061                           
  1062  0002'                    __div_to_l_@f1:	
  1063                           ; 4 bytes @ 0x2
  1064                           
  1065  0002'                    ___fleq@ff1:	
  1066                           ; 4 bytes @ 0x2
  1067                           
  1068  0002'                    ___flge@ff1:	
  1069                           ; 4 bytes @ 0x2
  1070                           
  1071  0002'                    ___flneg@f1:	
  1072                           ; 4 bytes @ 0x2
  1073                           
  1074  0002'                    __tdiv_to_l_@f1:	
  1075                           ; 4 bytes @ 0x2
  1076                           
  1077  0002'                    ___llmod@divisor:	
  1078                           ; 4 bytes @ 0x2
  1079                           
  1080  0002'                    ___xxtofl@val:	
  1081                           ; 4 bytes @ 0x2
  1082                           
  1083                           
  1084                           ; 4 bytes @ 0x2
  1085  0002'                    	ds	1
  1086  0003'                    ?_USART_Cadena:
  1087  0003'                    LCD_8_comando@dato:	
  1088                           ; 1 bytes @ 0x3
  1089                           
  1090  0003'                    LCD_8Data@data:	
  1091                           ; 1 bytes @ 0x3
  1092                           
  1093  0003'                    isdigit@c:	
  1094                           ; 1 bytes @ 0x3
  1095                           
  1096  0003'                    USART_Cadena@str:	
  1097                           ; 1 bytes @ 0x3
  1098                           
  1099                           
  1100                           ; 2 bytes @ 0x3
  1101  0003'                    	ds	1
  1102  0004'                    ??_LCD_Init8:
  1103  0004'                    ?_LCD_8XY:	
  1104                           ; 1 bytes @ 0x4
  1105                           
  1106  0004'                    ?_LCD_8Cadena:	
  1107                           ; 1 bytes @ 0x4
  1108                           
  1109  0004'                    ??__Umul8_16:	
  1110                           ; 1 bytes @ 0x4
  1111                           
  1112  0004'                    LCD_8XY@y:	
  1113                           ; 1 bytes @ 0x4
  1114                           
  1115  0004'                    LCD_8Cadena@dato:	
  1116                           ; 1 bytes @ 0x4
  1117                           
  1118  0004'                    ___wmul@multiplicand:	
  1119                           ; 2 bytes @ 0x4
  1120                           
  1121  0004'                    ___awmod@dividend:	
  1122                           ; 2 bytes @ 0x4
  1123                           
  1124  0004'                    ___lwmod@dividend:	
  1125                           ; 2 bytes @ 0x4
  1126                           
  1127                           
  1128                           ; 2 bytes @ 0x4
  1129  0004'                    	ds	1
  1130  0005'                    ??_LCD_8XY:
  1131  0005'                    ??_USART_Cadena:	
  1132                           ; 1 bytes @ 0x5
  1133                           
  1134  0005'                    LCD_8XY@x:	
  1135                           ; 1 bytes @ 0x5
  1136                           
  1137                           
  1138                           ; 1 bytes @ 0x5
  1139  0005'                    	ds	1
  1140  0006'                    ??_LCD_8Cadena:
  1141  0006'                    ??___wmul:	
  1142                           ; 1 bytes @ 0x6
  1143                           
  1144  0006'                    ??___awmod:	
  1145                           ; 1 bytes @ 0x6
  1146                           
  1147  0006'                    ??___flneg:	
  1148                           ; 1 bytes @ 0x6
  1149                           
  1150  0006'                    ??___lwmod:	
  1151                           ; 1 bytes @ 0x6
  1152                           
  1153  0006'                    ??___xxtofl:	
  1154                           ; 1 bytes @ 0x6
  1155                           
  1156  0006'                    ___wmul@product:	
  1157                           ; 1 bytes @ 0x6
  1158                           
  1159  0006'                    ___lldiv@dividend:	
  1160                           ; 2 bytes @ 0x6
  1161                           
  1162  0006'                    __div_to_l_@f2:	
  1163                           ; 4 bytes @ 0x6
  1164                           
  1165  0006'                    ___fleq@ff2:	
  1166                           ; 4 bytes @ 0x6
  1167                           
  1168  0006'                    ___flge@ff2:	
  1169                           ; 4 bytes @ 0x6
  1170                           
  1171  0006'                    __tdiv_to_l_@f2:	
  1172                           ; 4 bytes @ 0x6
  1173                           
  1174  0006'                    ___llmod@dividend:	
  1175                           ; 4 bytes @ 0x6
  1176                           
  1177                           
  1178                           ; 4 bytes @ 0x6
  1179  0006'                    	ds	1
  1180  0007'                    ___awmod@counter:
  1181  0007'                    ___lwmod@counter:	
  1182                           ; 1 bytes @ 0x7
  1183                           
  1184                           
  1185                           ; 1 bytes @ 0x7
  1186  0007'                    	ds	1
  1187  0008'                    ??___lwdiv:
  1188  0008'                    ___awmod@sign:	
  1189                           ; 1 bytes @ 0x8
  1190                           
  1191                           
  1192                           ; 1 bytes @ 0x8
  1193  0008'                    	ds	1
  1194  0009'                    ??___awdiv:
  1195                           
  1196                           ; 1 bytes @ 0x9
  1197  0009'                    	ds	1
  1198  000A'                    ??___flsub:
  1199                           
  1200                           	psect	cstackBANK0
  1201  0000'                    __pcstackBANK0:	
  1202                           ; 1 bytes @ 0xA
  1203                           
  1204  0000'                    ??__tdiv_to_l_:
  1205  0000'                    ??__div_to_l_:	
  1206                           ; 1 bytes @ 0x0
  1207                           
  1208  0000'                    ??___lldiv:	
  1209                           ; 1 bytes @ 0x0
  1210                           
  1211  0000'                    ??___fleq:	
  1212                           ; 1 bytes @ 0x0
  1213                           
  1214  0000'                    ??___flge:	
  1215                           ; 1 bytes @ 0x0
  1216                           
  1217  0000'                    ??___llmod:	
  1218                           ; 1 bytes @ 0x0
  1219                           
  1220  0000'                    ?___awdiv:	
  1221                           ; 1 bytes @ 0x0
  1222                           
  1223  0000'                    ?___lwdiv:	
  1224                           ; 2 bytes @ 0x0
  1225                           
  1226  0000'                    ___xxtofl@sign:	
  1227                           ; 2 bytes @ 0x0
  1228                           
  1229  0000'                    ___awdiv@divisor:	
  1230                           ; 1 bytes @ 0x0
  1231                           
  1232  0000'                    ___lwdiv@divisor:	
  1233                           ; 2 bytes @ 0x0
  1234                           
  1235  0000'                    __Umul8_16@product:	
  1236                           ; 2 bytes @ 0x0
  1237                           
  1238                           
  1239                           ; 2 bytes @ 0x0
  1240  0000'                    	ds	1
  1241  0001'                    ___llmod@counter:
  1242  0001'                    ___xxtofl@exp:	
  1243                           ; 1 bytes @ 0x1
  1244                           
  1245  0001'                    ___lldiv@quotient:	
  1246                           ; 1 bytes @ 0x1
  1247                           
  1248  0001'                    __div_to_l_@quot:	
  1249                           ; 4 bytes @ 0x1
  1250                           
  1251                           
  1252                           ; 4 bytes @ 0x1
  1253  0001'                    	ds	1
  1254  0002'                    ___awdiv@dividend:
  1255  0002'                    ___lwdiv@dividend:	
  1256                           ; 2 bytes @ 0x2
  1257                           
  1258  0002'                    __Umul8_16@word_mpld:	
  1259                           ; 2 bytes @ 0x2
  1260                           
  1261  0002'                    ___xxtofl@arg:	
  1262                           ; 2 bytes @ 0x2
  1263                           
  1264                           
  1265                           ; 4 bytes @ 0x2
  1266  0002'                    	ds	2
  1267  0004'                    ___awdiv@counter:
  1268  0004'                    ___lwdiv@counter:	
  1269                           ; 1 bytes @ 0x4
  1270                           
  1271  0004'                    __Umul8_16@multiplier:	
  1272                           ; 1 bytes @ 0x4
  1273                           
  1274  0004'                    __tdiv_to_l_@quot:	
  1275                           ; 1 bytes @ 0x4
  1276                           
  1277                           
  1278                           ; 4 bytes @ 0x4
  1279  0004'                    	ds	1
  1280  0005'                    ___lldiv@counter:
  1281  0005'                    ___awdiv@sign:	
  1282                           ; 1 bytes @ 0x5
  1283                           
  1284  0005'                    __div_to_l_@cntr:	
  1285                           ; 1 bytes @ 0x5
  1286                           
  1287  0005'                    ___lwdiv@quotient:	
  1288                           ; 1 bytes @ 0x5
  1289                           
  1290                           
  1291                           ; 2 bytes @ 0x5
  1292  0005'                    	ds	1
  1293  0006'                    __div_to_l_@exp1:
  1294  0006'                    ___awdiv@quotient:	
  1295                           ; 1 bytes @ 0x6
  1296                           
  1297                           
  1298                           ; 2 bytes @ 0x6
  1299  0006'                    	ds	2
  1300  0008'                    ?___flmul:
  1301  0008'                    __tdiv_to_l_@cntr:	
  1302                           ; 4 bytes @ 0x8
  1303                           
  1304  0008'                    ___flmul@b:	
  1305                           ; 1 bytes @ 0x8
  1306                           
  1307                           
  1308                           ; 4 bytes @ 0x8
  1309  0008'                    	ds	1
  1310  0009'                    __tdiv_to_l_@exp1:
  1311                           
  1312                           ; 1 bytes @ 0x9
  1313  0009'                    	ds	3
  1314  000C'                    ___flmul@a:
  1315                           
  1316                           ; 4 bytes @ 0xC
  1317  000C'                    	ds	4
  1318  0010'                    ??___flmul:
  1319                           
  1320                           ; 1 bytes @ 0x10
  1321  0010'                    	ds	5
  1322  0015'                    ___flmul@sign:
  1323                           
  1324                           ; 1 bytes @ 0x15
  1325  0015'                    	ds	1
  1326  0016'                    ___flmul@aexp:
  1327                           
  1328                           ; 1 bytes @ 0x16
  1329  0016'                    	ds	1
  1330  0017'                    ___flmul@grs:
  1331                           
  1332                           ; 4 bytes @ 0x17
  1333  0017'                    	ds	4
  1334  001B'                    ___flmul@bexp:
  1335                           
  1336                           ; 1 bytes @ 0x1B
  1337  001B'                    	ds	1
  1338  001C'                    ___flmul@prod:
  1339                           
  1340                           ; 4 bytes @ 0x1C
  1341  001C'                    	ds	4
  1342  0020'                    ___flmul@temp:
  1343                           
  1344                           ; 2 bytes @ 0x20
  1345  0020'                    	ds	2
  1346  0022'                    ?_fround:
  1347  0022'                    ?_scale:	
  1348                           ; 4 bytes @ 0x22
  1349                           
  1350                           
  1351                           ; 4 bytes @ 0x22
  1352  0022'                    	ds	4
  1353  0026'                    ??_fround:
  1354  0026'                    ??_scale:	
  1355                           ; 1 bytes @ 0x26
  1356                           
  1357                           
  1358                           ; 1 bytes @ 0x26
  1359  0026'                    	ds	7
  1360  002D'                    _fround$1190:
  1361                           
  1362                           ; 4 bytes @ 0x2D
  1363  002D'                    	ds	3
  1364  0030'                    _scale$1191:
  1365                           
  1366                           ; 4 bytes @ 0x30
  1367  0030'                    	ds	1
  1368  0031'                    _fround$1189:
  1369                           
  1370                           ; 4 bytes @ 0x31
  1371  0031'                    	ds	3
  1372  0034'                    scale@scl:
  1373                           
  1374                           ; 1 bytes @ 0x34
  1375  0034'                    	ds	1
  1376  0035'                    ?___fltol:
  1377  0035'                    fround@prec:	
  1378                           ; 4 bytes @ 0x35
  1379                           
  1380  0035'                    ___fltol@f1:	
  1381                           ; 1 bytes @ 0x35
  1382                           
  1383                           
  1384                           ; 4 bytes @ 0x35
  1385  0035'                    	ds	1
  1386  0036'                    ?___fladd:
  1387  0036'                    ___fladd@b:	
  1388                           ; 4 bytes @ 0x36
  1389                           
  1390                           
  1391                           ; 4 bytes @ 0x36
  1392  0036'                    	ds	3
  1393  0039'                    ??___fltol:
  1394                           
  1395                           ; 1 bytes @ 0x39
  1396  0039'                    	ds	1
  1397  003A'                    ___fladd@a:
  1398                           
  1399                           ; 4 bytes @ 0x3A
  1400  003A'                    	ds	4
  1401  003E'                    ??___fladd:
  1402  003E'                    ___fltol@sign1:	
  1403                           ; 1 bytes @ 0x3E
  1404                           
  1405                           
  1406                           ; 1 bytes @ 0x3E
  1407  003E'                    	ds	1
  1408  003F'                    ___fltol@exp1:
  1409                           
  1410                           ; 1 bytes @ 0x3F
  1411  003F'                    	ds	7
  1412  0046'                    ___fladd@signs:
  1413                           
  1414                           ; 1 bytes @ 0x46
  1415  0046'                    	ds	1
  1416  0047'                    ___fladd@aexp:
  1417                           
  1418                           ; 1 bytes @ 0x47
  1419  0047'                    	ds	1
  1420  0048'                    ___fladd@bexp:
  1421                           
  1422                           ; 1 bytes @ 0x48
  1423  0048'                    	ds	1
  1424  0049'                    ___fladd@grs:
  1425                           
  1426                           ; 1 bytes @ 0x49
  1427  0049'                    	ds	1
  1428  004A'                    ??_sprintf:
  1429                           
  1430                           ; 1 bytes @ 0x4A
  1431  004A'                    	ds	5
  1432                           
  1433                           	psect	maintext
  1434  0000'                    __pmaintext:	
  1435 ;;
  1436 ;;Main: autosize = 0, tempsize = 4, incstack = 0, save=0
  1437 ;;
  1438 ;; *************** function _main *****************
  1439 ;; Defined at:
  1440 ;;		line 67 in file "Lab_2/Lab_2.c"
  1441 ;; Parameters:    Size  Location     Type
  1442 ;;		None
  1443 ;; Auto vars:     Size  Location     Type
  1444 ;;		None
  1445 ;; Return value:  Size  Location     Type
  1446 ;;                  1    wreg      void 
  1447 ;; Registers used:
  1448 ;;		wreg, fsr0l, fsr0h, status,2, status,0, btemp+1, pclath, cstack
  1449 ;; Tracked objects:
  1450 ;;		On entry : B00/0
  1451 ;;		On exit  : 0/0
  1452 ;;		Unchanged: 0/0
  1453 ;; Data sizes:     COMMON   BANK0   BANK1   BANK3   BANK2
  1454 ;;      Params:         0       0       0       0       0
  1455 ;;      Locals:         0       0       0       0       0
  1456 ;;      Temps:          0       0       4       0       0
  1457 ;;      Totals:         0       0       4       0       0
  1458 ;;Total ram usage:        4 bytes
  1459 ;; Hardware stack levels required when called:    5
  1460 ;; This function calls:
  1461 ;;		_LCD_8Cadena
  1462 ;;		_LCD_8XY
  1463 ;;		_LCD_Init8
  1464 ;;		_USART_Cadena
  1465 ;;		_USART_Init
  1466 ;;		_USART_Rx
  1467 ;;		___flmul
  1468 ;;		___fltol
  1469 ;;		___xxtofl
  1470 ;;		_sprintf
  1471 ;; This function is called by:
  1472 ;;		Startup code after reset
  1473 ;; This function uses a non-reentrant model
  1474 ;;
  1475                           
  1476                           
  1477                           ;psect for function _main
  1478  0000'                    _main:
  1479  0000'                    l4500:	
  1480                           ;incstack = 0
  1481                           ; Regs used in _main: [wreg-fsr0h+status,2+status,0+btemp+1+pclath+cstack]
  1482                           
  1483                           
  1484                           ;Lab_2/Lab_2.c: 68:     LCD_Init8();
  1485  0000' 120A' 118A' 2000' 120A' 118A' 	fcall	_LCD_Init8
  1486                           
  1487                           ;Lab_2/Lab_2.c: 69:     USART_Init();
  1488  0005' 120A' 118A' 2000' 120A' 118A' 	fcall	_USART_Init
  1489  000A'                    l4502:
  1490                           
  1491                           ;Lab_2/Lab_2.c: 70:     ANSEL = 0b01100000;
  1492  000A' 3060               	movlw	96
  1493  000B' 1683               	bsf	3,5	;RP0=1, select bank3
  1494  000C' 1703               	bsf	3,6	;RP1=1, select bank3
  1495  000D' 0088               	movwf	8	;volatile
  1496  000E'                    l4504:
  1497                           
  1498                           ;Lab_2/Lab_2.c: 71:     ANSELH = 0x00;
  1499  000E' 0189               	clrf	9	;volatile
  1500  000F'                    l4506:
  1501                           
  1502                           ;Lab_2/Lab_2.c: 73:     TRISA = 0x00;
  1503  000F' 1683               	bsf	3,5	;RP0=1, select bank1
  1504  0010' 1303               	bcf	3,6	;RP1=0, select bank1
  1505  0011' 0185               	clrf	5	;volatile
  1506  0012'                    l4508:
  1507                           
  1508                           ;Lab_2/Lab_2.c: 74:     TRISC = 0b10000000;
  1509  0012' 3080               	movlw	128
  1510  0013' 0087               	movwf	7	;volatile
  1511  0014'                    l4510:
  1512                           
  1513                           ;Lab_2/Lab_2.c: 75:     TRISD = 0x00;
  1514  0014' 0188               	clrf	8	;volatile
  1515  0015'                    l4512:
  1516                           
  1517                           ;Lab_2/Lab_2.c: 76:     TRISE = 0b111;
  1518  0015' 3007               	movlw	7
  1519  0016' 0089               	movwf	9	;volatile
  1520  0017'                    l4514:
  1521                           
  1522                           ;Lab_2/Lab_2.c: 78:     OSCCONbits.IRCF = 0b111;
  1523  0017' 3070               	movlw	112
  1524  0018' 048F               	iorwf	15,f	;volatile
  1525  0019'                    l4516:
  1526                           
  1527                           ;Lab_2/Lab_2.c: 79:     OSCCONbits.SCS = 1;
  1528  0019' 140F               	bsf	15,0	;volatile
  1529  001A'                    l4518:
  1530                           
  1531                           ;Lab_2/Lab_2.c: 83:     ADCON1bits.ADFM = 0;
  1532  001A' 139F               	bcf	31,7	;volatile
  1533  001B'                    l4520:
  1534                           
  1535                           ;Lab_2/Lab_2.c: 84:     ADCON1bits.VCFG0 = 0;
  1536  001B' 121F               	bcf	31,4	;volatile
  1537  001C'                    l4522:
  1538                           
  1539                           ;Lab_2/Lab_2.c: 85:     ADCON1bits.VCFG1 = 0;
  1540  001C' 129F               	bcf	31,5	;volatile
  1541  001D'                    l4524:
  1542                           
  1543                           ;Lab_2/Lab_2.c: 86:     ADCON0bits.ADCS0 = 0;
  1544  001D' 1283               	bcf	3,5	;RP0=0, select bank0
  1545  001E' 1303               	bcf	3,6	;RP1=0, select bank0
  1546  001F' 131F               	bcf	31,6	;volatile
  1547  0020'                    l4526:
  1548                           
  1549                           ;Lab_2/Lab_2.c: 87:     ADCON0bits.ADCS1 = 1;
  1550  0020' 179F               	bsf	31,7	;volatile
  1551  0021'                    l4528:
  1552                           
  1553                           ;Lab_2/Lab_2.c: 88:     ADCON0bits.CHS = 5;
  1554  0021' 081F               	movf	31,w	;volatile
  1555  0022' 39C3               	andlw	-61
  1556  0023' 3814               	iorlw	20
  1557  0024' 009F               	movwf	31	;volatile
  1558  0025'                    l4530:
  1559                           
  1560                           ;Lab_2/Lab_2.c: 89:     _delay((unsigned long)((100)*(8000000/4000000.0)));
  1561  0025' 3041               	movlw	65
  1562  0026' 1683               	bsf	3,5	;RP0=1, select bank1
  1563  0027' 1303               	bcf	3,6	;RP1=0, select bank1
  1564  0028' 0080'              	movwf	??_main^(0+128)
  1565  0029'                    u7227:
  1566  0029' 0B80'              	decfsz	??_main^(0+128),f
  1567  002A' 2800'              	goto	u7227
  1568  002B' 2800'              	nop2
  1569  002C'                    l4532:
  1570                           
  1571                           ;Lab_2/Lab_2.c: 90:     ADCON0bits.ADON = 1;
  1572  002C' 1283               	bcf	3,5	;RP0=0, select bank0
  1573  002D' 1303               	bcf	3,6	;RP1=0, select bank0
  1574  002E' 141F               	bsf	31,0	;volatile
  1575  002F'                    l4534:
  1576                           
  1577                           ;Lab_2/Lab_2.c: 92:     ADCON0bits.GO = 1;
  1578  002F' 149F               	bsf	31,1	;volatile
  1579  0030'                    l4536:
  1580                           
  1581                           ;Lab_2/Lab_2.c: 95:     dato1 = 0;
  1582  0030' 1683               	bsf	3,5	;RP0=1, select bank1
  1583  0031' 1303               	bcf	3,6	;RP1=0, select bank1
  1584  0032' 0180'              	clrf	_dato1^(0+128)
  1585  0033'                    l4538:
  1586                           
  1587                           ;Lab_2/Lab_2.c: 96:     dato2 = 0;
  1588  0033' 0180'              	clrf	_dato2^(0+128)
  1589  0034'                    l4540:
  1590                           
  1591                           ;Lab_2/Lab_2.c: 97:     voltaje1 = 0;
  1592  0034' 3000               	movlw	0
  1593  0035' 0080'              	movwf	(_voltaje1+3)^(0+128)
  1594  0036' 3000               	movlw	0
  1595  0037' 0080'              	movwf	(_voltaje1+2)^(0+128)
  1596  0038' 3000               	movlw	0
  1597  0039' 0080'              	movwf	(_voltaje1+1)^(0+128)
  1598  003A' 3000               	movlw	0
  1599  003B' 0080'              	movwf	_voltaje1^(0+128)
  1600  003C'                    l4542:
  1601                           
  1602                           ;Lab_2/Lab_2.c: 98:     voltaje2 = 0;
  1603  003C' 3000               	movlw	0
  1604  003D' 0080'              	movwf	(_voltaje2+3)^(0+128)
  1605  003E' 3000               	movlw	0
  1606  003F' 0080'              	movwf	(_voltaje2+2)^(0+128)
  1607  0040' 3000               	movlw	0
  1608  0041' 0080'              	movwf	(_voltaje2+1)^(0+128)
  1609  0042' 3000               	movlw	0
  1610  0043' 0080'              	movwf	_voltaje2^(0+128)
  1611  0044'                    l4544:
  1612                           
  1613                           ;Lab_2/Lab_2.c: 101:     PORTA = 0x00;
  1614  0044' 1283               	bcf	3,5	;RP0=0, select bank0
  1615  0045' 1303               	bcf	3,6	;RP1=0, select bank0
  1616  0046' 0185               	clrf	5	;volatile
  1617  0047'                    l4546:
  1618                           
  1619                           ;Lab_2/Lab_2.c: 102:     PORTC = 0x00;
  1620  0047' 0187               	clrf	7	;volatile
  1621  0048'                    l4548:
  1622                           
  1623                           ;Lab_2/Lab_2.c: 103:     PORTD = 0x00;
  1624  0048' 0188               	clrf	8	;volatile
  1625  0049'                    l4550:
  1626                           
  1627                           ;Lab_2/Lab_2.c: 104:     PORTE = 0x00;
  1628  0049' 0189               	clrf	9	;volatile
  1629  004A'                    l4552:
  1630                           
  1631                           ;Lab_2/Lab_2.c: 105:     noentero = 4.2;
  1632  004A' 3040               	movlw	64
  1633  004B' 1683               	bsf	3,5	;RP0=1, select bank1
  1634  004C' 1303               	bcf	3,6	;RP1=0, select bank1
  1635  004D' 0080'              	movwf	(_noentero+3)^(0+128)
  1636  004E' 3086               	movlw	134
  1637  004F' 0080'              	movwf	(_noentero+2)^(0+128)
  1638  0050' 3066               	movlw	102
  1639  0051' 0080'              	movwf	(_noentero+1)^(0+128)
  1640  0052' 3066               	movlw	102
  1641  0053' 0080'              	movwf	_noentero^(0+128)
  1642  0054'                    l4554:
  1643                           
  1644                           ;Lab_2/Lab_2.c: 110:         comp1 = dato1;
  1645  0054' 0800'              	movf	_dato1^(0+128),w
  1646  0055' 0080'              	movwf	??_main^(0+128)
  1647  0056' 0800'              	movf	??_main^(0+128),w
  1648  0057' 0080'              	movwf	_comp1^(0+128)
  1649  0058'                    l4556:
  1650                           
  1651                           ;Lab_2/Lab_2.c: 111:         comp2 = dato2;
  1652  0058' 0800'              	movf	_dato2^(0+128),w
  1653  0059' 0080'              	movwf	??_main^(0+128)
  1654  005A' 0800'              	movf	??_main^(0+128),w
  1655  005B' 0080'              	movwf	_comp2^(0+128)
  1656  005C'                    l4558:
  1657                           
  1658                           ;Lab_2/Lab_2.c: 113:         if(ADCON0bits.GO == 0){
  1659  005C' 1283               	bcf	3,5	;RP0=0, select bank0
  1660  005D' 1303               	bcf	3,6	;RP1=0, select bank0
  1661  005E' 189F               	btfsc	31,1	;volatile
  1662  005F' 2800'              	goto	u7141
  1663  0060' 2800'              	goto	u7140
  1664  0061'                    u7141:
  1665  0061' 2800'              	goto	l4576
  1666  0062'                    u7140:
  1667  0062'                    l4560:
  1668                           
  1669                           ;Lab_2/Lab_2.c: 115:             if(ADCON0bits.CHS == 6){
  1670  0062' 0C1F               	rrf	31,w	;volatile
  1671  0063' 1683               	bsf	3,5	;RP0=1, select bank1
  1672  0064' 1303               	bcf	3,6	;RP1=0, select bank1
  1673  0065' 0080'              	movwf	??_main^(0+128)
  1674  0066' 0C00'              	rrf	??_main^(0+128),w
  1675  0067' 390F               	andlw	15
  1676  0068' 3A06               	xorlw	6
  1677  0069' 1D03               	skipz
  1678  006A' 2800'              	goto	u7151
  1679  006B' 2800'              	goto	u7150
  1680  006C'                    u7151:
  1681  006C' 2800'              	goto	l4566
  1682  006D'                    u7150:
  1683  006D'                    l4562:
  1684                           
  1685                           ;Lab_2/Lab_2.c: 116:                 dato2 = ADRESH;
  1686  006D' 1283               	bcf	3,5	;RP0=0, select bank0
  1687  006E' 1303               	bcf	3,6	;RP1=0, select bank0
  1688  006F' 081E               	movf	30,w	;volatile
  1689  0070' 1683               	bsf	3,5	;RP0=1, select bank1
  1690  0071' 1303               	bcf	3,6	;RP1=0, select bank1
  1691  0072' 0080'              	movwf	??_main^(0+128)
  1692  0073' 0800'              	movf	??_main^(0+128),w
  1693  0074' 0080'              	movwf	_dato2^(0+128)
  1694  0075'                    l4564:
  1695                           
  1696                           ;Lab_2/Lab_2.c: 117:                 ADCON0bits.CHS = 5;
  1697  0075' 1283               	bcf	3,5	;RP0=0, select bank0
  1698  0076' 1303               	bcf	3,6	;RP1=0, select bank0
  1699  0077' 081F               	movf	31,w	;volatile
  1700  0078' 39C3               	andlw	-61
  1701  0079' 3814               	iorlw	20
  1702  007A' 009F               	movwf	31	;volatile
  1703                           
  1704                           ;Lab_2/Lab_2.c: 118:             }
  1705  007B' 2800'              	goto	l4572
  1706  007C'                    l4566:
  1707  007C' 1283               	bcf	3,5	;RP0=0, select bank0
  1708  007D' 1303               	bcf	3,6	;RP1=0, select bank0
  1709  007E' 0C1F               	rrf	31,w	;volatile
  1710  007F' 1683               	bsf	3,5	;RP0=1, select bank1
  1711  0080' 1303               	bcf	3,6	;RP1=0, select bank1
  1712  0081' 0080'              	movwf	??_main^(0+128)
  1713  0082' 0C00'              	rrf	??_main^(0+128),w
  1714  0083' 390F               	andlw	15
  1715  0084' 3A05               	xorlw	5
  1716  0085' 1D03               	skipz
  1717  0086' 2800'              	goto	u7161
  1718  0087' 2800'              	goto	u7160
  1719  0088'                    u7161:
  1720  0088' 2800'              	goto	l4572
  1721  0089'                    u7160:
  1722  0089'                    l4568:
  1723                           
  1724                           ;Lab_2/Lab_2.c: 120:                 dato1 = ADRESH;
  1725  0089' 1283               	bcf	3,5	;RP0=0, select bank0
  1726  008A' 1303               	bcf	3,6	;RP1=0, select bank0
  1727  008B' 081E               	movf	30,w	;volatile
  1728  008C' 1683               	bsf	3,5	;RP0=1, select bank1
  1729  008D' 1303               	bcf	3,6	;RP1=0, select bank1
  1730  008E' 0080'              	movwf	??_main^(0+128)
  1731  008F' 0800'              	movf	??_main^(0+128),w
  1732  0090' 0080'              	movwf	_dato1^(0+128)
  1733  0091'                    l4570:
  1734                           
  1735                           ;Lab_2/Lab_2.c: 121:                 ADCON0bits.CHS = 6;
  1736  0091' 1283               	bcf	3,5	;RP0=0, select bank0
  1737  0092' 1303               	bcf	3,6	;RP1=0, select bank0
  1738  0093' 081F               	movf	31,w	;volatile
  1739  0094' 39C3               	andlw	-61
  1740  0095' 3818               	iorlw	24
  1741  0096' 009F               	movwf	31	;volatile
  1742  0097'                    l4572:
  1743                           
  1744                           ;Lab_2/Lab_2.c: 123:             _delay((unsigned long)((50)*(8000000/4000000.0)));
  1745  0097' 3020               	movlw	32
  1746  0098' 1683               	bsf	3,5	;RP0=1, select bank1
  1747  0099' 1303               	bcf	3,6	;RP1=0, select bank1
  1748  009A' 0080'              	movwf	??_main^(0+128)
  1749  009B'                    u7237:
  1750  009B' 0B80'              	decfsz	??_main^(0+128),f
  1751  009C' 2800'              	goto	u7237
  1752  009D' 0000               	nop
  1753  009E'                    l4574:
  1754                           
  1755                           ;Lab_2/Lab_2.c: 125:             ADCON0bits.GO = 1;
  1756  009E' 1283               	bcf	3,5	;RP0=0, select bank0
  1757  009F' 1303               	bcf	3,6	;RP1=0, select bank0
  1758  00A0' 149F               	bsf	31,1	;volatile
  1759  00A1'                    l4576:
  1760                           
  1761                           ;Lab_2/Lab_2.c: 127:         voltaje1 = (dato1 * 0.0196);
  1762  00A1' 303C               	movlw	60
  1763  00A2' 008B'              	movwf	___flmul@b+3
  1764  00A3' 30A0               	movlw	160
  1765  00A4' 008A'              	movwf	___flmul@b+2
  1766  00A5' 3090               	movlw	144
  1767  00A6' 0089'              	movwf	___flmul@b+1
  1768  00A7' 302E               	movlw	46
  1769  00A8' 0088'              	movwf	___flmul@b
  1770  00A9' 1683               	bsf	3,5	;RP0=1, select bank1
  1771  00AA' 1303               	bcf	3,6	;RP1=0, select bank1
  1772  00AB' 0800'              	movf	_dato1^(0+128),w
  1773  00AC' 0080'              	movwf	??_main^(0+128)
  1774  00AD' 0181'              	clrf	(??_main^(0+128)+1)
  1775  00AE' 0182'              	clrf	(??_main^(0+128)+2)
  1776  00AF' 0183'              	clrf	(??_main^(0+128)+3)
  1777  00B0' 0800'              	movf	(??_main+3)^(0+128),w
  1778  00B1' 0085'              	movwf	___xxtofl@val+3
  1779  00B2' 0800'              	movf	(??_main+2)^(0+128),w
  1780  00B3' 0084'              	movwf	___xxtofl@val+2
  1781  00B4' 0800'              	movf	(??_main+1)^(0+128),w
  1782  00B5' 0083'              	movwf	___xxtofl@val+1
  1783  00B6' 0800'              	movf	??_main^(0+128),w
  1784  00B7' 0082'              	movwf	___xxtofl@val
  1785  00B8' 3001               	movlw	1
  1786  00B9' 120A' 118A' 2000' 120A' 118A' 	fcall	___xxtofl
  1787  00BE' 0805'              	movf	?___xxtofl+3,w
  1788  00BF' 1283               	bcf	3,5	;RP0=0, select bank0
  1789  00C0' 1303               	bcf	3,6	;RP1=0, select bank0
  1790  00C1' 008F'              	movwf	___flmul@a+3
  1791  00C2' 0804'              	movf	?___xxtofl+2,w
  1792  00C3' 008E'              	movwf	___flmul@a+2
  1793  00C4' 0803'              	movf	?___xxtofl+1,w
  1794  00C5' 008D'              	movwf	___flmul@a+1
  1795  00C6' 0802'              	movf	?___xxtofl,w
  1796  00C7' 008C'              	movwf	___flmul@a
  1797  00C8' 120A' 118A' 2000' 120A' 118A' 	fcall	___flmul
  1798  00CD' 1283               	bcf	3,5	;RP0=0, select bank0
  1799  00CE' 1303               	bcf	3,6	;RP1=0, select bank0
  1800  00CF' 080B'              	movf	?___flmul+3,w
  1801  00D0' 1683               	bsf	3,5	;RP0=1, select bank1
  1802  00D1' 1303               	bcf	3,6	;RP1=0, select bank1
  1803  00D2' 0080'              	movwf	(_voltaje1+3)^(0+128)
  1804  00D3' 1283               	bcf	3,5	;RP0=0, select bank0
  1805  00D4' 1303               	bcf	3,6	;RP1=0, select bank0
  1806  00D5' 080A'              	movf	?___flmul+2,w
  1807  00D6' 1683               	bsf	3,5	;RP0=1, select bank1
  1808  00D7' 1303               	bcf	3,6	;RP1=0, select bank1
  1809  00D8' 0080'              	movwf	(_voltaje1+2)^(0+128)
  1810  00D9' 1283               	bcf	3,5	;RP0=0, select bank0
  1811  00DA' 1303               	bcf	3,6	;RP1=0, select bank0
  1812  00DB' 0809'              	movf	?___flmul+1,w
  1813  00DC' 1683               	bsf	3,5	;RP0=1, select bank1
  1814  00DD' 1303               	bcf	3,6	;RP1=0, select bank1
  1815  00DE' 0080'              	movwf	(_voltaje1+1)^(0+128)
  1816  00DF' 1283               	bcf	3,5	;RP0=0, select bank0
  1817  00E0' 1303               	bcf	3,6	;RP1=0, select bank0
  1818  00E1' 0808'              	movf	?___flmul,w
  1819  00E2' 1683               	bsf	3,5	;RP0=1, select bank1
  1820  00E3' 1303               	bcf	3,6	;RP1=0, select bank1
  1821  00E4' 0080'              	movwf	_voltaje1^(0+128)
  1822  00E5'                    l4578:
  1823                           
  1824                           ;Lab_2/Lab_2.c: 128:         voltaje2 = (dato2 * 0.0196);
  1825  00E5' 303C               	movlw	60
  1826  00E6' 1283               	bcf	3,5	;RP0=0, select bank0
  1827  00E7' 1303               	bcf	3,6	;RP1=0, select bank0
  1828  00E8' 008B'              	movwf	___flmul@b+3
  1829  00E9' 30A0               	movlw	160
  1830  00EA' 008A'              	movwf	___flmul@b+2
  1831  00EB' 3090               	movlw	144
  1832  00EC' 0089'              	movwf	___flmul@b+1
  1833  00ED' 302E               	movlw	46
  1834  00EE' 0088'              	movwf	___flmul@b
  1835  00EF' 1683               	bsf	3,5	;RP0=1, select bank1
  1836  00F0' 1303               	bcf	3,6	;RP1=0, select bank1
  1837  00F1' 0800'              	movf	_dato2^(0+128),w
  1838  00F2' 0080'              	movwf	??_main^(0+128)
  1839  00F3' 0181'              	clrf	(??_main^(0+128)+1)
  1840  00F4' 0182'              	clrf	(??_main^(0+128)+2)
  1841  00F5' 0183'              	clrf	(??_main^(0+128)+3)
  1842  00F6' 0800'              	movf	(??_main+3)^(0+128),w
  1843  00F7' 0085'              	movwf	___xxtofl@val+3
  1844  00F8' 0800'              	movf	(??_main+2)^(0+128),w
  1845  00F9' 0084'              	movwf	___xxtofl@val+2
  1846  00FA' 0800'              	movf	(??_main+1)^(0+128),w
  1847  00FB' 0083'              	movwf	___xxtofl@val+1
  1848  00FC' 0800'              	movf	??_main^(0+128),w
  1849  00FD' 0082'              	movwf	___xxtofl@val
  1850  00FE' 3001               	movlw	1
  1851  00FF' 120A' 118A' 2000' 120A' 118A' 	fcall	___xxtofl
  1852  0104' 0805'              	movf	?___xxtofl+3,w
  1853  0105' 1283               	bcf	3,5	;RP0=0, select bank0
  1854  0106' 1303               	bcf	3,6	;RP1=0, select bank0
  1855  0107' 008F'              	movwf	___flmul@a+3
  1856  0108' 0804'              	movf	?___xxtofl+2,w
  1857  0109' 008E'              	movwf	___flmul@a+2
  1858  010A' 0803'              	movf	?___xxtofl+1,w
  1859  010B' 008D'              	movwf	___flmul@a+1
  1860  010C' 0802'              	movf	?___xxtofl,w
  1861  010D' 008C'              	movwf	___flmul@a
  1862  010E' 120A' 118A' 2000' 120A' 118A' 	fcall	___flmul
  1863  0113' 1283               	bcf	3,5	;RP0=0, select bank0
  1864  0114' 1303               	bcf	3,6	;RP1=0, select bank0
  1865  0115' 080B'              	movf	?___flmul+3,w
  1866  0116' 1683               	bsf	3,5	;RP0=1, select bank1
  1867  0117' 1303               	bcf	3,6	;RP1=0, select bank1
  1868  0118' 0080'              	movwf	(_voltaje2+3)^(0+128)
  1869  0119' 1283               	bcf	3,5	;RP0=0, select bank0
  1870  011A' 1303               	bcf	3,6	;RP1=0, select bank0
  1871  011B' 080A'              	movf	?___flmul+2,w
  1872  011C' 1683               	bsf	3,5	;RP0=1, select bank1
  1873  011D' 1303               	bcf	3,6	;RP1=0, select bank1
  1874  011E' 0080'              	movwf	(_voltaje2+2)^(0+128)
  1875  011F' 1283               	bcf	3,5	;RP0=0, select bank0
  1876  0120' 1303               	bcf	3,6	;RP1=0, select bank0
  1877  0121' 0809'              	movf	?___flmul+1,w
  1878  0122' 1683               	bsf	3,5	;RP0=1, select bank1
  1879  0123' 1303               	bcf	3,6	;RP1=0, select bank1
  1880  0124' 0080'              	movwf	(_voltaje2+1)^(0+128)
  1881  0125' 1283               	bcf	3,5	;RP0=0, select bank0
  1882  0126' 1303               	bcf	3,6	;RP1=0, select bank0
  1883  0127' 0808'              	movf	?___flmul,w
  1884  0128' 1683               	bsf	3,5	;RP0=1, select bank1
  1885  0129' 1303               	bcf	3,6	;RP1=0, select bank1
  1886  012A' 0080'              	movwf	_voltaje2^(0+128)
  1887  012B'                    l4580:
  1888                           
  1889                           ;Lab_2/Lab_2.c: 129:         voltaje3 = (PORTA * 0.0196);
  1890  012B' 303C               	movlw	60
  1891  012C' 1283               	bcf	3,5	;RP0=0, select bank0
  1892  012D' 1303               	bcf	3,6	;RP1=0, select bank0
  1893  012E' 008B'              	movwf	___flmul@b+3
  1894  012F' 30A0               	movlw	160
  1895  0130' 008A'              	movwf	___flmul@b+2
  1896  0131' 3090               	movlw	144
  1897  0132' 0089'              	movwf	___flmul@b+1
  1898  0133' 302E               	movlw	46
  1899  0134' 0088'              	movwf	___flmul@b
  1900  0135' 0805               	movf	5,w	;volatile
  1901  0136' 1683               	bsf	3,5	;RP0=1, select bank1
  1902  0137' 1303               	bcf	3,6	;RP1=0, select bank1
  1903  0138' 0080'              	movwf	??_main^(0+128)
  1904  0139' 0181'              	clrf	(??_main^(0+128)+1)
  1905  013A' 0182'              	clrf	(??_main^(0+128)+2)
  1906  013B' 0183'              	clrf	(??_main^(0+128)+3)
  1907  013C' 0800'              	movf	(??_main+3)^(0+128),w
  1908  013D' 0085'              	movwf	___xxtofl@val+3
  1909  013E' 0800'              	movf	(??_main+2)^(0+128),w
  1910  013F' 0084'              	movwf	___xxtofl@val+2
  1911  0140' 0800'              	movf	(??_main+1)^(0+128),w
  1912  0141' 0083'              	movwf	___xxtofl@val+1
  1913  0142' 0800'              	movf	??_main^(0+128),w
  1914  0143' 0082'              	movwf	___xxtofl@val
  1915  0144' 3001               	movlw	1
  1916  0145' 120A' 118A' 2000' 120A' 118A' 	fcall	___xxtofl
  1917  014A' 0805'              	movf	?___xxtofl+3,w
  1918  014B' 1283               	bcf	3,5	;RP0=0, select bank0
  1919  014C' 1303               	bcf	3,6	;RP1=0, select bank0
  1920  014D' 008F'              	movwf	___flmul@a+3
  1921  014E' 0804'              	movf	?___xxtofl+2,w
  1922  014F' 008E'              	movwf	___flmul@a+2
  1923  0150' 0803'              	movf	?___xxtofl+1,w
  1924  0151' 008D'              	movwf	___flmul@a+1
  1925  0152' 0802'              	movf	?___xxtofl,w
  1926  0153' 008C'              	movwf	___flmul@a
  1927  0154' 120A' 118A' 2000' 120A' 118A' 	fcall	___flmul
  1928  0159' 1283               	bcf	3,5	;RP0=0, select bank0
  1929  015A' 1303               	bcf	3,6	;RP1=0, select bank0
  1930  015B' 080B'              	movf	?___flmul+3,w
  1931  015C' 1683               	bsf	3,5	;RP0=1, select bank1
  1932  015D' 1303               	bcf	3,6	;RP1=0, select bank1
  1933  015E' 0080'              	movwf	(_voltaje3+3)^(0+128)
  1934  015F' 1283               	bcf	3,5	;RP0=0, select bank0
  1935  0160' 1303               	bcf	3,6	;RP1=0, select bank0
  1936  0161' 080A'              	movf	?___flmul+2,w
  1937  0162' 1683               	bsf	3,5	;RP0=1, select bank1
  1938  0163' 1303               	bcf	3,6	;RP1=0, select bank1
  1939  0164' 0080'              	movwf	(_voltaje3+2)^(0+128)
  1940  0165' 1283               	bcf	3,5	;RP0=0, select bank0
  1941  0166' 1303               	bcf	3,6	;RP1=0, select bank0
  1942  0167' 0809'              	movf	?___flmul+1,w
  1943  0168' 1683               	bsf	3,5	;RP0=1, select bank1
  1944  0169' 1303               	bcf	3,6	;RP1=0, select bank1
  1945  016A' 0080'              	movwf	(_voltaje3+1)^(0+128)
  1946  016B' 1283               	bcf	3,5	;RP0=0, select bank0
  1947  016C' 1303               	bcf	3,6	;RP1=0, select bank0
  1948  016D' 0808'              	movf	?___flmul,w
  1949  016E' 1683               	bsf	3,5	;RP0=1, select bank1
  1950  016F' 1303               	bcf	3,6	;RP1=0, select bank1
  1951  0170' 0080'              	movwf	_voltaje3^(0+128)
  1952  0171'                    l4582:
  1953                           
  1954                           ;Lab_2/Lab_2.c: 131:         sprintf(valor1, "%3.2fv", voltaje1);
  1955  0171' 3000'              	movlw	(low (_valor1| 0))& (0+255)
  1956  0172' 0080'              	movwf	sprintf@sp^(0+128)
  1957  0173' 3000               	movlw	0
  1958  0174' 0080'              	movwf	(sprintf@sp+1)^(0+128)
  1959  0175' 3000'              	movlw	low (STR_1| (0+32768))
  1960  0176' 0080'              	movwf	sprintf@f^(0+128)
  1961  0177' 3000'              	movlw	high (STR_1| (0+32768))
  1962  0178' 0081'              	movwf	(sprintf@f^(0+128)+1)
  1963  0179' 0800'              	movf	(_voltaje1+3)^(0+128),w
  1964  017A' 0084'              	movwf	((?_sprintf+3)^(0+128)+4)
  1965  017B' 0800'              	movf	(_voltaje1+2)^(0+128),w
  1966  017C' 0084'              	movwf	((?_sprintf+2)^(0+128)+4)
  1967  017D' 0800'              	movf	(_voltaje1+1)^(0+128),w
  1968  017E' 0084'              	movwf	((?_sprintf+1)^(0+128)+4)
  1969  017F' 0800'              	movf	_voltaje1^(0+128),w
  1970  0180' 0084'              	movwf	(?_sprintf^(0+128)+4)
  1971  0181' 120A' 118A' 2000' 120A' 118A' 	fcall	_sprintf
  1972  0186'                    l4584:
  1973                           
  1974                           ;Lab_2/Lab_2.c: 132:         sprintf(valor2, "%3.2fv", voltaje2);
  1975  0186' 3000'              	movlw	(low (_valor2| 0))& (0+255)
  1976  0187' 1683               	bsf	3,5	;RP0=1, select bank1
  1977  0188' 1303               	bcf	3,6	;RP1=0, select bank1
  1978  0189' 0080'              	movwf	sprintf@sp^(0+128)
  1979  018A' 3000               	movlw	0
  1980  018B' 0080'              	movwf	(sprintf@sp+1)^(0+128)
  1981  018C' 3000'              	movlw	low (STR_1| (0+32768))
  1982  018D' 0080'              	movwf	sprintf@f^(0+128)
  1983  018E' 3000'              	movlw	high (STR_1| (0+32768))
  1984  018F' 0081'              	movwf	(sprintf@f^(0+128)+1)
  1985  0190' 0800'              	movf	(_voltaje2+3)^(0+128),w
  1986  0191' 0084'              	movwf	((?_sprintf+3)^(0+128)+4)
  1987  0192' 0800'              	movf	(_voltaje2+2)^(0+128),w
  1988  0193' 0084'              	movwf	((?_sprintf+2)^(0+128)+4)
  1989  0194' 0800'              	movf	(_voltaje2+1)^(0+128),w
  1990  0195' 0084'              	movwf	((?_sprintf+1)^(0+128)+4)
  1991  0196' 0800'              	movf	_voltaje2^(0+128),w
  1992  0197' 0084'              	movwf	(?_sprintf^(0+128)+4)
  1993  0198' 120A' 118A' 2000' 120A' 118A' 	fcall	_sprintf
  1994  019D'                    l4586:
  1995                           
  1996                           ;Lab_2/Lab_2.c: 133:         sprintf(valor3, "%3.2fv", voltaje3);
  1997  019D' 3000'              	movlw	(low (_valor3| (0+256)))& (0+255)
  1998  019E' 1683               	bsf	3,5	;RP0=1, select bank1
  1999  019F' 1303               	bcf	3,6	;RP1=0, select bank1
  2000  01A0' 0080'              	movwf	sprintf@sp^(0+128)
  2001  01A1' 3001               	movlw	1
  2002  01A2' 0080'              	movwf	(sprintf@sp+1)^(0+128)
  2003  01A3' 3000'              	movlw	low (STR_1| (0+32768))
  2004  01A4' 0080'              	movwf	sprintf@f^(0+128)
  2005  01A5' 3000'              	movlw	high (STR_1| (0+32768))
  2006  01A6' 0081'              	movwf	(sprintf@f^(0+128)+1)
  2007  01A7' 0800'              	movf	(_voltaje3+3)^(0+128),w
  2008  01A8' 0084'              	movwf	((?_sprintf+3)^(0+128)+4)
  2009  01A9' 0800'              	movf	(_voltaje3+2)^(0+128),w
  2010  01AA' 0084'              	movwf	((?_sprintf+2)^(0+128)+4)
  2011  01AB' 0800'              	movf	(_voltaje3+1)^(0+128),w
  2012  01AC' 0084'              	movwf	((?_sprintf+1)^(0+128)+4)
  2013  01AD' 0800'              	movf	_voltaje3^(0+128),w
  2014  01AE' 0084'              	movwf	(?_sprintf^(0+128)+4)
  2015  01AF' 120A' 118A' 2000' 120A' 118A' 	fcall	_sprintf
  2016  01B4'                    l4588:
  2017                           
  2018                           ;Lab_2/Lab_2.c: 136:         LCD_8XY(0,0);
  2019  01B4' 0184'              	clrf	LCD_8XY@y
  2020  01B5' 3000               	movlw	0
  2021  01B6' 120A' 118A' 2000' 120A' 118A' 	fcall	_LCD_8XY
  2022  01BB'                    l4590:
  2023                           
  2024                           ;Lab_2/Lab_2.c: 137:         LCD_8Cadena("S1:   S2:   S3:");
  2025  01BB' 3000'              	movlw	low (STR_4| (0+32768))
  2026  01BC' 0084'              	movwf	LCD_8Cadena@dato
  2027  01BD' 3000'              	movlw	high (STR_4| (0+32768))
  2028  01BE' 0085'              	movwf	LCD_8Cadena@dato+1
  2029  01BF' 120A' 118A' 2000' 120A' 118A' 	fcall	_LCD_8Cadena
  2030  01C4'                    l4592:
  2031                           
  2032                           ;Lab_2/Lab_2.c: 139:         LCD_8XY(1,0);
  2033  01C4' 0184'              	clrf	LCD_8XY@y
  2034  01C5' 3001               	movlw	1
  2035  01C6' 120A' 118A' 2000' 120A' 118A' 	fcall	_LCD_8XY
  2036  01CB'                    l4594:
  2037                           
  2038                           ;Lab_2/Lab_2.c: 140:         LCD_8Cadena(valor1);
  2039  01CB' 3000'              	movlw	(low (_valor1| 0))& (0+255)
  2040  01CC' 0084'              	movwf	LCD_8Cadena@dato
  2041  01CD' 3000               	movlw	0
  2042  01CE' 0085'              	movwf	LCD_8Cadena@dato+1
  2043  01CF' 120A' 118A' 2000' 120A' 118A' 	fcall	_LCD_8Cadena
  2044  01D4'                    l4596:
  2045                           
  2046                           ;Lab_2/Lab_2.c: 141:         LCD_8XY(1,6);
  2047  01D4' 3006               	movlw	6
  2048  01D5' 1683               	bsf	3,5	;RP0=1, select bank1
  2049  01D6' 1303               	bcf	3,6	;RP1=0, select bank1
  2050  01D7' 0080'              	movwf	??_main^(0+128)
  2051  01D8' 0800'              	movf	??_main^(0+128),w
  2052  01D9' 0084'              	movwf	LCD_8XY@y
  2053  01DA' 3001               	movlw	1
  2054  01DB' 120A' 118A' 2000' 120A' 118A' 	fcall	_LCD_8XY
  2055  01E0'                    l4598:
  2056                           
  2057                           ;Lab_2/Lab_2.c: 142:         LCD_8Cadena(valor2);
  2058  01E0' 3000'              	movlw	(low (_valor2| 0))& (0+255)
  2059  01E1' 0084'              	movwf	LCD_8Cadena@dato
  2060  01E2' 3000               	movlw	0
  2061  01E3' 0085'              	movwf	LCD_8Cadena@dato+1
  2062  01E4' 120A' 118A' 2000' 120A' 118A' 	fcall	_LCD_8Cadena
  2063  01E9'                    l4600:
  2064                           
  2065                           ;Lab_2/Lab_2.c: 143:         LCD_8XY(1,12);
  2066  01E9' 300C               	movlw	12
  2067  01EA' 1683               	bsf	3,5	;RP0=1, select bank1
  2068  01EB' 1303               	bcf	3,6	;RP1=0, select bank1
  2069  01EC' 0080'              	movwf	??_main^(0+128)
  2070  01ED' 0800'              	movf	??_main^(0+128),w
  2071  01EE' 0084'              	movwf	LCD_8XY@y
  2072  01EF' 3001               	movlw	1
  2073  01F0' 120A' 118A' 2000' 120A' 118A' 	fcall	_LCD_8XY
  2074  01F5'                    l4602:
  2075                           
  2076                           ;Lab_2/Lab_2.c: 144:         LCD_8Cadena(valor3);
  2077  01F5' 3000'              	movlw	(low (_valor3| (0+256)))& (0+255)
  2078  01F6' 0084'              	movwf	LCD_8Cadena@dato
  2079  01F7' 3001               	movlw	1
  2080  01F8' 0085'              	movwf	LCD_8Cadena@dato+1
  2081  01F9' 120A' 118A' 2000' 120A' 118A' 	fcall	_LCD_8Cadena
  2082  01FE'                    l4604:
  2083                           
  2084                           ;Lab_2/Lab_2.c: 146:         if(comp1 != dato1 || comp2 != dato2){
  2085  01FE' 1683               	bsf	3,5	;RP0=1, select bank1
  2086  01FF' 1303               	bcf	3,6	;RP1=0, select bank1
  2087  0200' 0800'              	movf	_comp1^(0+128),w
  2088  0201' 0600'              	xorwf	_dato1^(0+128),w
  2089  0202' 1D03               	skipz
  2090  0203' 2800'              	goto	u7171
  2091  0204' 2800'              	goto	u7170
  2092  0205'                    u7171:
  2093  0205' 2800'              	goto	l4608
  2094  0206'                    u7170:
  2095  0206'                    l4606:
  2096  0206' 0800'              	movf	_comp2^(0+128),w
  2097  0207' 0600'              	xorwf	_dato2^(0+128),w
  2098  0208' 1903               	skipnz
  2099  0209' 2800'              	goto	u7181
  2100  020A' 2800'              	goto	u7180
  2101  020B'                    u7181:
  2102  020B' 2800'              	goto	l4612
  2103  020C'                    u7180:
  2104  020C'                    l4608:
  2105                           
  2106                           ;Lab_2/Lab_2.c: 147:             USART_Cadena("\n\r\n\r+ para aumentar contador\n\r");
  2107  020C' 3000'              	movlw	low (STR_5| (0+32768))
  2108  020D' 0083'              	movwf	USART_Cadena@str
  2109  020E' 3000'              	movlw	high (STR_5| (0+32768))
  2110  020F' 0084'              	movwf	USART_Cadena@str+1
  2111  0210' 120A' 118A' 2000' 120A' 118A' 	fcall	_USART_Cadena
  2112                           
  2113                           ;Lab_2/Lab_2.c: 148:             USART_Cadena("- para disminuir contador\n\r\n\r");
  2114  0215' 3000'              	movlw	low (STR_6| (0+32768))
  2115  0216' 0083'              	movwf	USART_Cadena@str
  2116  0217' 3000'              	movlw	high (STR_6| (0+32768))
  2117  0218' 0084'              	movwf	USART_Cadena@str+1
  2118  0219' 120A' 118A' 2000' 120A' 118A' 	fcall	_USART_Cadena
  2119                           
  2120                           ;Lab_2/Lab_2.c: 149:             USART_Cadena("Voltaje pot1: ");
  2121  021E' 3000'              	movlw	low (STR_7| (0+32768))
  2122  021F' 0083'              	movwf	USART_Cadena@str
  2123  0220' 3000'              	movlw	high (STR_7| (0+32768))
  2124  0221' 0084'              	movwf	USART_Cadena@str+1
  2125  0222' 120A' 118A' 2000' 120A' 118A' 	fcall	_USART_Cadena
  2126                           
  2127                           ;Lab_2/Lab_2.c: 150:             USART_Cadena(valor1);
  2128  0227' 3000'              	movlw	(low (_valor1| 0))& (0+255)
  2129  0228' 0083'              	movwf	USART_Cadena@str
  2130  0229' 3000               	movlw	0
  2131  022A' 0084'              	movwf	USART_Cadena@str+1
  2132  022B' 120A' 118A' 2000' 120A' 118A' 	fcall	_USART_Cadena
  2133                           
  2134                           ;Lab_2/Lab_2.c: 152:             USART_Cadena("\n\rVoltaje pot2: ");
  2135  0230' 3000'              	movlw	low (STR_8| (0+32768))
  2136  0231' 0083'              	movwf	USART_Cadena@str
  2137  0232' 3000'              	movlw	high (STR_8| (0+32768))
  2138  0233' 0084'              	movwf	USART_Cadena@str+1
  2139  0234' 120A' 118A' 2000' 120A' 118A' 	fcall	_USART_Cadena
  2140                           
  2141                           ;Lab_2/Lab_2.c: 153:             USART_Cadena(valor2);
  2142  0239' 3000'              	movlw	(low (_valor2| 0))& (0+255)
  2143  023A' 0083'              	movwf	USART_Cadena@str
  2144  023B' 3000               	movlw	0
  2145  023C' 0084'              	movwf	USART_Cadena@str+1
  2146  023D' 120A' 118A' 2000' 120A' 118A' 	fcall	_USART_Cadena
  2147  0242'                    l4610:
  2148                           
  2149                           ;Lab_2/Lab_2.c: 156:             prr = (uint16_t)(noentero);
  2150  0242' 1683               	bsf	3,5	;RP0=1, select bank1
  2151  0243' 1303               	bcf	3,6	;RP1=0, select bank1
  2152  0244' 0800'              	movf	(_noentero+3)^(0+128),w
  2153  0245' 1283               	bcf	3,5	;RP0=0, select bank0
  2154  0246' 1303               	bcf	3,6	;RP1=0, select bank0
  2155  0247' 00B8'              	movwf	___fltol@f1+3
  2156  0248' 1683               	bsf	3,5	;RP0=1, select bank1
  2157  0249' 1303               	bcf	3,6	;RP1=0, select bank1
  2158  024A' 0800'              	movf	(_noentero+2)^(0+128),w
  2159  024B' 1283               	bcf	3,5	;RP0=0, select bank0
  2160  024C' 1303               	bcf	3,6	;RP1=0, select bank0
  2161  024D' 00B7'              	movwf	___fltol@f1+2
  2162  024E' 1683               	bsf	3,5	;RP0=1, select bank1
  2163  024F' 1303               	bcf	3,6	;RP1=0, select bank1
  2164  0250' 0800'              	movf	(_noentero+1)^(0+128),w
  2165  0251' 1283               	bcf	3,5	;RP0=0, select bank0
  2166  0252' 1303               	bcf	3,6	;RP1=0, select bank0
  2167  0253' 00B6'              	movwf	___fltol@f1+1
  2168  0254' 1683               	bsf	3,5	;RP0=1, select bank1
  2169  0255' 1303               	bcf	3,6	;RP1=0, select bank1
  2170  0256' 0800'              	movf	_noentero^(0+128),w
  2171  0257' 1283               	bcf	3,5	;RP0=0, select bank0
  2172  0258' 1303               	bcf	3,6	;RP1=0, select bank0
  2173  0259' 00B5'              	movwf	___fltol@f1
  2174  025A' 120A' 118A' 2000' 120A' 118A' 	fcall	___fltol
  2175  025F' 1283               	bcf	3,5	;RP0=0, select bank0
  2176  0260' 1303               	bcf	3,6	;RP1=0, select bank0
  2177  0261' 0835'              	movf	?___fltol,w
  2178  0262' 1683               	bsf	3,5	;RP0=1, select bank1
  2179  0263' 1303               	bcf	3,6	;RP1=0, select bank1
  2180  0264' 0080'              	movwf	??_main^(0+128)
  2181  0265' 0800'              	movf	??_main^(0+128),w
  2182  0266' 0080'              	movwf	_prr^(0+128)
  2183  0267'                    l4612:
  2184                           
  2185                           ;Lab_2/Lab_2.c: 160:         if (PIR1bits.RCIF == 1){
  2186  0267' 1283               	bcf	3,5	;RP0=0, select bank0
  2187  0268' 1303               	bcf	3,6	;RP1=0, select bank0
  2188  0269' 1E8C               	btfss	12,5	;volatile
  2189  026A' 2800'              	goto	u7191
  2190  026B' 2800'              	goto	u7190
  2191  026C'                    u7191:
  2192  026C' 2800'              	goto	l4616
  2193  026D'                    u7190:
  2194  026D'                    l4614:
  2195                           
  2196                           ;Lab_2/Lab_2.c: 161:             ingreso = USART_Rx();
  2197  026D' 120A' 118A' 2000' 120A' 118A' 	fcall	_USART_Rx
  2198  0272' 1683               	bsf	3,5	;RP0=1, select bank1
  2199  0273' 1303               	bcf	3,6	;RP1=0, select bank1
  2200  0274' 0080'              	movwf	??_main^(0+128)
  2201  0275' 0800'              	movf	??_main^(0+128),w
  2202  0276' 0080'              	movwf	_ingreso^(0+128)
  2203  0277'                    l4616:
  2204                           
  2205                           ;Lab_2/Lab_2.c: 164:         if(ingreso == '+'){
  2206  0277' 302B               	movlw	43
  2207  0278' 1683               	bsf	3,5	;RP0=1, select bank1
  2208  0279' 1303               	bcf	3,6	;RP1=0, select bank1
  2209  027A' 0600'              	xorwf	_ingreso^(0+128),w
  2210  027B' 1D03               	btfss	3,2
  2211  027C' 2800'              	goto	u7201
  2212  027D' 2800'              	goto	u7200
  2213  027E'                    u7201:
  2214  027E' 2800'              	goto	l4620
  2215  027F'                    u7200:
  2216  027F'                    l4618:
  2217                           
  2218                           ;Lab_2/Lab_2.c: 165:             PORTA++;
  2219  027F' 3001               	movlw	1
  2220  0280' 0080'              	movwf	??_main^(0+128)
  2221  0281' 0800'              	movf	??_main^(0+128),w
  2222  0282' 1283               	bcf	3,5	;RP0=0, select bank0
  2223  0283' 1303               	bcf	3,6	;RP1=0, select bank0
  2224  0284' 0785               	addwf	5,f	;volatile
  2225                           
  2226                           ;Lab_2/Lab_2.c: 166:         }else if(ingreso == '-'){
  2227  0285' 2800'              	goto	l4624
  2228  0286'                    l4620:
  2229  0286' 302D               	movlw	45
  2230  0287' 0600'              	xorwf	_ingreso^(0+128),w
  2231  0288' 1D03               	btfss	3,2
  2232  0289' 2800'              	goto	u7211
  2233  028A' 2800'              	goto	u7210
  2234  028B'                    u7211:
  2235  028B' 2800'              	goto	l4624
  2236  028C'                    u7210:
  2237  028C'                    l4622:
  2238                           
  2239                           ;Lab_2/Lab_2.c: 167:             PORTA--;
  2240  028C' 3001               	movlw	1
  2241  028D' 1283               	bcf	3,5	;RP0=0, select bank0
  2242  028E' 1303               	bcf	3,6	;RP1=0, select bank0
  2243  028F' 0285               	subwf	5,f	;volatile
  2244  0290'                    l4624:
  2245                           
  2246                           ;Lab_2/Lab_2.c: 169:         ingreso = 0;
  2247  0290' 1683               	bsf	3,5	;RP0=1, select bank1
  2248  0291' 1303               	bcf	3,6	;RP1=0, select bank1
  2249  0292' 0180'              	clrf	_ingreso^(0+128)
  2250  0293' 2800'              	goto	l4554
  2251  0294' 120A' 118A' 2800'  	ljmp	start
  2252  0297'                    __end_of_main:
  2253                           
  2254                           	psect	text1
  2255  0000'                    __ptext1:	
  2256 ;; *************** function _sprintf *****************
  2257 ;; Defined at:
  2258 ;;		line 505 in file "C:\Program Files\Microchip\xc8\v2.31\pic\sources\c90\common\doprnt.c"
  2259 ;; Parameters:    Size  Location     Type
  2260 ;;  sp              2    8[BANK1 ] PTR unsigned char 
  2261 ;;		 -> valor3(6), valor2(6), valor1(6), 
  2262 ;;  f               2   10[BANK1 ] PTR const unsigned char 
  2263 ;;		 -> STR_3(7), STR_2(7), STR_1(7), 
  2264 ;; Auto vars:     Size  Location     Type
  2265 ;;  fval            4   35[BANK1 ] PTR const unsigned char 
  2266 ;;  tmpval          4   29[BANK1 ] struct .
  2267 ;;  val             4   21[BANK1 ] unsigned long 
  2268 ;;  prec            2   39[BANK1 ] int 
  2269 ;;  eexp            2   33[BANK1 ] int 
  2270 ;;  width           2   27[BANK1 ] int 
  2271 ;;  flag            2   25[BANK1 ] unsigned short 
  2272 ;;  cp              2    0        PTR const unsigned char 
  2273 ;;  len             2    0        unsigned int 
  2274 ;;  c               1   41[BANK1 ] unsigned char 
  2275 ;;  ap              1   20[BANK1 ] PTR void [1]
  2276 ;;		 -> ?_sprintf(2), 
  2277 ;;  d               1    0        unsigned char 
  2278 ;; Return value:  Size  Location     Type
  2279 ;;                  2    8[BANK1 ] int 
  2280 ;; Registers used:
  2281 ;;		wreg, fsr0l, fsr0h, status,2, status,0, btemp+1, pclath, cstack
  2282 ;; Tracked objects:
  2283 ;;		On entry : 0/0
  2284 ;;		On exit  : 0/0
  2285 ;;		Unchanged: 0/0
  2286 ;; Data sizes:     COMMON   BANK0   BANK1   BANK3   BANK2
  2287 ;;      Params:         0       0       8       0       0
  2288 ;;      Locals:         0       0      26       0       0
  2289 ;;      Temps:          0       5       0       0       0
  2290 ;;      Totals:         0       5      34       0       0
  2291 ;;Total ram usage:       39 bytes
  2292 ;; Hardware stack levels used:    1
  2293 ;; Hardware stack levels required when called:    4
  2294 ;; This function calls:
  2295 ;;		___awdiv
  2296 ;;		___fladd
  2297 ;;		___fleq
  2298 ;;		___flge
  2299 ;;		___flmul
  2300 ;;		___flneg
  2301 ;;		___flsub
  2302 ;;		___fltol
  2303 ;;		___lldiv
  2304 ;;		___llmod
  2305 ;;		___wmul
  2306 ;;		___xxtofl
  2307 ;;		__div_to_l_
  2308 ;;		__tdiv_to_l_
  2309 ;;		_fround
  2310 ;;		_isdigit
  2311 ;;		_scale
  2312 ;; This function is called by:
  2313 ;;		_main
  2314 ;; This function uses a non-reentrant model
  2315 ;;
  2316                           
  2317                           
  2318                           ;psect for function _sprintf
  2319  0000'                    _sprintf:
  2320  0000'                    l4236:	
  2321                           ;incstack = 0
  2322                           ; Regs used in _sprintf: [wreg-fsr0h+status,2+status,0+btemp+1+pclath+cstack]
  2323                           
  2324                           
  2325                           ;C:\Program Files\Microchip\xc8\v2.31\pic\sources\c90\common\doprnt.c: 505: sprintf(char
      +                           * sp, const char * f, ...);C:\Program Files\Microchip\xc8\v2.31\pic\sources\c90\common\
      +                          doprnt.c: 506: {;C:\Program Files\Microchip\xc8\v2.31\pic\sources\c90\common\doprnt.c: 5
      +                          07:  va_list ap;;C:\Program Files\Microchip\xc8\v2.31\pic\sources\c90\common\doprnt.c: 5
      +                          12:  char c;;C:\Program Files\Microchip\xc8\v2.31\pic\sources\c90\common\doprnt.c: 514: 
      +                           int width;;C:\Program Files\Microchip\xc8\v2.31\pic\sources\c90\common\doprnt.c: 517:  
      +                          int prec;
  2326  0000' 3000'              	movlw	(low ((?_sprintf| 0+4)))& (0+255)
  2327  0001' 1283               	bcf	3,5	;RP0=0, select bank0
  2328  0002' 1303               	bcf	3,6	;RP1=0, select bank0
  2329  0003' 00CA'              	movwf	??_sprintf
  2330  0004' 084A'              	movf	??_sprintf,w
  2331  0005' 1683               	bsf	3,5	;RP0=1, select bank1
  2332  0006' 1303               	bcf	3,6	;RP1=0, select bank1
  2333  0007' 0080'              	movwf	sprintf@ap^(0+128)
  2334  0008'                    L1:
  2335                           
  2336                           ;C:\Program Files\Microchip\xc8\v2.31\pic\sources\c90\common\doprnt.c: 553:  while((c = 
      +                          *f++)) {
  2337  0008' 120A' 118A' 2800'  	goto	l4490
  2338  000B'                    l4238:
  2339                           
  2340                           ;C:\Program Files\Microchip\xc8\v2.31\pic\sources\c90\common\doprnt.c: 555:   if(c != '%
      +                          ')
  2341  000B' 3025               	movlw	37
  2342  000C' 0600'              	xorwf	sprintf@c^(0+128),w
  2343  000D' 1903               	btfsc	3,2
  2344  000E' 2800'              	goto	u6671
  2345  000F' 2800'              	goto	u6670
  2346  0010'                    u6671:
  2347  0010' 2800'              	goto	l4244
  2348  0011'                    u6670:
  2349  0011'                    l4240:
  2350                           
  2351                           ;C:\Program Files\Microchip\xc8\v2.31\pic\sources\c90\common\doprnt.c: 557:   {;C:\Progr
      +                          am Files\Microchip\xc8\v2.31\pic\sources\c90\common\doprnt.c: 558:    ((*sp++ = (c)));
  2352  0011' 0800'              	movf	sprintf@c^(0+128),w
  2353  0012' 1283               	bcf	3,5	;RP0=0, select bank0
  2354  0013' 1303               	bcf	3,6	;RP1=0, select bank0
  2355  0014' 00CA'              	movwf	??_sprintf
  2356  0015' 1683               	bsf	3,5	;RP0=1, select bank1
  2357  0016' 1303               	bcf	3,6	;RP1=0, select bank1
  2358  0017' 0800'              	movf	sprintf@sp^(0+128),w
  2359  0018' 0084               	movwf	4
  2360  0019' 1783               	bsf	3,7
  2361  001A' 1C00'              	btfss	(sprintf@sp+1)^(0+128),0
  2362  001B' 1383               	bcf	3,7
  2363  001C' 1283               	bcf	3,5	;RP0=0, select bank0
  2364  001D' 1303               	bcf	3,6	;RP1=0, select bank0
  2365  001E' 084A'              	movf	??_sprintf,w
  2366  001F' 0080               	movwf	0
  2367  0020'                    l4242:
  2368  0020' 3001               	movlw	1
  2369  0021' 1683               	bsf	3,5	;RP0=1, select bank1
  2370  0022' 1303               	bcf	3,6	;RP1=0, select bank1
  2371  0023' 0780'              	addwf	sprintf@sp^(0+128),f
  2372  0024' 1803               	skipnc
  2373  0025' 0A80'              	incf	(sprintf@sp+1)^(0+128),f
  2374  0026' 3000               	movlw	0
  2375  0027' 0780'              	addwf	(sprintf@sp+1)^(0+128),f
  2376                           
  2377                           ;C:\Program Files\Microchip\xc8\v2.31\pic\sources\c90\common\doprnt.c: 559:    continue;
  2378  0028' 2800'              	goto	L1
  2379  0029'                    l4244:
  2380                           
  2381                           ;C:\Program Files\Microchip\xc8\v2.31\pic\sources\c90\common\doprnt.c: 563:   width = 0;
  2382  0029' 0180'              	clrf	sprintf@width^(0+128)
  2383  002A' 0180'              	clrf	(sprintf@width+1)^(0+128)
  2384                           
  2385                           ;C:\Program Files\Microchip\xc8\v2.31\pic\sources\c90\common\doprnt.c: 565:   flag = 0;
  2386  002B' 0180'              	clrf	sprintf@flag^(0+128)
  2387  002C' 0180'              	clrf	(sprintf@flag+1)^(0+128)
  2388  002D'                    l4246:
  2389                           
  2390                           ;C:\Program Files\Microchip\xc8\v2.31\pic\sources\c90\common\doprnt.c: 614:   if(isdigit
      +                          ((unsigned)*f)) {
  2391  002D' 0800'              	movf	(sprintf@f+1)^(0+128),w
  2392  002E' 1283               	bcf	3,5	;RP0=0, select bank0
  2393  002F' 1303               	bcf	3,6	;RP1=0, select bank0
  2394  0030' 00FF               	movwf	btemp+1
  2395  0031' 1683               	bsf	3,5	;RP0=1, select bank1
  2396  0032' 1303               	bcf	3,6	;RP1=0, select bank1
  2397  0033' 0800'              	movf	sprintf@f^(0+128),w
  2398  0034' 0084               	movwf	4
  2399  0035' 1283               	bcf	3,5	;RP0=0, select bank0
  2400  0036' 1303               	bcf	3,6	;RP1=0, select bank0
  2401  0037' 120A' 118A' 2000' 120A' 118A' 	fcall	stringtab
  2402  003C' 120A' 118A' 2000' 120A' 118A' 	fcall	_isdigit
  2403  0041' 1C03               	btfss	3,0
  2404  0042' 2800'              	goto	u6681
  2405  0043' 2800'              	goto	u6680
  2406  0044'                    u6681:
  2407  0044' 2800'              	goto	l4258
  2408  0045'                    u6680:
  2409  0045'                    l4248:
  2410                           
  2411                           ;C:\Program Files\Microchip\xc8\v2.31\pic\sources\c90\common\doprnt.c: 615:    width = 0
      +                          ;
  2412  0045' 1683               	bsf	3,5	;RP0=1, select bank1
  2413  0046' 1303               	bcf	3,6	;RP1=0, select bank1
  2414  0047' 0180'              	clrf	sprintf@width^(0+128)
  2415  0048' 0180'              	clrf	(sprintf@width+1)^(0+128)
  2416  0049'                    l4250:
  2417                           
  2418                           ;C:\Program Files\Microchip\xc8\v2.31\pic\sources\c90\common\doprnt.c: 617:     width *=
      +                           10;
  2419  0049' 300A               	movlw	10
  2420  004A' 0082'              	movwf	___wmul@multiplier
  2421  004B' 3000               	movlw	0
  2422  004C' 0083'              	movwf	___wmul@multiplier+1
  2423  004D' 1683               	bsf	3,5	;RP0=1, select bank1
  2424  004E' 1303               	bcf	3,6	;RP1=0, select bank1
  2425  004F' 0800'              	movf	(sprintf@width+1)^(0+128),w
  2426  0050' 0085'              	movwf	___wmul@multiplicand+1
  2427  0051' 0800'              	movf	sprintf@width^(0+128),w
  2428  0052' 0084'              	movwf	___wmul@multiplicand
  2429  0053' 120A' 118A' 2000' 120A' 118A' 	fcall	___wmul
  2430  0058' 0803'              	movf	?___wmul+1,w
  2431  0059' 1683               	bsf	3,5	;RP0=1, select bank1
  2432  005A' 1303               	bcf	3,6	;RP1=0, select bank1
  2433  005B' 0080'              	movwf	(sprintf@width+1)^(0+128)
  2434  005C' 0802'              	movf	?___wmul,w
  2435  005D' 0080'              	movwf	sprintf@width^(0+128)
  2436  005E'                    l4252:
  2437                           
  2438                           ;C:\Program Files\Microchip\xc8\v2.31\pic\sources\c90\common\doprnt.c: 618:        width
      +                           += *f++ - '0';
  2439  005E' 0800'              	movf	(sprintf@f+1)^(0+128),w
  2440  005F' 1283               	bcf	3,5	;RP0=0, select bank0
  2441  0060' 1303               	bcf	3,6	;RP1=0, select bank0
  2442  0061' 00FF               	movwf	btemp+1
  2443  0062' 1683               	bsf	3,5	;RP0=1, select bank1
  2444  0063' 1303               	bcf	3,6	;RP1=0, select bank1
  2445  0064' 0800'              	movf	sprintf@f^(0+128),w
  2446  0065' 0084               	movwf	4
  2447  0066' 1283               	bcf	3,5	;RP0=0, select bank0
  2448  0067' 1303               	bcf	3,6	;RP1=0, select bank0
  2449  0068' 120A' 118A' 2000' 120A' 118A' 	fcall	stringtab
  2450  006D' 3ED0               	addlw	208
  2451  006E' 00CA'              	movwf	??_sprintf
  2452  006F' 30FF               	movlw	255
  2453  0070' 1803               	skipnc
  2454  0071' 3000               	movlw	0
  2455  0072' 00CB'              	movwf	??_sprintf+1
  2456  0073' 084A'              	movf	??_sprintf,w
  2457  0074' 1683               	bsf	3,5	;RP0=1, select bank1
  2458  0075' 1303               	bcf	3,6	;RP1=0, select bank1
  2459  0076' 0780'              	addwf	sprintf@width^(0+128),f
  2460  0077' 1803               	skipnc
  2461  0078' 0A80'              	incf	(sprintf@width+1)^(0+128),f
  2462  0079' 1283               	bcf	3,5	;RP0=0, select bank0
  2463  007A' 1303               	bcf	3,6	;RP1=0, select bank0
  2464  007B' 084B'              	movf	??_sprintf+1,w
  2465  007C' 1683               	bsf	3,5	;RP0=1, select bank1
  2466  007D' 1303               	bcf	3,6	;RP1=0, select bank1
  2467  007E' 0780'              	addwf	(sprintf@width+1)^(0+128),f
  2468  007F'                    l4254:
  2469  007F' 3001               	movlw	1
  2470  0080' 0780'              	addwf	sprintf@f^(0+128),f
  2471  0081' 1803               	skipnc
  2472  0082' 0A80'              	incf	(sprintf@f+1)^(0+128),f
  2473  0083' 3000               	movlw	0
  2474  0084' 0780'              	addwf	(sprintf@f+1)^(0+128),f
  2475  0085'                    l4256:
  2476                           
  2477                           ;C:\Program Files\Microchip\xc8\v2.31\pic\sources\c90\common\doprnt.c: 619:    } while(i
      +                          sdigit((unsigned)*f));
  2478  0085' 0800'              	movf	(sprintf@f+1)^(0+128),w
  2479  0086' 1283               	bcf	3,5	;RP0=0, select bank0
  2480  0087' 1303               	bcf	3,6	;RP1=0, select bank0
  2481  0088' 00FF               	movwf	btemp+1
  2482  0089' 1683               	bsf	3,5	;RP0=1, select bank1
  2483  008A' 1303               	bcf	3,6	;RP1=0, select bank1
  2484  008B' 0800'              	movf	sprintf@f^(0+128),w
  2485  008C' 0084               	movwf	4
  2486  008D' 1283               	bcf	3,5	;RP0=0, select bank0
  2487  008E' 1303               	bcf	3,6	;RP1=0, select bank0
  2488  008F' 120A' 118A' 2000' 120A' 118A' 	fcall	stringtab
  2489  0094' 120A' 118A' 2000' 120A' 118A' 	fcall	_isdigit
  2490  0099' 1803               	btfsc	3,0
  2491  009A' 2800'              	goto	u6691
  2492  009B' 2800'              	goto	u6690
  2493  009C'                    u6691:
  2494  009C' 2800'              	goto	l4250
  2495  009D'                    u6690:
  2496  009D'                    l4258:
  2497                           
  2498                           ;C:\Program Files\Microchip\xc8\v2.31\pic\sources\c90\common\doprnt.c: 628:   if(*f == '
      +                          .') {
  2499  009D' 1683               	bsf	3,5	;RP0=1, select bank1
  2500  009E' 1303               	bcf	3,6	;RP1=0, select bank1
  2501  009F' 0800'              	movf	(sprintf@f+1)^(0+128),w
  2502  00A0' 1283               	bcf	3,5	;RP0=0, select bank0
  2503  00A1' 1303               	bcf	3,6	;RP1=0, select bank0
  2504  00A2' 00FF               	movwf	btemp+1
  2505  00A3' 1683               	bsf	3,5	;RP0=1, select bank1
  2506  00A4' 1303               	bcf	3,6	;RP1=0, select bank1
  2507  00A5' 0800'              	movf	sprintf@f^(0+128),w
  2508  00A6' 0084               	movwf	4
  2509  00A7' 1283               	bcf	3,5	;RP0=0, select bank0
  2510  00A8' 1303               	bcf	3,6	;RP1=0, select bank0
  2511  00A9' 120A' 118A' 2000' 120A' 118A' 	fcall	stringtab
  2512  00AE' 3A2E               	xorlw	46
  2513  00AF' 1D03               	skipz
  2514  00B0' 2800'              	goto	u6701
  2515  00B1' 2800'              	goto	u6700
  2516  00B2'                    u6701:
  2517  00B2' 120A' 118A' 2800'  	goto	l4274
  2518  00B5'                    u6700:
  2519  00B5'                    l4260:
  2520                           
  2521                           ;C:\Program Files\Microchip\xc8\v2.31\pic\sources\c90\common\doprnt.c: 629:    flag |= 0
      +                          x4000;
  2522  00B5' 1683               	bsf	3,5	;RP0=1, select bank1
  2523  00B6' 1303               	bcf	3,6	;RP1=0, select bank1
  2524  00B7' 1701'              	bsf	(sprintf@flag^(0+128)+1),6
  2525  00B8'                    l4262:
  2526                           
  2527                           ;C:\Program Files\Microchip\xc8\v2.31\pic\sources\c90\common\doprnt.c: 630:    f++;
  2528  00B8' 3001               	movlw	1
  2529  00B9' 0780'              	addwf	sprintf@f^(0+128),f
  2530  00BA' 1803               	skipnc
  2531  00BB' 0A80'              	incf	(sprintf@f+1)^(0+128),f
  2532  00BC' 3000               	movlw	0
  2533  00BD' 0780'              	addwf	(sprintf@f+1)^(0+128),f
  2534  00BE'                    l4264:
  2535                           
  2536                           ;C:\Program Files\Microchip\xc8\v2.31\pic\sources\c90\common\doprnt.c: 644:    {;C:\Prog
      +                          ram Files\Microchip\xc8\v2.31\pic\sources\c90\common\doprnt.c: 645:     prec = 0;
  2537  00BE' 0180'              	clrf	sprintf@prec^(0+128)
  2538  00BF' 0180'              	clrf	(sprintf@prec+1)^(0+128)
  2539                           
  2540                           ;C:\Program Files\Microchip\xc8\v2.31\pic\sources\c90\common\doprnt.c: 646:     while(is
      +                          digit((unsigned)*f)) {
  2541  00C0' 2800'              	goto	l4272
  2542  00C1'                    l4266:
  2543                           
  2544                           ;C:\Program Files\Microchip\xc8\v2.31\pic\sources\c90\common\doprnt.c: 647:      prec *=
      +                           10;
  2545  00C1' 300A               	movlw	10
  2546  00C2' 0082'              	movwf	___wmul@multiplier
  2547  00C3' 3000               	movlw	0
  2548  00C4' 0083'              	movwf	___wmul@multiplier+1
  2549  00C5' 1683               	bsf	3,5	;RP0=1, select bank1
  2550  00C6' 1303               	bcf	3,6	;RP1=0, select bank1
  2551  00C7' 0800'              	movf	(sprintf@prec+1)^(0+128),w
  2552  00C8' 0085'              	movwf	___wmul@multiplicand+1
  2553  00C9' 0800'              	movf	sprintf@prec^(0+128),w
  2554  00CA' 0084'              	movwf	___wmul@multiplicand
  2555  00CB' 120A' 118A' 2000' 120A' 118A' 	fcall	___wmul
  2556  00D0' 0803'              	movf	?___wmul+1,w
  2557  00D1' 1683               	bsf	3,5	;RP0=1, select bank1
  2558  00D2' 1303               	bcf	3,6	;RP1=0, select bank1
  2559  00D3' 0080'              	movwf	(sprintf@prec+1)^(0+128)
  2560  00D4' 0802'              	movf	?___wmul,w
  2561  00D5' 0080'              	movwf	sprintf@prec^(0+128)
  2562  00D6'                    l4268:
  2563                           
  2564                           ;C:\Program Files\Microchip\xc8\v2.31\pic\sources\c90\common\doprnt.c: 648:         prec
      +                           += *f++ - '0';
  2565  00D6' 0800'              	movf	(sprintf@f+1)^(0+128),w
  2566  00D7' 1283               	bcf	3,5	;RP0=0, select bank0
  2567  00D8' 1303               	bcf	3,6	;RP1=0, select bank0
  2568  00D9' 00FF               	movwf	btemp+1
  2569  00DA' 1683               	bsf	3,5	;RP0=1, select bank1
  2570  00DB' 1303               	bcf	3,6	;RP1=0, select bank1
  2571  00DC' 0800'              	movf	sprintf@f^(0+128),w
  2572  00DD' 0084               	movwf	4
  2573  00DE' 1283               	bcf	3,5	;RP0=0, select bank0
  2574  00DF' 1303               	bcf	3,6	;RP1=0, select bank0
  2575  00E0' 120A' 118A' 2000' 120A' 118A' 	fcall	stringtab
  2576  00E5' 3ED0               	addlw	208
  2577  00E6' 00CA'              	movwf	??_sprintf
  2578  00E7' 30FF               	movlw	255
  2579  00E8' 1803               	skipnc
  2580  00E9' 3000               	movlw	0
  2581  00EA' 00CB'              	movwf	??_sprintf+1
  2582  00EB' 084A'              	movf	??_sprintf,w
  2583  00EC' 1683               	bsf	3,5	;RP0=1, select bank1
  2584  00ED' 1303               	bcf	3,6	;RP1=0, select bank1
  2585  00EE' 0780'              	addwf	sprintf@prec^(0+128),f
  2586  00EF' 1803               	skipnc
  2587  00F0' 0A80'              	incf	(sprintf@prec+1)^(0+128),f
  2588  00F1' 1283               	bcf	3,5	;RP0=0, select bank0
  2589  00F2' 1303               	bcf	3,6	;RP1=0, select bank0
  2590  00F3' 084B'              	movf	??_sprintf+1,w
  2591  00F4' 1683               	bsf	3,5	;RP0=1, select bank1
  2592  00F5' 1303               	bcf	3,6	;RP1=0, select bank1
  2593  00F6' 0780'              	addwf	(sprintf@prec+1)^(0+128),f
  2594  00F7'                    l4270:
  2595  00F7' 3001               	movlw	1
  2596  00F8' 0780'              	addwf	sprintf@f^(0+128),f
  2597  00F9' 1803               	skipnc
  2598  00FA' 0A80'              	incf	(sprintf@f+1)^(0+128),f
  2599  00FB' 3000               	movlw	0
  2600  00FC' 0780'              	addwf	(sprintf@f+1)^(0+128),f
  2601  00FD'                    l4272:
  2602                           
  2603                           ;C:\Program Files\Microchip\xc8\v2.31\pic\sources\c90\common\doprnt.c: 646:     while(is
      +                          digit((unsigned)*f)) {
  2604  00FD' 0800'              	movf	(sprintf@f+1)^(0+128),w
  2605  00FE' 1283               	bcf	3,5	;RP0=0, select bank0
  2606  00FF' 1303               	bcf	3,6	;RP1=0, select bank0
  2607  0100' 00FF               	movwf	btemp+1
  2608  0101' 1683               	bsf	3,5	;RP0=1, select bank1
  2609  0102' 1303               	bcf	3,6	;RP1=0, select bank1
  2610  0103' 0800'              	movf	sprintf@f^(0+128),w
  2611  0104' 0084               	movwf	4
  2612  0105' 1283               	bcf	3,5	;RP0=0, select bank0
  2613  0106' 1303               	bcf	3,6	;RP1=0, select bank0
  2614  0107' 120A' 118A' 2000' 120A' 118A' 	fcall	stringtab
  2615  010C' 120A' 118A' 2000' 120A' 118A' 	fcall	_isdigit
  2616  0111' 1803               	btfsc	3,0
  2617  0112' 2800'              	goto	u6711
  2618  0113' 2800'              	goto	u6710
  2619  0114'                    u6711:
  2620  0114' 2800'              	goto	l4266
  2621  0115'                    u6710:
  2622  0115' 120A' 118A' 2800'  	goto	l4280
  2623                           
  2624                           	psect	text2
  2625  0000'                    __ptext2:	
  2626 ;; *************** function _scale *****************
  2627 ;; Defined at:
  2628 ;;		line 433 in file "C:\Program Files\Microchip\xc8\v2.31\pic\sources\c90\common\doprnt.c"
  2629 ;; Parameters:    Size  Location     Type
  2630 ;;  scl             1    wreg     char 
  2631 ;; Auto vars:     Size  Location     Type
  2632 ;;  scl             1   52[BANK0 ] char 
  2633 ;; Return value:  Size  Location     Type
  2634 ;;                  4   34[BANK0 ] char 
  2635 ;; Registers used:
  2636 ;;		wreg, fsr0l, fsr0h, status,2, status,0, btemp+1, pclath, cstack
  2637 ;; Tracked objects:
  2638 ;;		On entry : 0/0
  2639 ;;		On exit  : 0/0
  2640 ;;		Unchanged: 0/0
  2641 ;; Data sizes:     COMMON   BANK0   BANK1   BANK3   BANK2
  2642 ;;      Params:         0       4       0       0       0
  2643 ;;      Locals:         0       5       0       0       0
  2644 ;;      Temps:          0      10       0       0       0
  2645 ;;      Totals:         0      19       0       0       0
  2646 ;;Total ram usage:       19 bytes
  2647 ;; Hardware stack levels used:    1
  2648 ;; Hardware stack levels required when called:    3
  2649 ;; This function calls:
  2650 ;;		___awdiv
  2651 ;;		___awmod
  2652 ;;		___flmul
  2653 ;; This function is called by:
  2654 ;;		_sprintf
  2655 ;; This function uses a non-reentrant model
  2656 ;;
  2657                           
  2658                           
  2659                           ;psect for function _scale
  2660  0000'                    _scale:
  2661                           
  2662                           ;incstack = 0
  2663                           ; Regs used in _scale: [wreg-fsr0h+status,2+status,0+btemp+1+pclath+cstack]
  2664                           ;scale@scl stored from wreg
  2665  0000' 1283               	bcf	3,5	;RP0=0, select bank0
  2666  0001' 1303               	bcf	3,6	;RP1=0, select bank0
  2667  0002' 00B4'              	movwf	scale@scl
  2668  0003'                    l4100:
  2669                           
  2670                           ;C:\Program Files\Microchip\xc8\v2.31\pic\sources\c90\common\doprnt.c: 433: scale(signed
      +                           char scl);C:\Program Files\Microchip\xc8\v2.31\pic\sources\c90\common\doprnt.c: 434: {;
      +                          C:\Program Files\Microchip\xc8\v2.31\pic\sources\c90\common\doprnt.c: 436:  if(scl < 0) 
      +                          {
  2671  0003' 1FB4'              	btfss	scale@scl,7
  2672  0004' 2800'              	goto	u6241
  2673  0005' 2800'              	goto	u6240
  2674  0006'                    u6241:
  2675  0006' 2800'              	goto	l4122
  2676  0007'                    u6240:
  2677  0007'                    l4102:
  2678                           
  2679                           ;C:\Program Files\Microchip\xc8\v2.31\pic\sources\c90\common\doprnt.c: 437:   scl = -scl
      +                          ;
  2680  0007' 09B4'              	comf	scale@scl,f
  2681  0008' 0AB4'              	incf	scale@scl,f
  2682  0009'                    l4104:
  2683                           
  2684                           ;C:\Program Files\Microchip\xc8\v2.31\pic\sources\c90\common\doprnt.c: 438:   if(scl>=11
      +                          0)
  2685  0009' 0834'              	movf	scale@scl,w
  2686  000A' 3A80               	xorlw	128
  2687  000B' 3E12               	addlw	-238
  2688  000C' 1C03               	skipc
  2689  000D' 2800'              	goto	u6251
  2690  000E' 2800'              	goto	u6250
  2691  000F'                    u6251:
  2692  000F' 2800'              	goto	l4112
  2693  0010'                    u6250:
  2694  0010'                    l4106:
  2695                           
  2696                           ;C:\Program Files\Microchip\xc8\v2.31\pic\sources\c90\common\doprnt.c: 439:    return _n
      +                          powers_[(unsigned char)(scl/100+18)] * _npowers_[(unsigned char)((scl%100)/10+9)] * _npo
      +                          wers_[(unsigned char)(scl%10)];
  2697  0010' 300A               	movlw	10
  2698  0011' 0080'              	movwf	___awdiv@divisor
  2699  0012' 3000               	movlw	0
  2700  0013' 0081'              	movwf	___awdiv@divisor+1
  2701  0014' 0834'              	movf	scale@scl,w
  2702  0015' 0084'              	movwf	___awmod@dividend
  2703  0016' 0185'              	clrf	___awmod@dividend+1
  2704  0017' 1B84'              	btfsc	___awmod@dividend,7
  2705  0018' 0385'              	decf	___awmod@dividend+1,f
  2706  0019' 3064               	movlw	100
  2707  001A' 0082'              	movwf	___awmod@divisor
  2708  001B' 3000               	movlw	0
  2709  001C' 0083'              	movwf	___awmod@divisor+1
  2710  001D' 120A' 118A' 2000' 120A' 118A' 	fcall	___awmod
  2711  0022' 0803'              	movf	?___awmod+1,w
  2712  0023' 1283               	bcf	3,5	;RP0=0, select bank0
  2713  0024' 1303               	bcf	3,6	;RP1=0, select bank0
  2714  0025' 0083'              	movwf	___awdiv@dividend+1
  2715  0026' 0802'              	movf	?___awmod,w
  2716  0027' 0082'              	movwf	___awdiv@dividend
  2717  0028' 120A' 118A' 2000' 120A' 118A' 	fcall	___awdiv
  2718  002D' 1283               	bcf	3,5	;RP0=0, select bank0
  2719  002E' 1303               	bcf	3,6	;RP1=0, select bank0
  2720  002F' 0800'              	movf	?___awdiv,w
  2721  0030' 00A6'              	movwf	??_scale
  2722  0031' 3001               	movlw	1
  2723  0032'                    u6265:
  2724  0032' 1003               	clrc
  2725  0033' 0DA6'              	rlf	??_scale,f
  2726  0034' 3EFF               	addlw	-1
  2727  0035' 1D03               	skipz
  2728  0036' 2800'              	goto	u6265
  2729  0037' 1003               	clrc
  2730  0038' 0D26'              	rlf	??_scale,w
  2731  0039' 3E24               	addlw	36
  2732  003A' 3E00'              	addlw	low (__npowers_| (0+32768))
  2733  003B' 0084               	movwf	4
  2734  003C' 3000'              	movlw	high (__npowers_| (0+32768))
  2735  003D' 1803               	skipnc
  2736  003E' 3E01               	addlw	1
  2737  003F' 00FF               	movwf	btemp+1
  2738  0040' 120A' 118A' 2000' 120A' 118A' 	fcall	stringtab
  2739  0045' 00A7'              	movwf	??_scale+1
  2740  0046' 120A' 118A' 2000' 120A' 118A' 	fcall	stringtab
  2741  004B' 00A8'              	movwf	??_scale+2
  2742  004C' 120A' 118A' 2000' 120A' 118A' 	fcall	stringtab
  2743  0051' 00A9'              	movwf	??_scale+3
  2744  0052' 120A' 118A' 2000' 120A' 118A' 	fcall	stringtab
  2745  0057' 00AA'              	movwf	??_scale+4
  2746  0058' 082A'              	movf	??_scale+4,w
  2747  0059' 008B'              	movwf	___flmul@b+3
  2748  005A' 0829'              	movf	??_scale+3,w
  2749  005B' 008A'              	movwf	___flmul@b+2
  2750  005C' 0828'              	movf	??_scale+2,w
  2751  005D' 0089'              	movwf	___flmul@b+1
  2752  005E' 0827'              	movf	??_scale+1,w
  2753  005F' 0088'              	movwf	___flmul@b
  2754  0060' 3064               	movlw	100
  2755  0061' 0080'              	movwf	___awdiv@divisor
  2756  0062' 3000               	movlw	0
  2757  0063' 0081'              	movwf	___awdiv@divisor+1
  2758  0064' 0834'              	movf	scale@scl,w
  2759  0065' 0082'              	movwf	___awdiv@dividend
  2760  0066' 0183'              	clrf	___awdiv@dividend+1
  2761  0067' 1B82'              	btfsc	___awdiv@dividend,7
  2762  0068' 0383'              	decf	___awdiv@dividend+1,f
  2763  0069' 120A' 118A' 2000' 120A' 118A' 	fcall	___awdiv
  2764  006E' 1283               	bcf	3,5	;RP0=0, select bank0
  2765  006F' 1303               	bcf	3,6	;RP1=0, select bank0
  2766  0070' 0800'              	movf	?___awdiv,w
  2767  0071' 00AB'              	movwf	??_scale+5
  2768  0072' 3001               	movlw	1
  2769  0073'                    u6275:
  2770  0073' 1003               	clrc
  2771  0074' 0DAB'              	rlf	??_scale+5,f
  2772  0075' 3EFF               	addlw	-1
  2773  0076' 1D03               	skipz
  2774  0077' 2800'              	goto	u6275
  2775  0078' 1003               	clrc
  2776  0079' 0D2B'              	rlf	??_scale+5,w
  2777  007A' 3E48               	addlw	72
  2778  007B' 3E00'              	addlw	low (__npowers_| (0+32768))
  2779  007C' 0084               	movwf	4
  2780  007D' 3000'              	movlw	high (__npowers_| (0+32768))
  2781  007E' 1803               	skipnc
  2782  007F' 3E01               	addlw	1
  2783  0080' 00FF               	movwf	btemp+1
  2784  0081' 120A' 118A' 2000' 120A' 118A' 	fcall	stringtab
  2785  0086' 00AC'              	movwf	??_scale+6
  2786  0087' 120A' 118A' 2000' 120A' 118A' 	fcall	stringtab
  2787  008C' 00AD'              	movwf	??_scale+7
  2788  008D' 120A' 118A' 2000' 120A' 118A' 	fcall	stringtab
  2789  0092' 00AE'              	movwf	??_scale+8
  2790  0093' 120A' 118A' 2000' 120A' 118A' 	fcall	stringtab
  2791  0098' 00AF'              	movwf	??_scale+9
  2792  0099' 082F'              	movf	??_scale+9,w
  2793  009A' 008F'              	movwf	___flmul@a+3
  2794  009B' 082E'              	movf	??_scale+8,w
  2795  009C' 008E'              	movwf	___flmul@a+2
  2796  009D' 082D'              	movf	??_scale+7,w
  2797  009E' 008D'              	movwf	___flmul@a+1
  2798  009F' 082C'              	movf	??_scale+6,w
  2799  00A0' 008C'              	movwf	___flmul@a
  2800  00A1' 120A' 118A' 2000' 120A' 118A' 	fcall	___flmul
  2801  00A6' 1283               	bcf	3,5	;RP0=0, select bank0
  2802  00A7' 1303               	bcf	3,6	;RP1=0, select bank0
  2803  00A8' 080B'              	movf	?___flmul+3,w
  2804  00A9' 00B3'              	movwf	_scale$1191+3
  2805  00AA' 080A'              	movf	?___flmul+2,w
  2806  00AB' 00B2'              	movwf	_scale$1191+2
  2807  00AC' 0809'              	movf	?___flmul+1,w
  2808  00AD' 00B1'              	movwf	_scale$1191+1
  2809  00AE' 0808'              	movf	?___flmul,w
  2810  00AF' 00B0'              	movwf	_scale$1191
  2811                           
  2812                           ;C:\Program Files\Microchip\xc8\v2.31\pic\sources\c90\common\doprnt.c: 439:    return _n
      +                          powers_[(unsigned char)(scl/100+18)] * _npowers_[(unsigned char)((scl%100)/10+9)] * _npo
      +                          wers_[(unsigned char)(scl%10)];
  2813  00B0' 300A               	movlw	10
  2814  00B1' 0082'              	movwf	___awmod@divisor
  2815  00B2' 3000               	movlw	0
  2816  00B3' 0083'              	movwf	___awmod@divisor+1
  2817  00B4' 0834'              	movf	scale@scl,w
  2818  00B5' 0084'              	movwf	___awmod@dividend
  2819  00B6' 0185'              	clrf	___awmod@dividend+1
  2820  00B7' 1B84'              	btfsc	___awmod@dividend,7
  2821  00B8' 0385'              	decf	___awmod@dividend+1,f
  2822  00B9' 120A' 118A' 2000' 120A' 118A' 	fcall	___awmod
  2823  00BE' 0802'              	movf	?___awmod,w
  2824  00BF' 1283               	bcf	3,5	;RP0=0, select bank0
  2825  00C0' 1303               	bcf	3,6	;RP1=0, select bank0
  2826  00C1' 00A6'              	movwf	??_scale
  2827  00C2' 3001               	movlw	1
  2828  00C3'                    u6285:
  2829  00C3' 1003               	clrc
  2830  00C4' 0DA6'              	rlf	??_scale,f
  2831  00C5' 3EFF               	addlw	-1
  2832  00C6' 1D03               	skipz
  2833  00C7' 2800'              	goto	u6285
  2834  00C8' 1003               	clrc
  2835  00C9' 0D26'              	rlf	??_scale,w
  2836  00CA' 3E00'              	addlw	low (__npowers_| (0+32768))
  2837  00CB' 0084               	movwf	4
  2838  00CC' 3000'              	movlw	high (__npowers_| (0+32768))
  2839  00CD' 1803               	skipnc
  2840  00CE' 3E01               	addlw	1
  2841  00CF' 00FF               	movwf	btemp+1
  2842  00D0' 120A' 118A' 2000' 120A' 118A' 	fcall	stringtab
  2843  00D5' 00A7'              	movwf	??_scale+1
  2844  00D6' 120A' 118A' 2000' 120A' 118A' 	fcall	stringtab
  2845  00DB' 00A8'              	movwf	??_scale+2
  2846  00DC' 120A' 118A' 2000' 120A' 118A' 	fcall	stringtab
  2847  00E1' 00A9'              	movwf	??_scale+3
  2848  00E2' 120A' 118A' 2000' 120A' 118A' 	fcall	stringtab
  2849  00E7' 00AA'              	movwf	??_scale+4
  2850  00E8' 082A'              	movf	??_scale+4,w
  2851  00E9' 008B'              	movwf	___flmul@b+3
  2852  00EA' 0829'              	movf	??_scale+3,w
  2853  00EB' 008A'              	movwf	___flmul@b+2
  2854  00EC' 0828'              	movf	??_scale+2,w
  2855  00ED' 0089'              	movwf	___flmul@b+1
  2856  00EE' 0827'              	movf	??_scale+1,w
  2857  00EF' 0088'              	movwf	___flmul@b
  2858  00F0' 0833'              	movf	_scale$1191+3,w
  2859  00F1' 008F'              	movwf	___flmul@a+3
  2860  00F2' 0832'              	movf	_scale$1191+2,w
  2861  00F3' 008E'              	movwf	___flmul@a+2
  2862  00F4' 0831'              	movf	_scale$1191+1,w
  2863  00F5' 008D'              	movwf	___flmul@a+1
  2864  00F6' 0830'              	movf	_scale$1191,w
  2865  00F7' 008C'              	movwf	___flmul@a
  2866  00F8' 120A' 118A' 2000' 120A' 118A' 	fcall	___flmul
  2867  00FD' 1283               	bcf	3,5	;RP0=0, select bank0
  2868  00FE' 1303               	bcf	3,6	;RP1=0, select bank0
  2869  00FF' 080B'              	movf	?___flmul+3,w
  2870  0100' 00A5'              	movwf	?_scale+3
  2871  0101' 080A'              	movf	?___flmul+2,w
  2872  0102' 00A4'              	movwf	?_scale+2
  2873  0103' 0809'              	movf	?___flmul+1,w
  2874  0104' 00A3'              	movwf	?_scale+1
  2875  0105' 0808'              	movf	?___flmul,w
  2876  0106' 00A2'              	movwf	?_scale
  2877  0107' 2800'              	goto	l312
  2878  0108'                    l4112:
  2879  0108' 0834'              	movf	scale@scl,w
  2880  0109' 3A80               	xorlw	128
  2881  010A' 3E75               	addlw	-139
  2882  010B' 1C03               	skipc
  2883  010C' 2800'              	goto	u6291
  2884  010D' 2800'              	goto	u6290
  2885  010E'                    u6291:
  2886  010E' 2800'              	goto	l4118
  2887  010F'                    u6290:
  2888  010F'                    l4114:
  2889                           
  2890                           ;C:\Program Files\Microchip\xc8\v2.31\pic\sources\c90\common\doprnt.c: 441:    return _n
      +                          powers_[(unsigned char)(scl/10+9)] * _npowers_[(unsigned char)(scl%10)];
  2891  010F' 300A               	movlw	10
  2892  0110' 0082'              	movwf	___awmod@divisor
  2893  0111' 3000               	movlw	0
  2894  0112' 0083'              	movwf	___awmod@divisor+1
  2895  0113' 0834'              	movf	scale@scl,w
  2896  0114' 0084'              	movwf	___awmod@dividend
  2897  0115' 0185'              	clrf	___awmod@dividend+1
  2898  0116' 1B84'              	btfsc	___awmod@dividend,7
  2899  0117' 0385'              	decf	___awmod@dividend+1,f
  2900  0118' 120A' 118A' 2000' 120A' 118A' 	fcall	___awmod
  2901  011D' 0802'              	movf	?___awmod,w
  2902  011E' 1283               	bcf	3,5	;RP0=0, select bank0
  2903  011F' 1303               	bcf	3,6	;RP1=0, select bank0
  2904  0120' 00A6'              	movwf	??_scale
  2905  0121' 3001               	movlw	1
  2906  0122'                    u6305:
  2907  0122' 1003               	clrc
  2908  0123' 0DA6'              	rlf	??_scale,f
  2909  0124' 3EFF               	addlw	-1
  2910  0125' 1D03               	skipz
  2911  0126' 2800'              	goto	u6305
  2912  0127' 1003               	clrc
  2913  0128' 0D26'              	rlf	??_scale,w
  2914  0129' 3E00'              	addlw	low (__npowers_| (0+32768))
  2915  012A' 0084               	movwf	4
  2916  012B' 3000'              	movlw	high (__npowers_| (0+32768))
  2917  012C' 1803               	skipnc
  2918  012D' 3E01               	addlw	1
  2919  012E' 00FF               	movwf	btemp+1
  2920  012F' 120A' 118A' 2000' 120A' 118A' 	fcall	stringtab
  2921  0134' 00A7'              	movwf	??_scale+1
  2922  0135' 120A' 118A' 2000' 120A' 118A' 	fcall	stringtab
  2923  013A' 00A8'              	movwf	??_scale+2
  2924  013B' 120A' 118A' 2000' 120A' 118A' 	fcall	stringtab
  2925  0140' 00A9'              	movwf	??_scale+3
  2926  0141' 120A' 118A' 2000' 120A' 118A' 	fcall	stringtab
  2927  0146' 00AA'              	movwf	??_scale+4
  2928  0147' 082A'              	movf	??_scale+4,w
  2929  0148' 008B'              	movwf	___flmul@b+3
  2930  0149' 0829'              	movf	??_scale+3,w
  2931  014A' 008A'              	movwf	___flmul@b+2
  2932  014B' 0828'              	movf	??_scale+2,w
  2933  014C' 0089'              	movwf	___flmul@b+1
  2934  014D' 0827'              	movf	??_scale+1,w
  2935  014E' 0088'              	movwf	___flmul@b
  2936  014F' 300A               	movlw	10
  2937  0150' 0080'              	movwf	___awdiv@divisor
  2938  0151' 3000               	movlw	0
  2939  0152' 0081'              	movwf	___awdiv@divisor+1
  2940  0153' 0834'              	movf	scale@scl,w
  2941  0154' 0082'              	movwf	___awdiv@dividend
  2942  0155' 0183'              	clrf	___awdiv@dividend+1
  2943  0156' 1B82'              	btfsc	___awdiv@dividend,7
  2944  0157' 0383'              	decf	___awdiv@dividend+1,f
  2945  0158' 120A' 118A' 2000' 120A' 118A' 	fcall	___awdiv
  2946  015D' 1283               	bcf	3,5	;RP0=0, select bank0
  2947  015E' 1303               	bcf	3,6	;RP1=0, select bank0
  2948  015F' 0800'              	movf	?___awdiv,w
  2949  0160' 00AB'              	movwf	??_scale+5
  2950  0161' 3001               	movlw	1
  2951  0162'                    u6315:
  2952  0162' 1003               	clrc
  2953  0163' 0DAB'              	rlf	??_scale+5,f
  2954  0164' 3EFF               	addlw	-1
  2955  0165' 1D03               	skipz
  2956  0166' 2800'              	goto	u6315
  2957  0167' 1003               	clrc
  2958  0168' 0D2B'              	rlf	??_scale+5,w
  2959  0169' 3E24               	addlw	36
  2960  016A' 3E00'              	addlw	low (__npowers_| (0+32768))
  2961  016B' 0084               	movwf	4
  2962  016C' 3000'              	movlw	high (__npowers_| (0+32768))
  2963  016D' 1803               	skipnc
  2964  016E' 3E01               	addlw	1
  2965  016F' 00FF               	movwf	btemp+1
  2966  0170' 120A' 118A' 2000' 120A' 118A' 	fcall	stringtab
  2967  0175' 00AC'              	movwf	??_scale+6
  2968  0176' 120A' 118A' 2000' 120A' 118A' 	fcall	stringtab
  2969  017B' 00AD'              	movwf	??_scale+7
  2970  017C' 120A' 118A' 2000' 120A' 118A' 	fcall	stringtab
  2971  0181' 00AE'              	movwf	??_scale+8
  2972  0182' 120A' 118A' 2000' 120A' 118A' 	fcall	stringtab
  2973  0187' 00AF'              	movwf	??_scale+9
  2974  0188' 082F'              	movf	??_scale+9,w
  2975  0189' 008F'              	movwf	___flmul@a+3
  2976  018A' 082E'              	movf	??_scale+8,w
  2977  018B' 008E'              	movwf	___flmul@a+2
  2978  018C' 082D'              	movf	??_scale+7,w
  2979  018D' 008D'              	movwf	___flmul@a+1
  2980  018E' 082C'              	movf	??_scale+6,w
  2981  018F' 008C'              	movwf	___flmul@a
  2982  0190' 120A' 118A' 2000' 120A' 118A' 	fcall	___flmul
  2983  0195' 1283               	bcf	3,5	;RP0=0, select bank0
  2984  0196' 1303               	bcf	3,6	;RP1=0, select bank0
  2985  0197' 080B'              	movf	?___flmul+3,w
  2986  0198' 00A5'              	movwf	?_scale+3
  2987  0199' 080A'              	movf	?___flmul+2,w
  2988  019A' 00A4'              	movwf	?_scale+2
  2989  019B' 0809'              	movf	?___flmul+1,w
  2990  019C' 00A3'              	movwf	?_scale+1
  2991  019D' 0808'              	movf	?___flmul,w
  2992  019E' 00A2'              	movwf	?_scale
  2993  019F' 2800'              	goto	l312
  2994  01A0'                    l4118:
  2995                           
  2996                           ;C:\Program Files\Microchip\xc8\v2.31\pic\sources\c90\common\doprnt.c: 442:   return _np
      +                          owers_[(unsigned char)scl];
  2997  01A0' 0834'              	movf	scale@scl,w
  2998  01A1' 00A6'              	movwf	??_scale
  2999  01A2' 3001               	movlw	1
  3000  01A3'                    u6325:
  3001  01A3' 1003               	clrc
  3002  01A4' 0DA6'              	rlf	??_scale,f
  3003  01A5' 3EFF               	addlw	-1
  3004  01A6' 1D03               	skipz
  3005  01A7' 2800'              	goto	u6325
  3006  01A8' 1003               	clrc
  3007  01A9' 0D26'              	rlf	??_scale,w
  3008  01AA' 3E00'              	addlw	low (__npowers_| (0+32768))
  3009  01AB' 0084               	movwf	4
  3010  01AC' 3000'              	movlw	high (__npowers_| (0+32768))
  3011  01AD' 1803               	skipnc
  3012  01AE' 3E01               	addlw	1
  3013  01AF' 00FF               	movwf	btemp+1
  3014  01B0' 120A' 118A' 2000' 120A' 118A' 	fcall	stringtab
  3015  01B5' 00A7'              	movwf	??_scale+1
  3016  01B6' 120A' 118A' 2000' 120A' 118A' 	fcall	stringtab
  3017  01BB' 00A8'              	movwf	??_scale+2
  3018  01BC' 120A' 118A' 2000' 120A' 118A' 	fcall	stringtab
  3019  01C1' 00A9'              	movwf	??_scale+3
  3020  01C2' 120A' 118A' 2000' 120A' 118A' 	fcall	stringtab
  3021  01C7' 00AA'              	movwf	??_scale+4
  3022  01C8' 082A'              	movf	??_scale+4,w
  3023  01C9' 00A5'              	movwf	?_scale+3
  3024  01CA' 0829'              	movf	??_scale+3,w
  3025  01CB' 00A4'              	movwf	?_scale+2
  3026  01CC' 0828'              	movf	??_scale+2,w
  3027  01CD' 00A3'              	movwf	?_scale+1
  3028  01CE' 0827'              	movf	??_scale+1,w
  3029  01CF' 00A2'              	movwf	?_scale
  3030  01D0' 2800'              	goto	l312
  3031  01D1'                    l4122:
  3032                           
  3033                           ;C:\Program Files\Microchip\xc8\v2.31\pic\sources\c90\common\doprnt.c: 444:  if(scl>=110
      +                          )
  3034  01D1' 0834'              	movf	scale@scl,w
  3035  01D2' 3A80               	xorlw	128
  3036  01D3' 3E12               	addlw	-238
  3037  01D4' 1C03               	skipc
  3038  01D5' 2800'              	goto	u6331
  3039  01D6' 2800'              	goto	u6330
  3040  01D7'                    u6331:
  3041  01D7' 2800'              	goto	l4130
  3042  01D8'                    u6330:
  3043  01D8'                    l4124:
  3044                           
  3045                           ;C:\Program Files\Microchip\xc8\v2.31\pic\sources\c90\common\doprnt.c: 445:   return _po
      +                          wers_[(unsigned char)(scl/100+18)] * _powers_[(unsigned char)((scl%100)/10+9)] * _powers
      +                          _[(unsigned char)(scl%10)];
  3046  01D8' 300A               	movlw	10
  3047  01D9' 0080'              	movwf	___awdiv@divisor
  3048  01DA' 3000               	movlw	0
  3049  01DB' 0081'              	movwf	___awdiv@divisor+1
  3050  01DC' 0834'              	movf	scale@scl,w
  3051  01DD' 0084'              	movwf	___awmod@dividend
  3052  01DE' 0185'              	clrf	___awmod@dividend+1
  3053  01DF' 1B84'              	btfsc	___awmod@dividend,7
  3054  01E0' 0385'              	decf	___awmod@dividend+1,f
  3055  01E1' 3064               	movlw	100
  3056  01E2' 0082'              	movwf	___awmod@divisor
  3057  01E3' 3000               	movlw	0
  3058  01E4' 0083'              	movwf	___awmod@divisor+1
  3059  01E5' 120A' 118A' 2000' 120A' 118A' 	fcall	___awmod
  3060  01EA' 0803'              	movf	?___awmod+1,w
  3061  01EB' 1283               	bcf	3,5	;RP0=0, select bank0
  3062  01EC' 1303               	bcf	3,6	;RP1=0, select bank0
  3063  01ED' 0083'              	movwf	___awdiv@dividend+1
  3064  01EE' 0802'              	movf	?___awmod,w
  3065  01EF' 0082'              	movwf	___awdiv@dividend
  3066  01F0' 120A' 118A' 2000' 120A' 118A' 	fcall	___awdiv
  3067  01F5' 1283               	bcf	3,5	;RP0=0, select bank0
  3068  01F6' 1303               	bcf	3,6	;RP1=0, select bank0
  3069  01F7' 0800'              	movf	?___awdiv,w
  3070  01F8' 00A6'              	movwf	??_scale
  3071  01F9' 3001               	movlw	1
  3072  01FA'                    u6345:
  3073  01FA' 1003               	clrc
  3074  01FB' 0DA6'              	rlf	??_scale,f
  3075  01FC' 3EFF               	addlw	-1
  3076  01FD' 1D03               	skipz
  3077  01FE' 2800'              	goto	u6345
  3078  01FF' 1003               	clrc
  3079  0200' 0D26'              	rlf	??_scale,w
  3080  0201' 3E24               	addlw	36
  3081  0202' 3E00'              	addlw	low (__powers_| (0+32768))
  3082  0203' 0084               	movwf	4
  3083  0204' 3000'              	movlw	high (__powers_| (0+32768))
  3084  0205' 1803               	skipnc
  3085  0206' 3E01               	addlw	1
  3086  0207' 00FF               	movwf	btemp+1
  3087  0208' 120A' 118A' 2000' 120A' 118A' 	fcall	stringtab
  3088  020D' 00A7'              	movwf	??_scale+1
  3089  020E' 120A' 118A' 2000' 120A' 118A' 	fcall	stringtab
  3090  0213' 00A8'              	movwf	??_scale+2
  3091  0214' 120A' 118A' 2000' 120A' 118A' 	fcall	stringtab
  3092  0219' 00A9'              	movwf	??_scale+3
  3093  021A' 120A' 118A' 2000' 120A' 118A' 	fcall	stringtab
  3094  021F' 00AA'              	movwf	??_scale+4
  3095  0220' 082A'              	movf	??_scale+4,w
  3096  0221' 008B'              	movwf	___flmul@b+3
  3097  0222' 0829'              	movf	??_scale+3,w
  3098  0223' 008A'              	movwf	___flmul@b+2
  3099  0224' 0828'              	movf	??_scale+2,w
  3100  0225' 0089'              	movwf	___flmul@b+1
  3101  0226' 0827'              	movf	??_scale+1,w
  3102  0227' 0088'              	movwf	___flmul@b
  3103  0228' 3064               	movlw	100
  3104  0229' 0080'              	movwf	___awdiv@divisor
  3105  022A' 3000               	movlw	0
  3106  022B' 0081'              	movwf	___awdiv@divisor+1
  3107  022C' 0834'              	movf	scale@scl,w
  3108  022D' 0082'              	movwf	___awdiv@dividend
  3109  022E' 0183'              	clrf	___awdiv@dividend+1
  3110  022F' 1B82'              	btfsc	___awdiv@dividend,7
  3111  0230' 0383'              	decf	___awdiv@dividend+1,f
  3112  0231' 120A' 118A' 2000' 120A' 118A' 	fcall	___awdiv
  3113  0236' 1283               	bcf	3,5	;RP0=0, select bank0
  3114  0237' 1303               	bcf	3,6	;RP1=0, select bank0
  3115  0238' 0800'              	movf	?___awdiv,w
  3116  0239' 00AB'              	movwf	??_scale+5
  3117  023A' 3001               	movlw	1
  3118  023B'                    u6355:
  3119  023B' 1003               	clrc
  3120  023C' 0DAB'              	rlf	??_scale+5,f
  3121  023D' 3EFF               	addlw	-1
  3122  023E' 1D03               	skipz
  3123  023F' 2800'              	goto	u6355
  3124  0240' 1003               	clrc
  3125  0241' 0D2B'              	rlf	??_scale+5,w
  3126  0242' 3E48               	addlw	72
  3127  0243' 3E00'              	addlw	low (__powers_| (0+32768))
  3128  0244' 0084               	movwf	4
  3129  0245' 3000'              	movlw	high (__powers_| (0+32768))
  3130  0246' 1803               	skipnc
  3131  0247' 3E01               	addlw	1
  3132  0248' 00FF               	movwf	btemp+1
  3133  0249' 120A' 118A' 2000' 120A' 118A' 	fcall	stringtab
  3134  024E' 00AC'              	movwf	??_scale+6
  3135  024F' 120A' 118A' 2000' 120A' 118A' 	fcall	stringtab
  3136  0254' 00AD'              	movwf	??_scale+7
  3137  0255' 120A' 118A' 2000' 120A' 118A' 	fcall	stringtab
  3138  025A' 00AE'              	movwf	??_scale+8
  3139  025B' 120A' 118A' 2000' 120A' 118A' 	fcall	stringtab
  3140  0260' 00AF'              	movwf	??_scale+9
  3141  0261' 082F'              	movf	??_scale+9,w
  3142  0262' 008F'              	movwf	___flmul@a+3
  3143  0263' 082E'              	movf	??_scale+8,w
  3144  0264' 008E'              	movwf	___flmul@a+2
  3145  0265' 082D'              	movf	??_scale+7,w
  3146  0266' 008D'              	movwf	___flmul@a+1
  3147  0267' 082C'              	movf	??_scale+6,w
  3148  0268' 008C'              	movwf	___flmul@a
  3149  0269' 120A' 118A' 2000' 120A' 118A' 	fcall	___flmul
  3150  026E' 1283               	bcf	3,5	;RP0=0, select bank0
  3151  026F' 1303               	bcf	3,6	;RP1=0, select bank0
  3152  0270' 080B'              	movf	?___flmul+3,w
  3153  0271' 00B3'              	movwf	_scale$1191+3
  3154  0272' 080A'              	movf	?___flmul+2,w
  3155  0273' 00B2'              	movwf	_scale$1191+2
  3156  0274' 0809'              	movf	?___flmul+1,w
  3157  0275' 00B1'              	movwf	_scale$1191+1
  3158  0276' 0808'              	movf	?___flmul,w
  3159  0277' 00B0'              	movwf	_scale$1191
  3160                           
  3161                           ;C:\Program Files\Microchip\xc8\v2.31\pic\sources\c90\common\doprnt.c: 445:   return _po
      +                          wers_[(unsigned char)(scl/100+18)] * _powers_[(unsigned char)((scl%100)/10+9)] * _powers
      +                          _[(unsigned char)(scl%10)];
  3162  0278' 300A               	movlw	10
  3163  0279' 0082'              	movwf	___awmod@divisor
  3164  027A' 3000               	movlw	0
  3165  027B' 0083'              	movwf	___awmod@divisor+1
  3166  027C' 0834'              	movf	scale@scl,w
  3167  027D' 0084'              	movwf	___awmod@dividend
  3168  027E' 0185'              	clrf	___awmod@dividend+1
  3169  027F' 1B84'              	btfsc	___awmod@dividend,7
  3170  0280' 0385'              	decf	___awmod@dividend+1,f
  3171  0281' 120A' 118A' 2000' 120A' 118A' 	fcall	___awmod
  3172  0286' 0802'              	movf	?___awmod,w
  3173  0287' 1283               	bcf	3,5	;RP0=0, select bank0
  3174  0288' 1303               	bcf	3,6	;RP1=0, select bank0
  3175  0289' 00A6'              	movwf	??_scale
  3176  028A' 3001               	movlw	1
  3177  028B'                    u6365:
  3178  028B' 1003               	clrc
  3179  028C' 0DA6'              	rlf	??_scale,f
  3180  028D' 3EFF               	addlw	-1
  3181  028E' 1D03               	skipz
  3182  028F' 2800'              	goto	u6365
  3183  0290' 1003               	clrc
  3184  0291' 0D26'              	rlf	??_scale,w
  3185  0292' 3E00'              	addlw	low (__powers_| (0+32768))
  3186  0293' 0084               	movwf	4
  3187  0294' 3000'              	movlw	high (__powers_| (0+32768))
  3188  0295' 1803               	skipnc
  3189  0296' 3E01               	addlw	1
  3190  0297' 00FF               	movwf	btemp+1
  3191  0298' 120A' 118A' 2000' 120A' 118A' 	fcall	stringtab
  3192  029D' 00A7'              	movwf	??_scale+1
  3193  029E' 120A' 118A' 2000' 120A' 118A' 	fcall	stringtab
  3194  02A3' 00A8'              	movwf	??_scale+2
  3195  02A4' 120A' 118A' 2000' 120A' 118A' 	fcall	stringtab
  3196  02A9' 00A9'              	movwf	??_scale+3
  3197  02AA' 120A' 118A' 2000' 120A' 118A' 	fcall	stringtab
  3198  02AF' 00AA'              	movwf	??_scale+4
  3199  02B0' 082A'              	movf	??_scale+4,w
  3200  02B1' 008B'              	movwf	___flmul@b+3
  3201  02B2' 0829'              	movf	??_scale+3,w
  3202  02B3' 008A'              	movwf	___flmul@b+2
  3203  02B4' 0828'              	movf	??_scale+2,w
  3204  02B5' 0089'              	movwf	___flmul@b+1
  3205  02B6' 0827'              	movf	??_scale+1,w
  3206  02B7' 0088'              	movwf	___flmul@b
  3207  02B8' 0833'              	movf	_scale$1191+3,w
  3208  02B9' 008F'              	movwf	___flmul@a+3
  3209  02BA' 0832'              	movf	_scale$1191+2,w
  3210  02BB' 008E'              	movwf	___flmul@a+2
  3211  02BC' 0831'              	movf	_scale$1191+1,w
  3212  02BD' 008D'              	movwf	___flmul@a+1
  3213  02BE' 0830'              	movf	_scale$1191,w
  3214  02BF' 008C'              	movwf	___flmul@a
  3215  02C0' 120A' 118A' 2000' 120A' 118A' 	fcall	___flmul
  3216  02C5' 1283               	bcf	3,5	;RP0=0, select bank0
  3217  02C6' 1303               	bcf	3,6	;RP1=0, select bank0
  3218  02C7' 080B'              	movf	?___flmul+3,w
  3219  02C8' 00A5'              	movwf	?_scale+3
  3220  02C9' 080A'              	movf	?___flmul+2,w
  3221  02CA' 00A4'              	movwf	?_scale+2
  3222  02CB' 0809'              	movf	?___flmul+1,w
  3223  02CC' 00A3'              	movwf	?_scale+1
  3224  02CD' 0808'              	movf	?___flmul,w
  3225  02CE' 00A2'              	movwf	?_scale
  3226  02CF' 2800'              	goto	l312
  3227  02D0'                    l4130:
  3228  02D0' 0834'              	movf	scale@scl,w
  3229  02D1' 3A80               	xorlw	128
  3230  02D2' 3E75               	addlw	-139
  3231  02D3' 1C03               	skipc
  3232  02D4' 2800'              	goto	u6371
  3233  02D5' 2800'              	goto	u6370
  3234  02D6'                    u6371:
  3235  02D6' 2800'              	goto	l4136
  3236  02D7'                    u6370:
  3237  02D7'                    l4132:
  3238                           
  3239                           ;C:\Program Files\Microchip\xc8\v2.31\pic\sources\c90\common\doprnt.c: 447:   return _po
      +                          wers_[(unsigned char)(scl/10+9)] * _powers_[(unsigned char)(scl%10)];
  3240  02D7' 300A               	movlw	10
  3241  02D8' 0082'              	movwf	___awmod@divisor
  3242  02D9' 3000               	movlw	0
  3243  02DA' 0083'              	movwf	___awmod@divisor+1
  3244  02DB' 0834'              	movf	scale@scl,w
  3245  02DC' 0084'              	movwf	___awmod@dividend
  3246  02DD' 0185'              	clrf	___awmod@dividend+1
  3247  02DE' 1B84'              	btfsc	___awmod@dividend,7
  3248  02DF' 0385'              	decf	___awmod@dividend+1,f
  3249  02E0' 120A' 118A' 2000' 120A' 118A' 	fcall	___awmod
  3250  02E5' 0802'              	movf	?___awmod,w
  3251  02E6' 1283               	bcf	3,5	;RP0=0, select bank0
  3252  02E7' 1303               	bcf	3,6	;RP1=0, select bank0
  3253  02E8' 00A6'              	movwf	??_scale
  3254  02E9' 3001               	movlw	1
  3255  02EA'                    u6385:
  3256  02EA' 1003               	clrc
  3257  02EB' 0DA6'              	rlf	??_scale,f
  3258  02EC' 3EFF               	addlw	-1
  3259  02ED' 1D03               	skipz
  3260  02EE' 2800'              	goto	u6385
  3261  02EF' 1003               	clrc
  3262  02F0' 0D26'              	rlf	??_scale,w
  3263  02F1' 3E00'              	addlw	low (__powers_| (0+32768))
  3264  02F2' 0084               	movwf	4
  3265  02F3' 3000'              	movlw	high (__powers_| (0+32768))
  3266  02F4' 1803               	skipnc
  3267  02F5' 3E01               	addlw	1
  3268  02F6' 00FF               	movwf	btemp+1
  3269  02F7' 120A' 118A' 2000' 120A' 118A' 	fcall	stringtab
  3270  02FC' 00A7'              	movwf	??_scale+1
  3271  02FD' 120A' 118A' 2000' 120A' 118A' 	fcall	stringtab
  3272  0302' 00A8'              	movwf	??_scale+2
  3273  0303' 120A' 118A' 2000' 120A' 118A' 	fcall	stringtab
  3274  0308' 00A9'              	movwf	??_scale+3
  3275  0309' 120A' 118A' 2000' 120A' 118A' 	fcall	stringtab
  3276  030E' 00AA'              	movwf	??_scale+4
  3277  030F' 082A'              	movf	??_scale+4,w
  3278  0310' 008B'              	movwf	___flmul@b+3
  3279  0311' 0829'              	movf	??_scale+3,w
  3280  0312' 008A'              	movwf	___flmul@b+2
  3281  0313' 0828'              	movf	??_scale+2,w
  3282  0314' 0089'              	movwf	___flmul@b+1
  3283  0315' 0827'              	movf	??_scale+1,w
  3284  0316' 0088'              	movwf	___flmul@b
  3285  0317' 300A               	movlw	10
  3286  0318' 0080'              	movwf	___awdiv@divisor
  3287  0319' 3000               	movlw	0
  3288  031A' 0081'              	movwf	___awdiv@divisor+1
  3289  031B' 0834'              	movf	scale@scl,w
  3290  031C' 0082'              	movwf	___awdiv@dividend
  3291  031D' 0183'              	clrf	___awdiv@dividend+1
  3292  031E' 1B82'              	btfsc	___awdiv@dividend,7
  3293  031F' 0383'              	decf	___awdiv@dividend+1,f
  3294  0320' 120A' 118A' 2000' 120A' 118A' 	fcall	___awdiv
  3295  0325' 1283               	bcf	3,5	;RP0=0, select bank0
  3296  0326' 1303               	bcf	3,6	;RP1=0, select bank0
  3297  0327' 0800'              	movf	?___awdiv,w
  3298  0328' 00AB'              	movwf	??_scale+5
  3299  0329' 3001               	movlw	1
  3300  032A'                    u6395:
  3301  032A' 1003               	clrc
  3302  032B' 0DAB'              	rlf	??_scale+5,f
  3303  032C' 3EFF               	addlw	-1
  3304  032D' 1D03               	skipz
  3305  032E' 2800'              	goto	u6395
  3306  032F' 1003               	clrc
  3307  0330' 0D2B'              	rlf	??_scale+5,w
  3308  0331' 3E24               	addlw	36
  3309  0332' 3E00'              	addlw	low (__powers_| (0+32768))
  3310  0333' 0084               	movwf	4
  3311  0334' 3000'              	movlw	high (__powers_| (0+32768))
  3312  0335' 1803               	skipnc
  3313  0336' 3E01               	addlw	1
  3314  0337' 00FF               	movwf	btemp+1
  3315  0338' 120A' 118A' 2000' 120A' 118A' 	fcall	stringtab
  3316  033D' 00AC'              	movwf	??_scale+6
  3317  033E' 120A' 118A' 2000' 120A' 118A' 	fcall	stringtab
  3318  0343' 00AD'              	movwf	??_scale+7
  3319  0344' 120A' 118A' 2000' 120A' 118A' 	fcall	stringtab
  3320  0349' 00AE'              	movwf	??_scale+8
  3321  034A' 120A' 118A' 2000' 120A' 118A' 	fcall	stringtab
  3322  034F' 00AF'              	movwf	??_scale+9
  3323  0350' 082F'              	movf	??_scale+9,w
  3324  0351' 008F'              	movwf	___flmul@a+3
  3325  0352' 082E'              	movf	??_scale+8,w
  3326  0353' 008E'              	movwf	___flmul@a+2
  3327  0354' 082D'              	movf	??_scale+7,w
  3328  0355' 008D'              	movwf	___flmul@a+1
  3329  0356' 082C'              	movf	??_scale+6,w
  3330  0357' 008C'              	movwf	___flmul@a
  3331  0358' 120A' 118A' 2000' 120A' 118A' 	fcall	___flmul
  3332  035D' 1283               	bcf	3,5	;RP0=0, select bank0
  3333  035E' 1303               	bcf	3,6	;RP1=0, select bank0
  3334  035F' 080B'              	movf	?___flmul+3,w
  3335  0360' 00A5'              	movwf	?_scale+3
  3336  0361' 080A'              	movf	?___flmul+2,w
  3337  0362' 00A4'              	movwf	?_scale+2
  3338  0363' 0809'              	movf	?___flmul+1,w
  3339  0364' 00A3'              	movwf	?_scale+1
  3340  0365' 0808'              	movf	?___flmul,w
  3341  0366' 00A2'              	movwf	?_scale
  3342  0367' 2800'              	goto	l312
  3343  0368'                    l4136:
  3344                           
  3345                           ;C:\Program Files\Microchip\xc8\v2.31\pic\sources\c90\common\doprnt.c: 448:  return _pow
      +                          ers_[(unsigned char)scl];
  3346  0368' 0834'              	movf	scale@scl,w
  3347  0369' 00A6'              	movwf	??_scale
  3348  036A' 3001               	movlw	1
  3349  036B'                    u6405:
  3350  036B' 1003               	clrc
  3351  036C' 0DA6'              	rlf	??_scale,f
  3352  036D' 3EFF               	addlw	-1
  3353  036E' 1D03               	skipz
  3354  036F' 2800'              	goto	u6405
  3355  0370' 1003               	clrc
  3356  0371' 0D26'              	rlf	??_scale,w
  3357  0372' 3E00'              	addlw	low (__powers_| (0+32768))
  3358  0373' 0084               	movwf	4
  3359  0374' 3000'              	movlw	high (__powers_| (0+32768))
  3360  0375' 1803               	skipnc
  3361  0376' 3E01               	addlw	1
  3362  0377' 00FF               	movwf	btemp+1
  3363  0378' 120A' 118A' 2000' 120A' 118A' 	fcall	stringtab
  3364  037D' 00A7'              	movwf	??_scale+1
  3365  037E' 120A' 118A' 2000' 120A' 118A' 	fcall	stringtab
  3366  0383' 00A8'              	movwf	??_scale+2
  3367  0384' 120A' 118A' 2000' 120A' 118A' 	fcall	stringtab
  3368  0389' 00A9'              	movwf	??_scale+3
  3369  038A' 120A' 118A' 2000' 120A' 118A' 	fcall	stringtab
  3370  038F' 00AA'              	movwf	??_scale+4
  3371  0390' 082A'              	movf	??_scale+4,w
  3372  0391' 00A5'              	movwf	?_scale+3
  3373  0392' 0829'              	movf	??_scale+3,w
  3374  0393' 00A4'              	movwf	?_scale+2
  3375  0394' 0828'              	movf	??_scale+2,w
  3376  0395' 00A3'              	movwf	?_scale+1
  3377  0396' 0827'              	movf	??_scale+1,w
  3378  0397' 00A2'              	movwf	?_scale
  3379  0398'                    l312:
  3380  0398' 0008               	return
  3381  0399'                    __end_of_scale:
  3382                           
  3383                           	psect	text3
  3384  0000'                    __ptext3:	
  3385 ;; *************** function ___awmod *****************
  3386 ;; Defined at:
  3387 ;;		line 5 in file "C:\Program Files\Microchip\xc8\v2.31\pic\sources\c90\common\awmod.c"
  3388 ;; Parameters:    Size  Location     Type
  3389 ;;  divisor         2    2[COMMON] int 
  3390 ;;  dividend        2    4[COMMON] int 
  3391 ;; Auto vars:     Size  Location     Type
  3392 ;;  sign            1    8[COMMON] unsigned char 
  3393 ;;  counter         1    7[COMMON] unsigned char 
  3394 ;; Return value:  Size  Location     Type
  3395 ;;                  2    2[COMMON] int 
  3396 ;; Registers used:
  3397 ;;		wreg, status,2, status,0
  3398 ;; Tracked objects:
  3399 ;;		On entry : 0/0
  3400 ;;		On exit  : 0/0
  3401 ;;		Unchanged: 0/0
  3402 ;; Data sizes:     COMMON   BANK0   BANK1   BANK3   BANK2
  3403 ;;      Params:         4       0       0       0       0
  3404 ;;      Locals:         2       0       0       0       0
  3405 ;;      Temps:          1       0       0       0       0
  3406 ;;      Totals:         7       0       0       0       0
  3407 ;;Total ram usage:        7 bytes
  3408 ;; Hardware stack levels used:    1
  3409 ;; Hardware stack levels required when called:    1
  3410 ;; This function calls:
  3411 ;;		Nothing
  3412 ;; This function is called by:
  3413 ;;		_scale
  3414 ;; This function uses a non-reentrant model
  3415 ;;
  3416                           
  3417                           
  3418                           ;psect for function ___awmod
  3419  0000'                    ___awmod:
  3420  0000'                    l2570:	
  3421                           ;incstack = 0
  3422                           ; Regs used in ___awmod: [wreg+status,2+status,0]
  3423                           
  3424  0000' 0188'              	clrf	___awmod@sign
  3425  0001'                    l2572:
  3426  0001' 1F85'              	btfss	___awmod@dividend+1,7
  3427  0002' 2800'              	goto	u3001
  3428  0003' 2800'              	goto	u3000
  3429  0004'                    u3001:
  3430  0004' 2800'              	goto	l2578
  3431  0005'                    u3000:
  3432  0005'                    l2574:
  3433  0005' 0984'              	comf	___awmod@dividend,f
  3434  0006' 0985'              	comf	___awmod@dividend+1,f
  3435  0007' 0A84'              	incf	___awmod@dividend,f
  3436  0008' 1903               	skipnz
  3437  0009' 0A85'              	incf	___awmod@dividend+1,f
  3438  000A'                    l2576:
  3439  000A' 0188'              	clrf	___awmod@sign
  3440  000B' 0A88'              	incf	___awmod@sign,f
  3441  000C'                    l2578:
  3442  000C' 1F83'              	btfss	___awmod@divisor+1,7
  3443  000D' 2800'              	goto	u3011
  3444  000E' 2800'              	goto	u3010
  3445  000F'                    u3011:
  3446  000F' 2800'              	goto	l2582
  3447  0010'                    u3010:
  3448  0010'                    l2580:
  3449  0010' 0982'              	comf	___awmod@divisor,f
  3450  0011' 0983'              	comf	___awmod@divisor+1,f
  3451  0012' 0A82'              	incf	___awmod@divisor,f
  3452  0013' 1903               	skipnz
  3453  0014' 0A83'              	incf	___awmod@divisor+1,f
  3454  0015'                    l2582:
  3455  0015' 0802'              	movf	___awmod@divisor,w
  3456  0016' 0403'              	iorwf	___awmod@divisor+1,w
  3457  0017' 1903               	btfsc	3,2
  3458  0018' 2800'              	goto	u3021
  3459  0019' 2800'              	goto	u3020
  3460  001A'                    u3021:
  3461  001A' 2800'              	goto	l2600
  3462  001B'                    u3020:
  3463  001B'                    l2584:
  3464  001B' 0187'              	clrf	___awmod@counter
  3465  001C' 0A87'              	incf	___awmod@counter,f
  3466  001D' 2800'              	goto	l2590
  3467  001E'                    l2586:
  3468  001E' 3001               	movlw	1
  3469  001F'                    u3035:
  3470  001F' 1003               	clrc
  3471  0020' 0D82'              	rlf	___awmod@divisor,f
  3472  0021' 0D83'              	rlf	___awmod@divisor+1,f
  3473  0022' 3EFF               	addlw	-1
  3474  0023' 1D03               	skipz
  3475  0024' 2800'              	goto	u3035
  3476  0025'                    l2588:
  3477  0025' 3001               	movlw	1
  3478  0026' 0086'              	movwf	??___awmod
  3479  0027' 0806'              	movf	??___awmod,w
  3480  0028' 0787'              	addwf	___awmod@counter,f
  3481  0029'                    l2590:
  3482  0029' 1F83'              	btfss	___awmod@divisor+1,7
  3483  002A' 2800'              	goto	u3041
  3484  002B' 2800'              	goto	u3040
  3485  002C'                    u3041:
  3486  002C' 2800'              	goto	l2586
  3487  002D'                    u3040:
  3488  002D'                    l2592:
  3489  002D' 0803'              	movf	___awmod@divisor+1,w
  3490  002E' 0205'              	subwf	___awmod@dividend+1,w
  3491  002F' 1D03               	skipz
  3492  0030' 2800'              	goto	u3055
  3493  0031' 0802'              	movf	___awmod@divisor,w
  3494  0032' 0204'              	subwf	___awmod@dividend,w
  3495  0033'                    u3055:
  3496  0033' 1C03               	skipc
  3497  0034' 2800'              	goto	u3051
  3498  0035' 2800'              	goto	u3050
  3499  0036'                    u3051:
  3500  0036' 2800'              	goto	l2596
  3501  0037'                    u3050:
  3502  0037'                    l2594:
  3503  0037' 0802'              	movf	___awmod@divisor,w
  3504  0038' 0284'              	subwf	___awmod@dividend,f
  3505  0039' 0803'              	movf	___awmod@divisor+1,w
  3506  003A' 1C03               	skipc
  3507  003B' 0385'              	decf	___awmod@dividend+1,f
  3508  003C' 0285'              	subwf	___awmod@dividend+1,f
  3509  003D'                    l2596:
  3510  003D' 3001               	movlw	1
  3511  003E'                    u3065:
  3512  003E' 1003               	clrc
  3513  003F' 0C83'              	rrf	___awmod@divisor+1,f
  3514  0040' 0C82'              	rrf	___awmod@divisor,f
  3515  0041' 3EFF               	addlw	-1
  3516  0042' 1D03               	skipz
  3517  0043' 2800'              	goto	u3065
  3518  0044'                    l2598:
  3519  0044' 3001               	movlw	1
  3520  0045' 0287'              	subwf	___awmod@counter,f
  3521  0046' 1D03               	btfss	3,2
  3522  0047' 2800'              	goto	u3071
  3523  0048' 2800'              	goto	u3070
  3524  0049'                    u3071:
  3525  0049' 2800'              	goto	l2592
  3526  004A'                    u3070:
  3527  004A'                    l2600:
  3528  004A' 0808'              	movf	___awmod@sign,w
  3529  004B' 1903               	btfsc	3,2
  3530  004C' 2800'              	goto	u3081
  3531  004D' 2800'              	goto	u3080
  3532  004E'                    u3081:
  3533  004E' 2800'              	goto	l2604
  3534  004F'                    u3080:
  3535  004F'                    l2602:
  3536  004F' 0984'              	comf	___awmod@dividend,f
  3537  0050' 0985'              	comf	___awmod@dividend+1,f
  3538  0051' 0A84'              	incf	___awmod@dividend,f
  3539  0052' 1903               	skipnz
  3540  0053' 0A85'              	incf	___awmod@dividend+1,f
  3541  0054'                    l2604:
  3542  0054' 0805'              	movf	___awmod@dividend+1,w
  3543  0055' 0083'              	movwf	?___awmod+1
  3544  0056' 0804'              	movf	___awmod@dividend,w
  3545  0057' 0082'              	movwf	?___awmod
  3546  0058'                    l565:
  3547  0058' 0008               	return
  3548  0059'                    __end_of___awmod:
  3549                           
  3550                           	psect	text4
  3551  0000'                    __ptext4:	
  3552 ;; *************** function ___awdiv *****************
  3553 ;; Defined at:
  3554 ;;		line 5 in file "C:\Program Files\Microchip\xc8\v2.31\pic\sources\c90\common\awdiv.c"
  3555 ;; Parameters:    Size  Location     Type
  3556 ;;  divisor         2    0[BANK0 ] int 
  3557 ;;  dividend        2    2[BANK0 ] int 
  3558 ;; Auto vars:     Size  Location     Type
  3559 ;;  quotient        2    6[BANK0 ] int 
  3560 ;;  sign            1    5[BANK0 ] unsigned char 
  3561 ;;  counter         1    4[BANK0 ] unsigned char 
  3562 ;; Return value:  Size  Location     Type
  3563 ;;                  2    0[BANK0 ] int 
  3564 ;; Registers used:
  3565 ;;		wreg, status,2, status,0
  3566 ;; Tracked objects:
  3567 ;;		On entry : 0/0
  3568 ;;		On exit  : 0/0
  3569 ;;		Unchanged: 0/0
  3570 ;; Data sizes:     COMMON   BANK0   BANK1   BANK3   BANK2
  3571 ;;      Params:         0       4       0       0       0
  3572 ;;      Locals:         0       4       0       0       0
  3573 ;;      Temps:          1       0       0       0       0
  3574 ;;      Totals:         1       8       0       0       0
  3575 ;;Total ram usage:        9 bytes
  3576 ;; Hardware stack levels used:    1
  3577 ;; Hardware stack levels required when called:    1
  3578 ;; This function calls:
  3579 ;;		Nothing
  3580 ;; This function is called by:
  3581 ;;		_scale
  3582 ;;		_sprintf
  3583 ;;		_hex_menor
  3584 ;; This function uses a non-reentrant model
  3585 ;;
  3586                           
  3587                           
  3588                           ;psect for function ___awdiv
  3589  0000'                    ___awdiv:
  3590  0000'                    l2526:	
  3591                           ;incstack = 0
  3592                           ; Regs used in ___awdiv: [wreg+status,2+status,0]
  3593                           
  3594  0000' 1283               	bcf	3,5	;RP0=0, select bank0
  3595  0001' 1303               	bcf	3,6	;RP1=0, select bank0
  3596  0002' 0185'              	clrf	___awdiv@sign
  3597  0003'                    l2528:
  3598  0003' 1F81'              	btfss	___awdiv@divisor+1,7
  3599  0004' 2800'              	goto	u2901
  3600  0005' 2800'              	goto	u2900
  3601  0006'                    u2901:
  3602  0006' 2800'              	goto	l2534
  3603  0007'                    u2900:
  3604  0007'                    l2530:
  3605  0007' 0980'              	comf	___awdiv@divisor,f
  3606  0008' 0981'              	comf	___awdiv@divisor+1,f
  3607  0009' 0A80'              	incf	___awdiv@divisor,f
  3608  000A' 1903               	skipnz
  3609  000B' 0A81'              	incf	___awdiv@divisor+1,f
  3610  000C'                    l2532:
  3611  000C' 0185'              	clrf	___awdiv@sign
  3612  000D' 0A85'              	incf	___awdiv@sign,f
  3613  000E'                    l2534:
  3614  000E' 1F83'              	btfss	___awdiv@dividend+1,7
  3615  000F' 2800'              	goto	u2911
  3616  0010' 2800'              	goto	u2910
  3617  0011'                    u2911:
  3618  0011' 2800'              	goto	l2540
  3619  0012'                    u2910:
  3620  0012'                    l2536:
  3621  0012' 0982'              	comf	___awdiv@dividend,f
  3622  0013' 0983'              	comf	___awdiv@dividend+1,f
  3623  0014' 0A82'              	incf	___awdiv@dividend,f
  3624  0015' 1903               	skipnz
  3625  0016' 0A83'              	incf	___awdiv@dividend+1,f
  3626  0017'                    l2538:
  3627  0017' 3001               	movlw	1
  3628  0018' 0089'              	movwf	??___awdiv
  3629  0019' 0809'              	movf	??___awdiv,w
  3630  001A' 0685'              	xorwf	___awdiv@sign,f
  3631  001B'                    l2540:
  3632  001B' 0186'              	clrf	___awdiv@quotient
  3633  001C' 0187'              	clrf	___awdiv@quotient+1
  3634  001D'                    l2542:
  3635  001D' 0800'              	movf	___awdiv@divisor,w
  3636  001E' 0401'              	iorwf	___awdiv@divisor+1,w
  3637  001F' 1903               	btfsc	3,2
  3638  0020' 2800'              	goto	u2921
  3639  0021' 2800'              	goto	u2920
  3640  0022'                    u2921:
  3641  0022' 2800'              	goto	l2562
  3642  0023'                    u2920:
  3643  0023'                    l2544:
  3644  0023' 0184'              	clrf	___awdiv@counter
  3645  0024' 0A84'              	incf	___awdiv@counter,f
  3646  0025' 2800'              	goto	l2550
  3647  0026'                    l2546:
  3648  0026' 3001               	movlw	1
  3649  0027'                    u2935:
  3650  0027' 1003               	clrc
  3651  0028' 0D80'              	rlf	___awdiv@divisor,f
  3652  0029' 0D81'              	rlf	___awdiv@divisor+1,f
  3653  002A' 3EFF               	addlw	-1
  3654  002B' 1D03               	skipz
  3655  002C' 2800'              	goto	u2935
  3656  002D'                    l2548:
  3657  002D' 3001               	movlw	1
  3658  002E' 0089'              	movwf	??___awdiv
  3659  002F' 0809'              	movf	??___awdiv,w
  3660  0030' 0784'              	addwf	___awdiv@counter,f
  3661  0031'                    l2550:
  3662  0031' 1F81'              	btfss	___awdiv@divisor+1,7
  3663  0032' 2800'              	goto	u2941
  3664  0033' 2800'              	goto	u2940
  3665  0034'                    u2941:
  3666  0034' 2800'              	goto	l2546
  3667  0035'                    u2940:
  3668  0035'                    l2552:
  3669  0035' 3001               	movlw	1
  3670  0036'                    u2955:
  3671  0036' 1003               	clrc
  3672  0037' 0D86'              	rlf	___awdiv@quotient,f
  3673  0038' 0D87'              	rlf	___awdiv@quotient+1,f
  3674  0039' 3EFF               	addlw	-1
  3675  003A' 1D03               	skipz
  3676  003B' 2800'              	goto	u2955
  3677  003C' 0801'              	movf	___awdiv@divisor+1,w
  3678  003D' 0203'              	subwf	___awdiv@dividend+1,w
  3679  003E' 1D03               	skipz
  3680  003F' 2800'              	goto	u2965
  3681  0040' 0800'              	movf	___awdiv@divisor,w
  3682  0041' 0202'              	subwf	___awdiv@dividend,w
  3683  0042'                    u2965:
  3684  0042' 1C03               	skipc
  3685  0043' 2800'              	goto	u2961
  3686  0044' 2800'              	goto	u2960
  3687  0045'                    u2961:
  3688  0045' 2800'              	goto	l2558
  3689  0046'                    u2960:
  3690  0046'                    l2554:
  3691  0046' 0800'              	movf	___awdiv@divisor,w
  3692  0047' 0282'              	subwf	___awdiv@dividend,f
  3693  0048' 0801'              	movf	___awdiv@divisor+1,w
  3694  0049' 1C03               	skipc
  3695  004A' 0383'              	decf	___awdiv@dividend+1,f
  3696  004B' 0283'              	subwf	___awdiv@dividend+1,f
  3697  004C'                    l2556:
  3698  004C' 1406'              	bsf	___awdiv@quotient,0
  3699  004D'                    l2558:
  3700  004D' 3001               	movlw	1
  3701  004E'                    u2975:
  3702  004E' 1003               	clrc
  3703  004F' 0C81'              	rrf	___awdiv@divisor+1,f
  3704  0050' 0C80'              	rrf	___awdiv@divisor,f
  3705  0051' 3EFF               	addlw	-1
  3706  0052' 1D03               	skipz
  3707  0053' 2800'              	goto	u2975
  3708  0054'                    l2560:
  3709  0054' 3001               	movlw	1
  3710  0055' 0284'              	subwf	___awdiv@counter,f
  3711  0056' 1D03               	btfss	3,2
  3712  0057' 2800'              	goto	u2981
  3713  0058' 2800'              	goto	u2980
  3714  0059'                    u2981:
  3715  0059' 2800'              	goto	l2552
  3716  005A'                    u2980:
  3717  005A'                    l2562:
  3718  005A' 0805'              	movf	___awdiv@sign,w
  3719  005B' 1903               	btfsc	3,2
  3720  005C' 2800'              	goto	u2991
  3721  005D' 2800'              	goto	u2990
  3722  005E'                    u2991:
  3723  005E' 2800'              	goto	l2566
  3724  005F'                    u2990:
  3725  005F'                    l2564:
  3726  005F' 0986'              	comf	___awdiv@quotient,f
  3727  0060' 0987'              	comf	___awdiv@quotient+1,f
  3728  0061' 0A86'              	incf	___awdiv@quotient,f
  3729  0062' 1903               	skipnz
  3730  0063' 0A87'              	incf	___awdiv@quotient+1,f
  3731  0064'                    l2566:
  3732  0064' 0807'              	movf	___awdiv@quotient+1,w
  3733  0065' 0081'              	movwf	?___awdiv+1
  3734  0066' 0806'              	movf	___awdiv@quotient,w
  3735  0067' 0080'              	movwf	?___awdiv
  3736  0068'                    l552:
  3737  0068' 0008               	return
  3738  0069'                    __end_of___awdiv:
  3739                           
  3740                           	psect	text5
  3741  0000'                    __ptext5:	
  3742 ;; *************** function _isdigit *****************
  3743 ;; Defined at:
  3744 ;;		line 8 in file "C:\Program Files\Microchip\xc8\v2.31\pic\sources\c90\common\isdigit.c"
  3745 ;; Parameters:    Size  Location     Type
  3746 ;;  c               1    wreg     unsigned char 
  3747 ;; Auto vars:     Size  Location     Type
  3748 ;;  c               1    3[COMMON] unsigned char 
  3749 ;; Return value:  Size  Location     Type
  3750 ;;		None               void
  3751 ;; Registers used:
  3752 ;;		wreg, status,2, status,0
  3753 ;; Tracked objects:
  3754 ;;		On entry : 0/0
  3755 ;;		On exit  : 0/0
  3756 ;;		Unchanged: 0/0
  3757 ;; Data sizes:     COMMON   BANK0   BANK1   BANK3   BANK2
  3758 ;;      Params:         0       0       0       0       0
  3759 ;;      Locals:         2       0       0       0       0
  3760 ;;      Temps:          0       0       0       0       0
  3761 ;;      Totals:         2       0       0       0       0
  3762 ;;Total ram usage:        2 bytes
  3763 ;; Hardware stack levels used:    1
  3764 ;; Hardware stack levels required when called:    1
  3765 ;; This function calls:
  3766 ;;		Nothing
  3767 ;; This function is called by:
  3768 ;;		_sprintf
  3769 ;; This function uses a non-reentrant model
  3770 ;;
  3771                           
  3772                           
  3773                           ;psect for function _isdigit
  3774  0000'                    _isdigit:
  3775                           
  3776                           ;incstack = 0
  3777                           ; Regs used in _isdigit: [wreg+status,2+status,0]
  3778                           ;isdigit@c stored from wreg
  3779  0000' 0083'              	movwf	isdigit@c
  3780  0001'                    l3076:
  3781  0001' 0182'              	clrf	_isdigit$1000
  3782  0002'                    l3078:
  3783  0002' 303A               	movlw	58
  3784  0003' 0203'              	subwf	isdigit@c,w
  3785  0004' 1803               	skipnc
  3786  0005' 2800'              	goto	u4311
  3787  0006' 2800'              	goto	u4310
  3788  0007'                    u4311:
  3789  0007' 2800'              	goto	l3084
  3790  0008'                    u4310:
  3791  0008'                    l3080:
  3792  0008' 3030               	movlw	48
  3793  0009' 0203'              	subwf	isdigit@c,w
  3794  000A' 1C03               	skipc
  3795  000B' 2800'              	goto	u4321
  3796  000C' 2800'              	goto	u4320
  3797  000D'                    u4321:
  3798  000D' 2800'              	goto	l3084
  3799  000E'                    u4320:
  3800  000E'                    l3082:
  3801  000E' 0182'              	clrf	_isdigit$1000
  3802  000F' 0A82'              	incf	_isdigit$1000,f
  3803  0010'                    l3084:
  3804  0010' 0C02'              	rrf	_isdigit$1000,w
  3805  0011'                    l886:
  3806  0011' 0008               	return
  3807  0012'                    __end_of_isdigit:
  3808                           
  3809                           	psect	text6
  3810  0000'                    __ptext6:	
  3811 ;; *************** function _fround *****************
  3812 ;; Defined at:
  3813 ;;		line 417 in file "C:\Program Files\Microchip\xc8\v2.31\pic\sources\c90\common\doprnt.c"
  3814 ;; Parameters:    Size  Location     Type
  3815 ;;  prec            1    wreg     unsigned char 
  3816 ;; Auto vars:     Size  Location     Type
  3817 ;;  prec            1   53[BANK0 ] unsigned char 
  3818 ;; Return value:  Size  Location     Type
  3819 ;;                  4   34[BANK0 ] unsigned char 
  3820 ;; Registers used:
  3821 ;;		wreg, fsr0l, fsr0h, status,2, status,0, btemp+1, pclath, cstack
  3822 ;; Tracked objects:
  3823 ;;		On entry : 0/0
  3824 ;;		On exit  : 0/0
  3825 ;;		Unchanged: 0/0
  3826 ;; Data sizes:     COMMON   BANK0   BANK1   BANK3   BANK2
  3827 ;;      Params:         0       4       0       0       0
  3828 ;;      Locals:         0       9       0       0       0
  3829 ;;      Temps:          0       7       0       0       0
  3830 ;;      Totals:         0      20       0       0       0
  3831 ;;Total ram usage:       20 bytes
  3832 ;; Hardware stack levels used:    1
  3833 ;; Hardware stack levels required when called:    3
  3834 ;; This function calls:
  3835 ;;		___flmul
  3836 ;;		___lwdiv
  3837 ;;		___lwmod
  3838 ;; This function is called by:
  3839 ;;		_sprintf
  3840 ;; This function uses a non-reentrant model
  3841 ;;
  3842                           
  3843                           
  3844                           ;psect for function _fround
  3845  0000'                    _fround:
  3846                           
  3847                           ;incstack = 0
  3848                           ; Regs used in _fround: [wreg-fsr0h+status,2+status,0+btemp+1+pclath+cstack]
  3849                           ;fround@prec stored from wreg
  3850  0000' 1283               	bcf	3,5	;RP0=0, select bank0
  3851  0001' 1303               	bcf	3,6	;RP1=0, select bank0
  3852  0002' 00B5'              	movwf	fround@prec
  3853  0003'                    l4082:
  3854                           
  3855                           ;C:\Program Files\Microchip\xc8\v2.31\pic\sources\c90\common\doprnt.c: 417: fround(unsig
      +                          ned char prec);C:\Program Files\Microchip\xc8\v2.31\pic\sources\c90\common\doprnt.c: 418
      +                          : {;C:\Program Files\Microchip\xc8\v2.31\pic\sources\c90\common\doprnt.c: 421:  if(prec>
      +                          =110)
  3856  0003' 306E               	movlw	110
  3857  0004' 0235'              	subwf	fround@prec,w
  3858  0005' 1C03               	skipc
  3859  0006' 2800'              	goto	u6161
  3860  0007' 2800'              	goto	u6160
  3861  0008'                    u6161:
  3862  0008' 2800'              	goto	l4090
  3863  0009'                    u6160:
  3864  0009'                    l4084:
  3865                           
  3866                           ;C:\Program Files\Microchip\xc8\v2.31\pic\sources\c90\common\doprnt.c: 422:   return 0.5
      +                           * _npowers_[prec/100U+18U] * _npowers_[(prec%100U)/10U+9U] * _npowers_[prec%10U];
  3867  0009' 303F               	movlw	63
  3868  000A' 008B'              	movwf	___flmul@b+3
  3869  000B' 3000               	movlw	0
  3870  000C' 008A'              	movwf	___flmul@b+2
  3871  000D' 3000               	movlw	0
  3872  000E' 0089'              	movwf	___flmul@b+1
  3873  000F' 3000               	movlw	0
  3874  0010' 0088'              	movwf	___flmul@b
  3875  0011' 3064               	movlw	100
  3876  0012' 0080'              	movwf	___lwdiv@divisor
  3877  0013' 3000               	movlw	0
  3878  0014' 0081'              	movwf	___lwdiv@divisor+1
  3879  0015' 0835'              	movf	fround@prec,w
  3880  0016' 00A6'              	movwf	??_fround
  3881  0017' 01A7'              	clrf	??_fround+1
  3882  0018' 0826'              	movf	??_fround,w
  3883  0019' 0082'              	movwf	___lwdiv@dividend
  3884  001A' 0827'              	movf	??_fround+1,w
  3885  001B' 0083'              	movwf	___lwdiv@dividend+1
  3886  001C' 120A' 118A' 2000' 120A' 118A' 	fcall	___lwdiv
  3887  0021' 1283               	bcf	3,5	;RP0=0, select bank0
  3888  0022' 1303               	bcf	3,6	;RP1=0, select bank0
  3889  0023' 0800'              	movf	?___lwdiv,w
  3890  0024' 00A8'              	movwf	??_fround+2
  3891  0025' 3001               	movlw	1
  3892  0026'                    u6175:
  3893  0026' 1003               	clrc
  3894  0027' 0DA8'              	rlf	??_fround+2,f
  3895  0028' 3EFF               	addlw	-1
  3896  0029' 1D03               	skipz
  3897  002A' 2800'              	goto	u6175
  3898  002B' 1003               	clrc
  3899  002C' 0D28'              	rlf	??_fround+2,w
  3900  002D' 3E00'              	addlw	low ((__npowers_| (0+32768)+72))
  3901  002E' 0084               	movwf	4
  3902  002F' 3000'              	movlw	high ((__npowers_| (0+32768)+72))
  3903  0030' 1803               	skipnc
  3904  0031' 3E01               	addlw	1
  3905  0032' 00FF               	movwf	btemp+1
  3906  0033' 120A' 118A' 2000' 120A' 118A' 	fcall	stringtab
  3907  0038' 00A9'              	movwf	??_fround+3
  3908  0039' 120A' 118A' 2000' 120A' 118A' 	fcall	stringtab
  3909  003E' 00AA'              	movwf	??_fround+4
  3910  003F' 120A' 118A' 2000' 120A' 118A' 	fcall	stringtab
  3911  0044' 00AB'              	movwf	??_fround+5
  3912  0045' 120A' 118A' 2000' 120A' 118A' 	fcall	stringtab
  3913  004A' 00AC'              	movwf	??_fround+6
  3914  004B' 082C'              	movf	??_fround+6,w
  3915  004C' 008F'              	movwf	___flmul@a+3
  3916  004D' 082B'              	movf	??_fround+5,w
  3917  004E' 008E'              	movwf	___flmul@a+2
  3918  004F' 082A'              	movf	??_fround+4,w
  3919  0050' 008D'              	movwf	___flmul@a+1
  3920  0051' 0829'              	movf	??_fround+3,w
  3921  0052' 008C'              	movwf	___flmul@a
  3922  0053' 120A' 118A' 2000' 120A' 118A' 	fcall	___flmul
  3923  0058' 1283               	bcf	3,5	;RP0=0, select bank0
  3924  0059' 1303               	bcf	3,6	;RP1=0, select bank0
  3925  005A' 080B'              	movf	?___flmul+3,w
  3926  005B' 00B4'              	movwf	_fround$1189+3
  3927  005C' 080A'              	movf	?___flmul+2,w
  3928  005D' 00B3'              	movwf	_fround$1189+2
  3929  005E' 0809'              	movf	?___flmul+1,w
  3930  005F' 00B2'              	movwf	_fround$1189+1
  3931  0060' 0808'              	movf	?___flmul,w
  3932  0061' 00B1'              	movwf	_fround$1189
  3933                           
  3934                           ;C:\Program Files\Microchip\xc8\v2.31\pic\sources\c90\common\doprnt.c: 422:   return 0.5
      +                           * _npowers_[prec/100U+18U] * _npowers_[(prec%100U)/10U+9U] * _npowers_[prec%10U];
  3935  0062' 300A               	movlw	10
  3936  0063' 0080'              	movwf	___lwdiv@divisor
  3937  0064' 3000               	movlw	0
  3938  0065' 0081'              	movwf	___lwdiv@divisor+1
  3939  0066' 0835'              	movf	fround@prec,w
  3940  0067' 00A6'              	movwf	??_fround
  3941  0068' 01A7'              	clrf	??_fround+1
  3942  0069' 0826'              	movf	??_fround,w
  3943  006A' 0084'              	movwf	___lwmod@dividend
  3944  006B' 0827'              	movf	??_fround+1,w
  3945  006C' 0085'              	movwf	___lwmod@dividend+1
  3946  006D' 3064               	movlw	100
  3947  006E' 0082'              	movwf	___lwmod@divisor
  3948  006F' 3000               	movlw	0
  3949  0070' 0083'              	movwf	___lwmod@divisor+1
  3950  0071' 120A' 118A' 2000' 120A' 118A' 	fcall	___lwmod
  3951  0076' 0803'              	movf	?___lwmod+1,w
  3952  0077' 1283               	bcf	3,5	;RP0=0, select bank0
  3953  0078' 1303               	bcf	3,6	;RP1=0, select bank0
  3954  0079' 0083'              	movwf	___lwdiv@dividend+1
  3955  007A' 0802'              	movf	?___lwmod,w
  3956  007B' 0082'              	movwf	___lwdiv@dividend
  3957  007C' 120A' 118A' 2000' 120A' 118A' 	fcall	___lwdiv
  3958  0081' 1283               	bcf	3,5	;RP0=0, select bank0
  3959  0082' 1303               	bcf	3,6	;RP1=0, select bank0
  3960  0083' 0800'              	movf	?___lwdiv,w
  3961  0084' 00A8'              	movwf	??_fround+2
  3962  0085' 3001               	movlw	1
  3963  0086'                    u6185:
  3964  0086' 1003               	clrc
  3965  0087' 0DA8'              	rlf	??_fround+2,f
  3966  0088' 3EFF               	addlw	-1
  3967  0089' 1D03               	skipz
  3968  008A' 2800'              	goto	u6185
  3969  008B' 1003               	clrc
  3970  008C' 0D28'              	rlf	??_fround+2,w
  3971  008D' 3E00'              	addlw	low ((__npowers_| (0+32768)+36))
  3972  008E' 0084               	movwf	4
  3973  008F' 3000'              	movlw	high ((__npowers_| (0+32768)+36))
  3974  0090' 1803               	skipnc
  3975  0091' 3E01               	addlw	1
  3976  0092' 00FF               	movwf	btemp+1
  3977  0093' 120A' 118A' 2000' 120A' 118A' 	fcall	stringtab
  3978  0098' 00A9'              	movwf	??_fround+3
  3979  0099' 120A' 118A' 2000' 120A' 118A' 	fcall	stringtab
  3980  009E' 00AA'              	movwf	??_fround+4
  3981  009F' 120A' 118A' 2000' 120A' 118A' 	fcall	stringtab
  3982  00A4' 00AB'              	movwf	??_fround+5
  3983  00A5' 120A' 118A' 2000' 120A' 118A' 	fcall	stringtab
  3984  00AA' 00AC'              	movwf	??_fround+6
  3985  00AB' 082C'              	movf	??_fround+6,w
  3986  00AC' 008B'              	movwf	___flmul@b+3
  3987  00AD' 082B'              	movf	??_fround+5,w
  3988  00AE' 008A'              	movwf	___flmul@b+2
  3989  00AF' 082A'              	movf	??_fround+4,w
  3990  00B0' 0089'              	movwf	___flmul@b+1
  3991  00B1' 0829'              	movf	??_fround+3,w
  3992  00B2' 0088'              	movwf	___flmul@b
  3993  00B3' 0834'              	movf	_fround$1189+3,w
  3994  00B4' 008F'              	movwf	___flmul@a+3
  3995  00B5' 0833'              	movf	_fround$1189+2,w
  3996  00B6' 008E'              	movwf	___flmul@a+2
  3997  00B7' 0832'              	movf	_fround$1189+1,w
  3998  00B8' 008D'              	movwf	___flmul@a+1
  3999  00B9' 0831'              	movf	_fround$1189,w
  4000  00BA' 008C'              	movwf	___flmul@a
  4001  00BB' 120A' 118A' 2000' 120A' 118A' 	fcall	___flmul
  4002  00C0' 1283               	bcf	3,5	;RP0=0, select bank0
  4003  00C1' 1303               	bcf	3,6	;RP1=0, select bank0
  4004  00C2' 080B'              	movf	?___flmul+3,w
  4005  00C3' 00B0'              	movwf	_fround$1190+3
  4006  00C4' 080A'              	movf	?___flmul+2,w
  4007  00C5' 00AF'              	movwf	_fround$1190+2
  4008  00C6' 0809'              	movf	?___flmul+1,w
  4009  00C7' 00AE'              	movwf	_fround$1190+1
  4010  00C8' 0808'              	movf	?___flmul,w
  4011  00C9' 00AD'              	movwf	_fround$1190
  4012                           
  4013                           ;C:\Program Files\Microchip\xc8\v2.31\pic\sources\c90\common\doprnt.c: 422:   return 0.5
      +                           * _npowers_[prec/100U+18U] * _npowers_[(prec%100U)/10U+9U] * _npowers_[prec%10U];
  4014  00CA' 300A               	movlw	10
  4015  00CB' 0082'              	movwf	___lwmod@divisor
  4016  00CC' 3000               	movlw	0
  4017  00CD' 0083'              	movwf	___lwmod@divisor+1
  4018  00CE' 0835'              	movf	fround@prec,w
  4019  00CF' 00A6'              	movwf	??_fround
  4020  00D0' 01A7'              	clrf	??_fround+1
  4021  00D1' 0826'              	movf	??_fround,w
  4022  00D2' 0084'              	movwf	___lwmod@dividend
  4023  00D3' 0827'              	movf	??_fround+1,w
  4024  00D4' 0085'              	movwf	___lwmod@dividend+1
  4025  00D5' 120A' 118A' 2000' 120A' 118A' 	fcall	___lwmod
  4026  00DA' 0802'              	movf	?___lwmod,w
  4027  00DB' 1283               	bcf	3,5	;RP0=0, select bank0
  4028  00DC' 1303               	bcf	3,6	;RP1=0, select bank0
  4029  00DD' 00A8'              	movwf	??_fround+2
  4030  00DE' 3001               	movlw	1
  4031  00DF'                    u6195:
  4032  00DF' 1003               	clrc
  4033  00E0' 0DA8'              	rlf	??_fround+2,f
  4034  00E1' 3EFF               	addlw	-1
  4035  00E2' 1D03               	skipz
  4036  00E3' 2800'              	goto	u6195
  4037  00E4' 1003               	clrc
  4038  00E5' 0D28'              	rlf	??_fround+2,w
  4039  00E6' 3E00'              	addlw	low (__npowers_| (0+32768))
  4040  00E7' 0084               	movwf	4
  4041  00E8' 3000'              	movlw	high (__npowers_| (0+32768))
  4042  00E9' 1803               	skipnc
  4043  00EA' 3E01               	addlw	1
  4044  00EB' 00FF               	movwf	btemp+1
  4045  00EC' 120A' 118A' 2000' 120A' 118A' 	fcall	stringtab
  4046  00F1' 00A9'              	movwf	??_fround+3
  4047  00F2' 120A' 118A' 2000' 120A' 118A' 	fcall	stringtab
  4048  00F7' 00AA'              	movwf	??_fround+4
  4049  00F8' 120A' 118A' 2000' 120A' 118A' 	fcall	stringtab
  4050  00FD' 00AB'              	movwf	??_fround+5
  4051  00FE' 120A' 118A' 2000' 120A' 118A' 	fcall	stringtab
  4052  0103' 00AC'              	movwf	??_fround+6
  4053  0104' 082C'              	movf	??_fround+6,w
  4054  0105' 008B'              	movwf	___flmul@b+3
  4055  0106' 082B'              	movf	??_fround+5,w
  4056  0107' 008A'              	movwf	___flmul@b+2
  4057  0108' 082A'              	movf	??_fround+4,w
  4058  0109' 0089'              	movwf	___flmul@b+1
  4059  010A' 0829'              	movf	??_fround+3,w
  4060  010B' 0088'              	movwf	___flmul@b
  4061  010C' 0830'              	movf	_fround$1190+3,w
  4062  010D' 008F'              	movwf	___flmul@a+3
  4063  010E' 082F'              	movf	_fround$1190+2,w
  4064  010F' 008E'              	movwf	___flmul@a+2
  4065  0110' 082E'              	movf	_fround$1190+1,w
  4066  0111' 008D'              	movwf	___flmul@a+1
  4067  0112' 082D'              	movf	_fround$1190,w
  4068  0113' 008C'              	movwf	___flmul@a
  4069  0114' 120A' 118A' 2000' 120A' 118A' 	fcall	___flmul
  4070  0119' 1283               	bcf	3,5	;RP0=0, select bank0
  4071  011A' 1303               	bcf	3,6	;RP1=0, select bank0
  4072  011B' 080B'              	movf	?___flmul+3,w
  4073  011C' 00A5'              	movwf	?_fround+3
  4074  011D' 080A'              	movf	?___flmul+2,w
  4075  011E' 00A4'              	movwf	?_fround+2
  4076  011F' 0809'              	movf	?___flmul+1,w
  4077  0120' 00A3'              	movwf	?_fround+1
  4078  0121' 0808'              	movf	?___flmul,w
  4079  0122' 00A2'              	movwf	?_fround
  4080  0123' 2800'              	goto	l305
  4081  0124'                    l4090:
  4082  0124' 300B               	movlw	11
  4083  0125' 0235'              	subwf	fround@prec,w
  4084  0126' 1C03               	skipc
  4085  0127' 2800'              	goto	u6201
  4086  0128' 2800'              	goto	u6200
  4087  0129'                    u6201:
  4088  0129' 2800'              	goto	l4096
  4089  012A'                    u6200:
  4090  012A'                    l4092:
  4091                           
  4092                           ;C:\Program Files\Microchip\xc8\v2.31\pic\sources\c90\common\doprnt.c: 424:   return 0.5
      +                           * _npowers_[prec/10U+9U] * _npowers_[prec%10U];
  4093  012A' 303F               	movlw	63
  4094  012B' 008B'              	movwf	___flmul@b+3
  4095  012C' 3000               	movlw	0
  4096  012D' 008A'              	movwf	___flmul@b+2
  4097  012E' 3000               	movlw	0
  4098  012F' 0089'              	movwf	___flmul@b+1
  4099  0130' 3000               	movlw	0
  4100  0131' 0088'              	movwf	___flmul@b
  4101  0132' 300A               	movlw	10
  4102  0133' 0080'              	movwf	___lwdiv@divisor
  4103  0134' 3000               	movlw	0
  4104  0135' 0081'              	movwf	___lwdiv@divisor+1
  4105  0136' 0835'              	movf	fround@prec,w
  4106  0137' 00A6'              	movwf	??_fround
  4107  0138' 01A7'              	clrf	??_fround+1
  4108  0139' 0826'              	movf	??_fround,w
  4109  013A' 0082'              	movwf	___lwdiv@dividend
  4110  013B' 0827'              	movf	??_fround+1,w
  4111  013C' 0083'              	movwf	___lwdiv@dividend+1
  4112  013D' 120A' 118A' 2000' 120A' 118A' 	fcall	___lwdiv
  4113  0142' 1283               	bcf	3,5	;RP0=0, select bank0
  4114  0143' 1303               	bcf	3,6	;RP1=0, select bank0
  4115  0144' 0800'              	movf	?___lwdiv,w
  4116  0145' 00A8'              	movwf	??_fround+2
  4117  0146' 3001               	movlw	1
  4118  0147'                    u6215:
  4119  0147' 1003               	clrc
  4120  0148' 0DA8'              	rlf	??_fround+2,f
  4121  0149' 3EFF               	addlw	-1
  4122  014A' 1D03               	skipz
  4123  014B' 2800'              	goto	u6215
  4124  014C' 1003               	clrc
  4125  014D' 0D28'              	rlf	??_fround+2,w
  4126  014E' 3E00'              	addlw	low ((__npowers_| (0+32768)+36))
  4127  014F' 0084               	movwf	4
  4128  0150' 3000'              	movlw	high ((__npowers_| (0+32768)+36))
  4129  0151' 1803               	skipnc
  4130  0152' 3E01               	addlw	1
  4131  0153' 00FF               	movwf	btemp+1
  4132  0154' 120A' 118A' 2000' 120A' 118A' 	fcall	stringtab
  4133  0159' 00A9'              	movwf	??_fround+3
  4134  015A' 120A' 118A' 2000' 120A' 118A' 	fcall	stringtab
  4135  015F' 00AA'              	movwf	??_fround+4
  4136  0160' 120A' 118A' 2000' 120A' 118A' 	fcall	stringtab
  4137  0165' 00AB'              	movwf	??_fround+5
  4138  0166' 120A' 118A' 2000' 120A' 118A' 	fcall	stringtab
  4139  016B' 00AC'              	movwf	??_fround+6
  4140  016C' 082C'              	movf	??_fround+6,w
  4141  016D' 008F'              	movwf	___flmul@a+3
  4142  016E' 082B'              	movf	??_fround+5,w
  4143  016F' 008E'              	movwf	___flmul@a+2
  4144  0170' 082A'              	movf	??_fround+4,w
  4145  0171' 008D'              	movwf	___flmul@a+1
  4146  0172' 0829'              	movf	??_fround+3,w
  4147  0173' 008C'              	movwf	___flmul@a
  4148  0174' 120A' 118A' 2000' 120A' 118A' 	fcall	___flmul
  4149  0179' 1283               	bcf	3,5	;RP0=0, select bank0
  4150  017A' 1303               	bcf	3,6	;RP1=0, select bank0
  4151  017B' 080B'              	movf	?___flmul+3,w
  4152  017C' 00B4'              	movwf	_fround$1189+3
  4153  017D' 080A'              	movf	?___flmul+2,w
  4154  017E' 00B3'              	movwf	_fround$1189+2
  4155  017F' 0809'              	movf	?___flmul+1,w
  4156  0180' 00B2'              	movwf	_fround$1189+1
  4157  0181' 0808'              	movf	?___flmul,w
  4158  0182' 00B1'              	movwf	_fround$1189
  4159                           
  4160                           ;C:\Program Files\Microchip\xc8\v2.31\pic\sources\c90\common\doprnt.c: 424:   return 0.5
      +                           * _npowers_[prec/10U+9U] * _npowers_[prec%10U];
  4161  0183' 300A               	movlw	10
  4162  0184' 0082'              	movwf	___lwmod@divisor
  4163  0185' 3000               	movlw	0
  4164  0186' 0083'              	movwf	___lwmod@divisor+1
  4165  0187' 0835'              	movf	fround@prec,w
  4166  0188' 00A6'              	movwf	??_fround
  4167  0189' 01A7'              	clrf	??_fround+1
  4168  018A' 0826'              	movf	??_fround,w
  4169  018B' 0084'              	movwf	___lwmod@dividend
  4170  018C' 0827'              	movf	??_fround+1,w
  4171  018D' 0085'              	movwf	___lwmod@dividend+1
  4172  018E' 120A' 118A' 2000' 120A' 118A' 	fcall	___lwmod
  4173  0193' 0802'              	movf	?___lwmod,w
  4174  0194' 1283               	bcf	3,5	;RP0=0, select bank0
  4175  0195' 1303               	bcf	3,6	;RP1=0, select bank0
  4176  0196' 00A8'              	movwf	??_fround+2
  4177  0197' 3001               	movlw	1
  4178  0198'                    u6225:
  4179  0198' 1003               	clrc
  4180  0199' 0DA8'              	rlf	??_fround+2,f
  4181  019A' 3EFF               	addlw	-1
  4182  019B' 1D03               	skipz
  4183  019C' 2800'              	goto	u6225
  4184  019D' 1003               	clrc
  4185  019E' 0D28'              	rlf	??_fround+2,w
  4186  019F' 3E00'              	addlw	low (__npowers_| (0+32768))
  4187  01A0' 0084               	movwf	4
  4188  01A1' 3000'              	movlw	high (__npowers_| (0+32768))
  4189  01A2' 1803               	skipnc
  4190  01A3' 3E01               	addlw	1
  4191  01A4' 00FF               	movwf	btemp+1
  4192  01A5' 120A' 118A' 2000' 120A' 118A' 	fcall	stringtab
  4193  01AA' 00A9'              	movwf	??_fround+3
  4194  01AB' 120A' 118A' 2000' 120A' 118A' 	fcall	stringtab
  4195  01B0' 00AA'              	movwf	??_fround+4
  4196  01B1' 120A' 118A' 2000' 120A' 118A' 	fcall	stringtab
  4197  01B6' 00AB'              	movwf	??_fround+5
  4198  01B7' 120A' 118A' 2000' 120A' 118A' 	fcall	stringtab
  4199  01BC' 00AC'              	movwf	??_fround+6
  4200  01BD' 082C'              	movf	??_fround+6,w
  4201  01BE' 008B'              	movwf	___flmul@b+3
  4202  01BF' 082B'              	movf	??_fround+5,w
  4203  01C0' 008A'              	movwf	___flmul@b+2
  4204  01C1' 082A'              	movf	??_fround+4,w
  4205  01C2' 0089'              	movwf	___flmul@b+1
  4206  01C3' 0829'              	movf	??_fround+3,w
  4207  01C4' 0088'              	movwf	___flmul@b
  4208  01C5' 0834'              	movf	_fround$1189+3,w
  4209  01C6' 008F'              	movwf	___flmul@a+3
  4210  01C7' 0833'              	movf	_fround$1189+2,w
  4211  01C8' 008E'              	movwf	___flmul@a+2
  4212  01C9' 0832'              	movf	_fround$1189+1,w
  4213  01CA' 008D'              	movwf	___flmul@a+1
  4214  01CB' 0831'              	movf	_fround$1189,w
  4215  01CC' 008C'              	movwf	___flmul@a
  4216  01CD' 120A' 118A' 2000' 120A' 118A' 	fcall	___flmul
  4217  01D2' 1283               	bcf	3,5	;RP0=0, select bank0
  4218  01D3' 1303               	bcf	3,6	;RP1=0, select bank0
  4219  01D4' 080B'              	movf	?___flmul+3,w
  4220  01D5' 00A5'              	movwf	?_fround+3
  4221  01D6' 080A'              	movf	?___flmul+2,w
  4222  01D7' 00A4'              	movwf	?_fround+2
  4223  01D8' 0809'              	movf	?___flmul+1,w
  4224  01D9' 00A3'              	movwf	?_fround+1
  4225  01DA' 0808'              	movf	?___flmul,w
  4226  01DB' 00A2'              	movwf	?_fround
  4227  01DC' 2800'              	goto	l305
  4228  01DD'                    l4096:
  4229                           
  4230                           ;C:\Program Files\Microchip\xc8\v2.31\pic\sources\c90\common\doprnt.c: 425:  return 0.5 
      +                          * _npowers_[prec];
  4231  01DD' 303F               	movlw	63
  4232  01DE' 008B'              	movwf	___flmul@b+3
  4233  01DF' 3000               	movlw	0
  4234  01E0' 008A'              	movwf	___flmul@b+2
  4235  01E1' 3000               	movlw	0
  4236  01E2' 0089'              	movwf	___flmul@b+1
  4237  01E3' 3000               	movlw	0
  4238  01E4' 0088'              	movwf	___flmul@b
  4239  01E5' 0835'              	movf	fround@prec,w
  4240  01E6' 00A6'              	movwf	??_fround
  4241  01E7' 3001               	movlw	1
  4242  01E8'                    u6235:
  4243  01E8' 1003               	clrc
  4244  01E9' 0DA6'              	rlf	??_fround,f
  4245  01EA' 3EFF               	addlw	-1
  4246  01EB' 1D03               	skipz
  4247  01EC' 2800'              	goto	u6235
  4248  01ED' 1003               	clrc
  4249  01EE' 0D26'              	rlf	??_fround,w
  4250  01EF' 3E00'              	addlw	low (__npowers_| (0+32768))
  4251  01F0' 0084               	movwf	4
  4252  01F1' 3000'              	movlw	high (__npowers_| (0+32768))
  4253  01F2' 1803               	skipnc
  4254  01F3' 3E01               	addlw	1
  4255  01F4' 00FF               	movwf	btemp+1
  4256  01F5' 120A' 118A' 2000' 120A' 118A' 	fcall	stringtab
  4257  01FA' 00A7'              	movwf	??_fround+1
  4258  01FB' 120A' 118A' 2000' 120A' 118A' 	fcall	stringtab
  4259  0200' 00A8'              	movwf	??_fround+2
  4260  0201' 120A' 118A' 2000' 120A' 118A' 	fcall	stringtab
  4261  0206' 00A9'              	movwf	??_fround+3
  4262  0207' 120A' 118A' 2000' 120A' 118A' 	fcall	stringtab
  4263  020C' 00AA'              	movwf	??_fround+4
  4264  020D' 082A'              	movf	??_fround+4,w
  4265  020E' 008F'              	movwf	___flmul@a+3
  4266  020F' 0829'              	movf	??_fround+3,w
  4267  0210' 008E'              	movwf	___flmul@a+2
  4268  0211' 0828'              	movf	??_fround+2,w
  4269  0212' 008D'              	movwf	___flmul@a+1
  4270  0213' 0827'              	movf	??_fround+1,w
  4271  0214' 008C'              	movwf	___flmul@a
  4272  0215' 120A' 118A' 2000' 120A' 118A' 	fcall	___flmul
  4273  021A' 1283               	bcf	3,5	;RP0=0, select bank0
  4274  021B' 1303               	bcf	3,6	;RP1=0, select bank0
  4275  021C' 080B'              	movf	?___flmul+3,w
  4276  021D' 00A5'              	movwf	?_fround+3
  4277  021E' 080A'              	movf	?___flmul+2,w
  4278  021F' 00A4'              	movwf	?_fround+2
  4279  0220' 0809'              	movf	?___flmul+1,w
  4280  0221' 00A3'              	movwf	?_fround+1
  4281  0222' 0808'              	movf	?___flmul,w
  4282  0223' 00A2'              	movwf	?_fround
  4283  0224'                    l305:
  4284  0224' 0008               	return
  4285  0225'                    __end_of_fround:
  4286                           
  4287                           	psect	text7
  4288  0000'                    __ptext7:	
  4289 ;; *************** function ___lwmod *****************
  4290 ;; Defined at:
  4291 ;;		line 5 in file "C:\Program Files\Microchip\xc8\v2.31\pic\sources\c90\common\lwmod.c"
  4292 ;; Parameters:    Size  Location     Type
  4293 ;;  divisor         2    2[COMMON] unsigned int 
  4294 ;;  dividend        2    4[COMMON] unsigned int 
  4295 ;; Auto vars:     Size  Location     Type
  4296 ;;  counter         1    7[COMMON] unsigned char 
  4297 ;; Return value:  Size  Location     Type
  4298 ;;                  2    2[COMMON] unsigned int 
  4299 ;; Registers used:
  4300 ;;		wreg, status,2, status,0
  4301 ;; Tracked objects:
  4302 ;;		On entry : 0/0
  4303 ;;		On exit  : 0/0
  4304 ;;		Unchanged: 0/0
  4305 ;; Data sizes:     COMMON   BANK0   BANK1   BANK3   BANK2
  4306 ;;      Params:         4       0       0       0       0
  4307 ;;      Locals:         1       0       0       0       0
  4308 ;;      Temps:          1       0       0       0       0
  4309 ;;      Totals:         6       0       0       0       0
  4310 ;;Total ram usage:        6 bytes
  4311 ;; Hardware stack levels used:    1
  4312 ;; Hardware stack levels required when called:    1
  4313 ;; This function calls:
  4314 ;;		Nothing
  4315 ;; This function is called by:
  4316 ;;		_fround
  4317 ;; This function uses a non-reentrant model
  4318 ;;
  4319                           
  4320                           
  4321                           ;psect for function ___lwmod
  4322  0000'                    ___lwmod:
  4323  0000'                    l2634:	
  4324                           ;incstack = 0
  4325                           ; Regs used in ___lwmod: [wreg+status,2+status,0]
  4326                           
  4327  0000' 0802'              	movf	___lwmod@divisor,w
  4328  0001' 0403'              	iorwf	___lwmod@divisor+1,w
  4329  0002' 1903               	btfsc	3,2
  4330  0003' 2800'              	goto	u3161
  4331  0004' 2800'              	goto	u3160
  4332  0005'                    u3161:
  4333  0005' 2800'              	goto	l2652
  4334  0006'                    u3160:
  4335  0006'                    l2636:
  4336  0006' 0187'              	clrf	___lwmod@counter
  4337  0007' 0A87'              	incf	___lwmod@counter,f
  4338  0008' 2800'              	goto	l2642
  4339  0009'                    l2638:
  4340  0009' 3001               	movlw	1
  4341  000A'                    u3175:
  4342  000A' 1003               	clrc
  4343  000B' 0D82'              	rlf	___lwmod@divisor,f
  4344  000C' 0D83'              	rlf	___lwmod@divisor+1,f
  4345  000D' 3EFF               	addlw	-1
  4346  000E' 1D03               	skipz
  4347  000F' 2800'              	goto	u3175
  4348  0010'                    l2640:
  4349  0010' 3001               	movlw	1
  4350  0011' 0086'              	movwf	??___lwmod
  4351  0012' 0806'              	movf	??___lwmod,w
  4352  0013' 0787'              	addwf	___lwmod@counter,f
  4353  0014'                    l2642:
  4354  0014' 1F83'              	btfss	___lwmod@divisor+1,7
  4355  0015' 2800'              	goto	u3181
  4356  0016' 2800'              	goto	u3180
  4357  0017'                    u3181:
  4358  0017' 2800'              	goto	l2638
  4359  0018'                    u3180:
  4360  0018'                    l2644:
  4361  0018' 0803'              	movf	___lwmod@divisor+1,w
  4362  0019' 0205'              	subwf	___lwmod@dividend+1,w
  4363  001A' 1D03               	skipz
  4364  001B' 2800'              	goto	u3195
  4365  001C' 0802'              	movf	___lwmod@divisor,w
  4366  001D' 0204'              	subwf	___lwmod@dividend,w
  4367  001E'                    u3195:
  4368  001E' 1C03               	skipc
  4369  001F' 2800'              	goto	u3191
  4370  0020' 2800'              	goto	u3190
  4371  0021'                    u3191:
  4372  0021' 2800'              	goto	l2648
  4373  0022'                    u3190:
  4374  0022'                    l2646:
  4375  0022' 0802'              	movf	___lwmod@divisor,w
  4376  0023' 0284'              	subwf	___lwmod@dividend,f
  4377  0024' 0803'              	movf	___lwmod@divisor+1,w
  4378  0025' 1C03               	skipc
  4379  0026' 0385'              	decf	___lwmod@dividend+1,f
  4380  0027' 0285'              	subwf	___lwmod@dividend+1,f
  4381  0028'                    l2648:
  4382  0028' 3001               	movlw	1
  4383  0029'                    u3205:
  4384  0029' 1003               	clrc
  4385  002A' 0C83'              	rrf	___lwmod@divisor+1,f
  4386  002B' 0C82'              	rrf	___lwmod@divisor,f
  4387  002C' 3EFF               	addlw	-1
  4388  002D' 1D03               	skipz
  4389  002E' 2800'              	goto	u3205
  4390  002F'                    l2650:
  4391  002F' 3001               	movlw	1
  4392  0030' 0287'              	subwf	___lwmod@counter,f
  4393  0031' 1D03               	btfss	3,2
  4394  0032' 2800'              	goto	u3211
  4395  0033' 2800'              	goto	u3210
  4396  0034'                    u3211:
  4397  0034' 2800'              	goto	l2644
  4398  0035'                    u3210:
  4399  0035'                    l2652:
  4400  0035' 0805'              	movf	___lwmod@dividend+1,w
  4401  0036' 0083'              	movwf	?___lwmod+1
  4402  0037' 0804'              	movf	___lwmod@dividend,w
  4403  0038' 0082'              	movwf	?___lwmod
  4404  0039'                    l715:
  4405  0039' 0008               	return
  4406  003A'                    __end_of___lwmod:
  4407                           
  4408                           	psect	text8
  4409  0000'                    __ptext8:	
  4410 ;; *************** function ___lwdiv *****************
  4411 ;; Defined at:
  4412 ;;		line 5 in file "C:\Program Files\Microchip\xc8\v2.31\pic\sources\c90\common\lwdiv.c"
  4413 ;; Parameters:    Size  Location     Type
  4414 ;;  divisor         2    0[BANK0 ] unsigned int 
  4415 ;;  dividend        2    2[BANK0 ] unsigned int 
  4416 ;; Auto vars:     Size  Location     Type
  4417 ;;  quotient        2    5[BANK0 ] unsigned int 
  4418 ;;  counter         1    4[BANK0 ] unsigned char 
  4419 ;; Return value:  Size  Location     Type
  4420 ;;                  2    0[BANK0 ] unsigned int 
  4421 ;; Registers used:
  4422 ;;		wreg, status,2, status,0
  4423 ;; Tracked objects:
  4424 ;;		On entry : 0/0
  4425 ;;		On exit  : 0/0
  4426 ;;		Unchanged: 0/0
  4427 ;; Data sizes:     COMMON   BANK0   BANK1   BANK3   BANK2
  4428 ;;      Params:         0       4       0       0       0
  4429 ;;      Locals:         0       3       0       0       0
  4430 ;;      Temps:          1       0       0       0       0
  4431 ;;      Totals:         1       7       0       0       0
  4432 ;;Total ram usage:        8 bytes
  4433 ;; Hardware stack levels used:    1
  4434 ;; Hardware stack levels required when called:    1
  4435 ;; This function calls:
  4436 ;;		Nothing
  4437 ;; This function is called by:
  4438 ;;		_fround
  4439 ;; This function uses a non-reentrant model
  4440 ;;
  4441                           
  4442                           
  4443                           ;psect for function ___lwdiv
  4444  0000'                    ___lwdiv:
  4445  0000'                    l3916:	
  4446                           ;incstack = 0
  4447                           ; Regs used in ___lwdiv: [wreg+status,2+status,0]
  4448                           
  4449  0000' 1283               	bcf	3,5	;RP0=0, select bank0
  4450  0001' 1303               	bcf	3,6	;RP1=0, select bank0
  4451  0002' 0185'              	clrf	___lwdiv@quotient
  4452  0003' 0186'              	clrf	___lwdiv@quotient+1
  4453  0004'                    l3918:
  4454  0004' 0800'              	movf	___lwdiv@divisor,w
  4455  0005' 0401'              	iorwf	___lwdiv@divisor+1,w
  4456  0006' 1903               	btfsc	3,2
  4457  0007' 2800'              	goto	u5721
  4458  0008' 2800'              	goto	u5720
  4459  0009'                    u5721:
  4460  0009' 2800'              	goto	l3938
  4461  000A'                    u5720:
  4462  000A'                    l3920:
  4463  000A' 0184'              	clrf	___lwdiv@counter
  4464  000B' 0A84'              	incf	___lwdiv@counter,f
  4465  000C' 2800'              	goto	l3926
  4466  000D'                    l3922:
  4467  000D' 3001               	movlw	1
  4468  000E'                    u5735:
  4469  000E' 1003               	clrc
  4470  000F' 0D80'              	rlf	___lwdiv@divisor,f
  4471  0010' 0D81'              	rlf	___lwdiv@divisor+1,f
  4472  0011' 3EFF               	addlw	-1
  4473  0012' 1D03               	skipz
  4474  0013' 2800'              	goto	u5735
  4475  0014'                    l3924:
  4476  0014' 3001               	movlw	1
  4477  0015' 0088'              	movwf	??___lwdiv
  4478  0016' 0808'              	movf	??___lwdiv,w
  4479  0017' 0784'              	addwf	___lwdiv@counter,f
  4480  0018'                    l3926:
  4481  0018' 1F81'              	btfss	___lwdiv@divisor+1,7
  4482  0019' 2800'              	goto	u5741
  4483  001A' 2800'              	goto	u5740
  4484  001B'                    u5741:
  4485  001B' 2800'              	goto	l3922
  4486  001C'                    u5740:
  4487  001C'                    l3928:
  4488  001C' 3001               	movlw	1
  4489  001D'                    u5755:
  4490  001D' 1003               	clrc
  4491  001E' 0D85'              	rlf	___lwdiv@quotient,f
  4492  001F' 0D86'              	rlf	___lwdiv@quotient+1,f
  4493  0020' 3EFF               	addlw	-1
  4494  0021' 1D03               	skipz
  4495  0022' 2800'              	goto	u5755
  4496  0023' 0801'              	movf	___lwdiv@divisor+1,w
  4497  0024' 0203'              	subwf	___lwdiv@dividend+1,w
  4498  0025' 1D03               	skipz
  4499  0026' 2800'              	goto	u5765
  4500  0027' 0800'              	movf	___lwdiv@divisor,w
  4501  0028' 0202'              	subwf	___lwdiv@dividend,w
  4502  0029'                    u5765:
  4503  0029' 1C03               	skipc
  4504  002A' 2800'              	goto	u5761
  4505  002B' 2800'              	goto	u5760
  4506  002C'                    u5761:
  4507  002C' 2800'              	goto	l3934
  4508  002D'                    u5760:
  4509  002D'                    l3930:
  4510  002D' 0800'              	movf	___lwdiv@divisor,w
  4511  002E' 0282'              	subwf	___lwdiv@dividend,f
  4512  002F' 0801'              	movf	___lwdiv@divisor+1,w
  4513  0030' 1C03               	skipc
  4514  0031' 0383'              	decf	___lwdiv@dividend+1,f
  4515  0032' 0283'              	subwf	___lwdiv@dividend+1,f
  4516  0033'                    l3932:
  4517  0033' 1405'              	bsf	___lwdiv@quotient,0
  4518  0034'                    l3934:
  4519  0034' 3001               	movlw	1
  4520  0035'                    u5775:
  4521  0035' 1003               	clrc
  4522  0036' 0C81'              	rrf	___lwdiv@divisor+1,f
  4523  0037' 0C80'              	rrf	___lwdiv@divisor,f
  4524  0038' 3EFF               	addlw	-1
  4525  0039' 1D03               	skipz
  4526  003A' 2800'              	goto	u5775
  4527  003B'                    l3936:
  4528  003B' 3001               	movlw	1
  4529  003C' 0284'              	subwf	___lwdiv@counter,f
  4530  003D' 1D03               	btfss	3,2
  4531  003E' 2800'              	goto	u5781
  4532  003F' 2800'              	goto	u5780
  4533  0040'                    u5781:
  4534  0040' 2800'              	goto	l3928
  4535  0041'                    u5780:
  4536  0041'                    l3938:
  4537  0041' 0806'              	movf	___lwdiv@quotient+1,w
  4538  0042' 0081'              	movwf	?___lwdiv+1
  4539  0043' 0805'              	movf	___lwdiv@quotient,w
  4540  0044' 0080'              	movwf	?___lwdiv
  4541  0045'                    l705:
  4542  0045' 0008               	return
  4543  0046'                    __end_of___lwdiv:
  4544                           
  4545                           	psect	text9
  4546  0000'                    __ptext9:	
  4547 ;; *************** function ___flmul *****************
  4548 ;; Defined at:
  4549 ;;		line 8 in file "C:\Program Files\Microchip\xc8\v2.31\pic\sources\c90\common\sprcmul.c"
  4550 ;; Parameters:    Size  Location     Type
  4551 ;;  b               4    8[BANK0 ] unsigned int 
  4552 ;;  a               4   12[BANK0 ] unsigned int 
  4553 ;; Auto vars:     Size  Location     Type
  4554 ;;  prod            4   28[BANK0 ] struct .
  4555 ;;  grs             4   23[BANK0 ] unsigned long 
  4556 ;;  temp            2   32[BANK0 ] struct .
  4557 ;;  bexp            1   27[BANK0 ] unsigned char 
  4558 ;;  aexp            1   22[BANK0 ] unsigned char 
  4559 ;;  sign            1   21[BANK0 ] unsigned char 
  4560 ;; Return value:  Size  Location     Type
  4561 ;;                  4    8[BANK0 ] unsigned char 
  4562 ;; Registers used:
  4563 ;;		wreg, status,2, status,0, btemp+1, pclath, cstack
  4564 ;; Tracked objects:
  4565 ;;		On entry : 0/0
  4566 ;;		On exit  : 0/0
  4567 ;;		Unchanged: 0/0
  4568 ;; Data sizes:     COMMON   BANK0   BANK1   BANK3   BANK2
  4569 ;;      Params:         0       8       0       0       0
  4570 ;;      Locals:         0      13       0       0       0
  4571 ;;      Temps:          0       5       0       0       0
  4572 ;;      Totals:         0      26       0       0       0
  4573 ;;Total ram usage:       26 bytes
  4574 ;; Hardware stack levels used:    1
  4575 ;; Hardware stack levels required when called:    2
  4576 ;; This function calls:
  4577 ;;		__Umul8_16
  4578 ;; This function is called by:
  4579 ;;		_main
  4580 ;;		_fround
  4581 ;;		_scale
  4582 ;;		_sprintf
  4583 ;; This function uses a non-reentrant model
  4584 ;;
  4585                           
  4586                           
  4587                           ;psect for function ___flmul
  4588  0000'                    ___flmul:
  4589  0000'                    l3942:	
  4590                           ;incstack = 0
  4591                           ; Regs used in ___flmul: [wreg+status,2+status,0+btemp+1+pclath+cstack]
  4592                           
  4593  0000' 1283               	bcf	3,5	;RP0=0, select bank0
  4594  0001' 1303               	bcf	3,6	;RP1=0, select bank0
  4595  0002' 080B'              	movf	___flmul@b+3,w
  4596  0003' 3980               	andlw	128
  4597  0004' 0090'              	movwf	??___flmul
  4598  0005' 0810'              	movf	??___flmul,w
  4599  0006' 0095'              	movwf	___flmul@sign
  4600  0007'                    l3944:
  4601  0007' 080B'              	movf	___flmul@b+3,w
  4602  0008' 0090'              	movwf	??___flmul
  4603  0009' 0710'              	addwf	??___flmul,w
  4604  000A' 0091'              	movwf	??___flmul+1
  4605  000B' 0811'              	movf	??___flmul+1,w
  4606  000C' 009B'              	movwf	___flmul@bexp
  4607  000D'                    l3946:
  4608  000D' 1F8A'              	btfss	___flmul@b+2,7
  4609  000E' 2800'              	goto	u5791
  4610  000F' 2800'              	goto	u5790
  4611  0010'                    u5791:
  4612  0010' 2800'              	goto	l3950
  4613  0011'                    u5790:
  4614  0011'                    l3948:
  4615  0011' 141B'              	bsf	___flmul@bexp,0
  4616  0012'                    l3950:
  4617  0012' 081B'              	movf	___flmul@bexp,w
  4618  0013' 1903               	btfsc	3,2
  4619  0014' 2800'              	goto	u5801
  4620  0015' 2800'              	goto	u5800
  4621  0016'                    u5801:
  4622  0016' 2800'              	goto	l3958
  4623  0017'                    u5800:
  4624  0017'                    l3952:
  4625  0017' 0A1B'              	incf	___flmul@bexp,w
  4626  0018' 1D03               	btfss	3,2
  4627  0019' 2800'              	goto	u5811
  4628  001A' 2800'              	goto	u5810
  4629  001B'                    u5811:
  4630  001B' 2800'              	goto	l3956
  4631  001C'                    u5810:
  4632  001C'                    l3954:
  4633  001C' 3000               	movlw	0
  4634  001D' 008B'              	movwf	___flmul@b+3
  4635  001E' 3000               	movlw	0
  4636  001F' 008A'              	movwf	___flmul@b+2
  4637  0020' 3000               	movlw	0
  4638  0021' 0089'              	movwf	___flmul@b+1
  4639  0022' 3000               	movlw	0
  4640  0023' 0088'              	movwf	___flmul@b
  4641  0024'                    l3956:
  4642  0024' 178A'              	bsf	___flmul@b+2,7
  4643  0025' 2800'              	goto	l3960
  4644  0026'                    l3958:
  4645  0026' 3000               	movlw	0
  4646  0027' 008B'              	movwf	___flmul@b+3
  4647  0028' 3000               	movlw	0
  4648  0029' 008A'              	movwf	___flmul@b+2
  4649  002A' 3000               	movlw	0
  4650  002B' 0089'              	movwf	___flmul@b+1
  4651  002C' 3000               	movlw	0
  4652  002D' 0088'              	movwf	___flmul@b
  4653  002E'                    l3960:
  4654  002E' 080F'              	movf	___flmul@a+3,w
  4655  002F' 3980               	andlw	128
  4656  0030' 0090'              	movwf	??___flmul
  4657  0031' 0810'              	movf	??___flmul,w
  4658  0032' 0695'              	xorwf	___flmul@sign,f
  4659  0033'                    l3962:
  4660  0033' 080F'              	movf	___flmul@a+3,w
  4661  0034' 0090'              	movwf	??___flmul
  4662  0035' 0710'              	addwf	??___flmul,w
  4663  0036' 0091'              	movwf	??___flmul+1
  4664  0037' 0811'              	movf	??___flmul+1,w
  4665  0038' 0096'              	movwf	___flmul@aexp
  4666  0039'                    l3964:
  4667  0039' 1F8E'              	btfss	___flmul@a+2,7
  4668  003A' 2800'              	goto	u5821
  4669  003B' 2800'              	goto	u5820
  4670  003C'                    u5821:
  4671  003C' 2800'              	goto	l3968
  4672  003D'                    u5820:
  4673  003D'                    l3966:
  4674  003D' 1416'              	bsf	___flmul@aexp,0
  4675  003E'                    l3968:
  4676  003E' 0816'              	movf	___flmul@aexp,w
  4677  003F' 1903               	btfsc	3,2
  4678  0040' 2800'              	goto	u5831
  4679  0041' 2800'              	goto	u5830
  4680  0042'                    u5831:
  4681  0042' 2800'              	goto	l3976
  4682  0043'                    u5830:
  4683  0043'                    l3970:
  4684  0043' 0A16'              	incf	___flmul@aexp,w
  4685  0044' 1D03               	btfss	3,2
  4686  0045' 2800'              	goto	u5841
  4687  0046' 2800'              	goto	u5840
  4688  0047'                    u5841:
  4689  0047' 2800'              	goto	l3974
  4690  0048'                    u5840:
  4691  0048'                    l3972:
  4692  0048' 3000               	movlw	0
  4693  0049' 008F'              	movwf	___flmul@a+3
  4694  004A' 3000               	movlw	0
  4695  004B' 008E'              	movwf	___flmul@a+2
  4696  004C' 3000               	movlw	0
  4697  004D' 008D'              	movwf	___flmul@a+1
  4698  004E' 3000               	movlw	0
  4699  004F' 008C'              	movwf	___flmul@a
  4700  0050'                    l3974:
  4701  0050' 178E'              	bsf	___flmul@a+2,7
  4702  0051' 2800'              	goto	l3978
  4703  0052'                    l3976:
  4704  0052' 3000               	movlw	0
  4705  0053' 008F'              	movwf	___flmul@a+3
  4706  0054' 3000               	movlw	0
  4707  0055' 008E'              	movwf	___flmul@a+2
  4708  0056' 3000               	movlw	0
  4709  0057' 008D'              	movwf	___flmul@a+1
  4710  0058' 3000               	movlw	0
  4711  0059' 008C'              	movwf	___flmul@a
  4712  005A'                    l3978:
  4713  005A' 0816'              	movf	___flmul@aexp,w
  4714  005B' 1903               	btfsc	3,2
  4715  005C' 2800'              	goto	u5851
  4716  005D' 2800'              	goto	u5850
  4717  005E'                    u5851:
  4718  005E' 2800'              	goto	l3982
  4719  005F'                    u5850:
  4720  005F'                    l3980:
  4721  005F' 081B'              	movf	___flmul@bexp,w
  4722  0060' 1D03               	btfss	3,2
  4723  0061' 2800'              	goto	u5861
  4724  0062' 2800'              	goto	u5860
  4725  0063'                    u5861:
  4726  0063' 2800'              	goto	l3986
  4727  0064'                    u5860:
  4728  0064'                    l3982:
  4729  0064' 3000               	movlw	0
  4730  0065' 008B'              	movwf	?___flmul+3
  4731  0066' 3000               	movlw	0
  4732  0067' 008A'              	movwf	?___flmul+2
  4733  0068' 3000               	movlw	0
  4734  0069' 0089'              	movwf	?___flmul+1
  4735  006A' 3000               	movlw	0
  4736  006B' 0088'              	movwf	?___flmul
  4737  006C' 2800'              	goto	l822
  4738  006D'                    l3986:
  4739  006D' 0808'              	movf	___flmul@b,w
  4740  006E' 0090'              	movwf	??___flmul
  4741  006F' 0810'              	movf	??___flmul,w
  4742  0070' 0082'              	movwf	__Umul8_16@multiplicand
  4743  0071' 080E'              	movf	___flmul@a+2,w
  4744  0072' 120A' 118A' 2000' 120A' 118A' 	fcall	__Umul8_16
  4745  0077' 0803'              	movf	?__Umul8_16+1,w
  4746  0078' 1283               	bcf	3,5	;RP0=0, select bank0
  4747  0079' 1303               	bcf	3,6	;RP1=0, select bank0
  4748  007A' 00A1'              	movwf	___flmul@temp+1
  4749  007B' 0802'              	movf	?__Umul8_16,w
  4750  007C' 00A0'              	movwf	___flmul@temp
  4751  007D'                    l3988:
  4752  007D' 0820'              	movf	___flmul@temp,w
  4753  007E' 0090'              	movwf	??___flmul
  4754  007F' 0191'              	clrf	??___flmul+1
  4755  0080' 0192'              	clrf	??___flmul+2
  4756  0081' 0193'              	clrf	??___flmul+3
  4757  0082' 0813'              	movf	??___flmul+3,w
  4758  0083' 009A'              	movwf	___flmul@grs+3
  4759  0084' 0812'              	movf	??___flmul+2,w
  4760  0085' 0099'              	movwf	___flmul@grs+2
  4761  0086' 0811'              	movf	??___flmul+1,w
  4762  0087' 0098'              	movwf	___flmul@grs+1
  4763  0088' 0810'              	movf	??___flmul,w
  4764  0089' 0097'              	movwf	___flmul@grs
  4765  008A'                    l3990:
  4766  008A' 0821'              	movf	___flmul@temp+1,w
  4767  008B' 0090'              	movwf	??___flmul
  4768  008C' 0191'              	clrf	??___flmul+1
  4769  008D' 0192'              	clrf	??___flmul+2
  4770  008E' 0193'              	clrf	??___flmul+3
  4771  008F' 0813'              	movf	??___flmul+3,w
  4772  0090' 009F'              	movwf	___flmul@prod+3
  4773  0091' 0812'              	movf	??___flmul+2,w
  4774  0092' 009E'              	movwf	___flmul@prod+2
  4775  0093' 0811'              	movf	??___flmul+1,w
  4776  0094' 009D'              	movwf	___flmul@prod+1
  4777  0095' 0810'              	movf	??___flmul,w
  4778  0096' 009C'              	movwf	___flmul@prod
  4779  0097' 0809'              	movf	___flmul@b+1,w
  4780  0098' 0090'              	movwf	??___flmul
  4781  0099' 0810'              	movf	??___flmul,w
  4782  009A' 0082'              	movwf	__Umul8_16@multiplicand
  4783  009B' 080D'              	movf	___flmul@a+1,w
  4784  009C' 120A' 118A' 2000' 120A' 118A' 	fcall	__Umul8_16
  4785  00A1' 0803'              	movf	?__Umul8_16+1,w
  4786  00A2' 1283               	bcf	3,5	;RP0=0, select bank0
  4787  00A3' 1303               	bcf	3,6	;RP1=0, select bank0
  4788  00A4' 00A1'              	movwf	___flmul@temp+1
  4789  00A5' 0802'              	movf	?__Umul8_16,w
  4790  00A6' 00A0'              	movwf	___flmul@temp
  4791  00A7'                    l3992:
  4792  00A7' 0820'              	movf	___flmul@temp,w
  4793  00A8' 0090'              	movwf	??___flmul
  4794  00A9' 0191'              	clrf	??___flmul+1
  4795  00AA' 0192'              	clrf	??___flmul+2
  4796  00AB' 0193'              	clrf	??___flmul+3
  4797  00AC' 0810'              	movf	??___flmul,w
  4798  00AD' 0797'              	addwf	___flmul@grs,f
  4799  00AE' 0811'              	movf	??___flmul+1,w
  4800  00AF' 1103               	clrz
  4801  00B0' 1803               	skipnc
  4802  00B1' 3E01               	addlw	1
  4803  00B2' 1903               	skipnz
  4804  00B3' 2800'              	goto	u5871
  4805  00B4' 0798'              	addwf	___flmul@grs+1,f
  4806  00B5'                    u5871:
  4807  00B5' 0812'              	movf	??___flmul+2,w
  4808  00B6' 1103               	clrz
  4809  00B7' 1803               	skipnc
  4810  00B8' 3E01               	addlw	1
  4811  00B9' 1903               	skipnz
  4812  00BA' 2800'              	goto	u5872
  4813  00BB' 0799'              	addwf	___flmul@grs+2,f
  4814  00BC'                    u5872:
  4815  00BC' 0813'              	movf	??___flmul+3,w
  4816  00BD' 1103               	clrz
  4817  00BE' 1803               	skipnc
  4818  00BF' 3E01               	addlw	1
  4819  00C0' 1903               	skipnz
  4820  00C1' 2800'              	goto	u5873
  4821  00C2' 079A'              	addwf	___flmul@grs+3,f
  4822  00C3'                    u5873:
  4823  00C3'                    l3994:
  4824  00C3' 0821'              	movf	___flmul@temp+1,w
  4825  00C4' 0090'              	movwf	??___flmul
  4826  00C5' 0191'              	clrf	??___flmul+1
  4827  00C6' 0192'              	clrf	??___flmul+2
  4828  00C7' 0193'              	clrf	??___flmul+3
  4829  00C8' 0810'              	movf	??___flmul,w
  4830  00C9' 079C'              	addwf	___flmul@prod,f
  4831  00CA' 0811'              	movf	??___flmul+1,w
  4832  00CB' 1103               	clrz
  4833  00CC' 1803               	skipnc
  4834  00CD' 3E01               	addlw	1
  4835  00CE' 1903               	skipnz
  4836  00CF' 2800'              	goto	u5881
  4837  00D0' 079D'              	addwf	___flmul@prod+1,f
  4838  00D1'                    u5881:
  4839  00D1' 0812'              	movf	??___flmul+2,w
  4840  00D2' 1103               	clrz
  4841  00D3' 1803               	skipnc
  4842  00D4' 3E01               	addlw	1
  4843  00D5' 1903               	skipnz
  4844  00D6' 2800'              	goto	u5882
  4845  00D7' 079E'              	addwf	___flmul@prod+2,f
  4846  00D8'                    u5882:
  4847  00D8' 0813'              	movf	??___flmul+3,w
  4848  00D9' 1103               	clrz
  4849  00DA' 1803               	skipnc
  4850  00DB' 3E01               	addlw	1
  4851  00DC' 1903               	skipnz
  4852  00DD' 2800'              	goto	u5883
  4853  00DE' 079F'              	addwf	___flmul@prod+3,f
  4854  00DF'                    u5883:
  4855  00DF' 080A'              	movf	___flmul@b+2,w
  4856  00E0' 0090'              	movwf	??___flmul
  4857  00E1' 0810'              	movf	??___flmul,w
  4858  00E2' 0082'              	movwf	__Umul8_16@multiplicand
  4859  00E3' 080C'              	movf	___flmul@a,w
  4860  00E4' 120A' 118A' 2000' 120A' 118A' 	fcall	__Umul8_16
  4861  00E9' 0803'              	movf	?__Umul8_16+1,w
  4862  00EA' 1283               	bcf	3,5	;RP0=0, select bank0
  4863  00EB' 1303               	bcf	3,6	;RP1=0, select bank0
  4864  00EC' 00A1'              	movwf	___flmul@temp+1
  4865  00ED' 0802'              	movf	?__Umul8_16,w
  4866  00EE' 00A0'              	movwf	___flmul@temp
  4867  00EF'                    l3996:
  4868  00EF' 0820'              	movf	___flmul@temp,w
  4869  00F0' 0090'              	movwf	??___flmul
  4870  00F1' 0191'              	clrf	??___flmul+1
  4871  00F2' 0192'              	clrf	??___flmul+2
  4872  00F3' 0193'              	clrf	??___flmul+3
  4873  00F4' 0810'              	movf	??___flmul,w
  4874  00F5' 0797'              	addwf	___flmul@grs,f
  4875  00F6' 0811'              	movf	??___flmul+1,w
  4876  00F7' 1103               	clrz
  4877  00F8' 1803               	skipnc
  4878  00F9' 3E01               	addlw	1
  4879  00FA' 1903               	skipnz
  4880  00FB' 2800'              	goto	u5891
  4881  00FC' 0798'              	addwf	___flmul@grs+1,f
  4882  00FD'                    u5891:
  4883  00FD' 0812'              	movf	??___flmul+2,w
  4884  00FE' 1103               	clrz
  4885  00FF' 1803               	skipnc
  4886  0100' 3E01               	addlw	1
  4887  0101' 1903               	skipnz
  4888  0102' 2800'              	goto	u5892
  4889  0103' 0799'              	addwf	___flmul@grs+2,f
  4890  0104'                    u5892:
  4891  0104' 0813'              	movf	??___flmul+3,w
  4892  0105' 1103               	clrz
  4893  0106' 1803               	skipnc
  4894  0107' 3E01               	addlw	1
  4895  0108' 1903               	skipnz
  4896  0109' 2800'              	goto	u5893
  4897  010A' 079A'              	addwf	___flmul@grs+3,f
  4898  010B'                    u5893:
  4899  010B'                    l3998:
  4900  010B' 0821'              	movf	___flmul@temp+1,w
  4901  010C' 0090'              	movwf	??___flmul
  4902  010D' 0191'              	clrf	??___flmul+1
  4903  010E' 0192'              	clrf	??___flmul+2
  4904  010F' 0193'              	clrf	??___flmul+3
  4905  0110' 0810'              	movf	??___flmul,w
  4906  0111' 079C'              	addwf	___flmul@prod,f
  4907  0112' 0811'              	movf	??___flmul+1,w
  4908  0113' 1103               	clrz
  4909  0114' 1803               	skipnc
  4910  0115' 3E01               	addlw	1
  4911  0116' 1903               	skipnz
  4912  0117' 2800'              	goto	u5901
  4913  0118' 079D'              	addwf	___flmul@prod+1,f
  4914  0119'                    u5901:
  4915  0119' 0812'              	movf	??___flmul+2,w
  4916  011A' 1103               	clrz
  4917  011B' 1803               	skipnc
  4918  011C' 3E01               	addlw	1
  4919  011D' 1903               	skipnz
  4920  011E' 2800'              	goto	u5902
  4921  011F' 079E'              	addwf	___flmul@prod+2,f
  4922  0120'                    u5902:
  4923  0120' 0813'              	movf	??___flmul+3,w
  4924  0121' 1103               	clrz
  4925  0122' 1803               	skipnc
  4926  0123' 3E01               	addlw	1
  4927  0124' 1903               	skipnz
  4928  0125' 2800'              	goto	u5903
  4929  0126' 079F'              	addwf	___flmul@prod+3,f
  4930  0127'                    u5903:
  4931  0127'                    l4000:
  4932  0127' 3008               	movlw	8
  4933  0128' 0090'              	movwf	??___flmul
  4934  0129'                    u5915:
  4935  0129' 1003               	clrc
  4936  012A' 0D97'              	rlf	___flmul@grs,f
  4937  012B' 0D98'              	rlf	___flmul@grs+1,f
  4938  012C' 0D99'              	rlf	___flmul@grs+2,f
  4939  012D' 0D9A'              	rlf	___flmul@grs+3,f
  4940  012E' 0B90'              	decfsz	??___flmul,f
  4941  012F' 2800'              	goto	u5915
  4942  0130'                    l4002:
  4943  0130' 0809'              	movf	___flmul@b+1,w
  4944  0131' 0090'              	movwf	??___flmul
  4945  0132' 0810'              	movf	??___flmul,w
  4946  0133' 0082'              	movwf	__Umul8_16@multiplicand
  4947  0134' 080C'              	movf	___flmul@a,w
  4948  0135' 120A' 118A' 2000' 120A' 118A' 	fcall	__Umul8_16
  4949  013A' 0803'              	movf	?__Umul8_16+1,w
  4950  013B' 1283               	bcf	3,5	;RP0=0, select bank0
  4951  013C' 1303               	bcf	3,6	;RP1=0, select bank0
  4952  013D' 00A1'              	movwf	___flmul@temp+1
  4953  013E' 0802'              	movf	?__Umul8_16,w
  4954  013F' 00A0'              	movwf	___flmul@temp
  4955  0140'                    l4004:
  4956  0140' 0820'              	movf	___flmul@temp,w
  4957  0141' 0090'              	movwf	??___flmul
  4958  0142' 0821'              	movf	___flmul@temp+1,w
  4959  0143' 0091'              	movwf	??___flmul+1
  4960  0144' 0192'              	clrf	??___flmul+2
  4961  0145' 0193'              	clrf	??___flmul+3
  4962  0146' 0810'              	movf	??___flmul,w
  4963  0147' 0797'              	addwf	___flmul@grs,f
  4964  0148' 0811'              	movf	??___flmul+1,w
  4965  0149' 1103               	clrz
  4966  014A' 1803               	skipnc
  4967  014B' 3E01               	addlw	1
  4968  014C' 1903               	skipnz
  4969  014D' 2800'              	goto	u5921
  4970  014E' 0798'              	addwf	___flmul@grs+1,f
  4971  014F'                    u5921:
  4972  014F' 0812'              	movf	??___flmul+2,w
  4973  0150' 1103               	clrz
  4974  0151' 1803               	skipnc
  4975  0152' 3E01               	addlw	1
  4976  0153' 1903               	skipnz
  4977  0154' 2800'              	goto	u5922
  4978  0155' 0799'              	addwf	___flmul@grs+2,f
  4979  0156'                    u5922:
  4980  0156' 0813'              	movf	??___flmul+3,w
  4981  0157' 1103               	clrz
  4982  0158' 1803               	skipnc
  4983  0159' 3E01               	addlw	1
  4984  015A' 1903               	skipnz
  4985  015B' 2800'              	goto	u5923
  4986  015C' 079A'              	addwf	___flmul@grs+3,f
  4987  015D'                    u5923:
  4988  015D'                    l4006:
  4989  015D' 0808'              	movf	___flmul@b,w
  4990  015E' 0090'              	movwf	??___flmul
  4991  015F' 0810'              	movf	??___flmul,w
  4992  0160' 0082'              	movwf	__Umul8_16@multiplicand
  4993  0161' 080D'              	movf	___flmul@a+1,w
  4994  0162' 120A' 118A' 2000' 120A' 118A' 	fcall	__Umul8_16
  4995  0167' 0803'              	movf	?__Umul8_16+1,w
  4996  0168' 1283               	bcf	3,5	;RP0=0, select bank0
  4997  0169' 1303               	bcf	3,6	;RP1=0, select bank0
  4998  016A' 00A1'              	movwf	___flmul@temp+1
  4999  016B' 0802'              	movf	?__Umul8_16,w
  5000  016C' 00A0'              	movwf	___flmul@temp
  5001  016D'                    l4008:
  5002  016D' 0820'              	movf	___flmul@temp,w
  5003  016E' 0090'              	movwf	??___flmul
  5004  016F' 0821'              	movf	___flmul@temp+1,w
  5005  0170' 0091'              	movwf	??___flmul+1
  5006  0171' 0192'              	clrf	??___flmul+2
  5007  0172' 0193'              	clrf	??___flmul+3
  5008  0173' 0810'              	movf	??___flmul,w
  5009  0174' 0797'              	addwf	___flmul@grs,f
  5010  0175' 0811'              	movf	??___flmul+1,w
  5011  0176' 1103               	clrz
  5012  0177' 1803               	skipnc
  5013  0178' 3E01               	addlw	1
  5014  0179' 1903               	skipnz
  5015  017A' 2800'              	goto	u5931
  5016  017B' 0798'              	addwf	___flmul@grs+1,f
  5017  017C'                    u5931:
  5018  017C' 0812'              	movf	??___flmul+2,w
  5019  017D' 1103               	clrz
  5020  017E' 1803               	skipnc
  5021  017F' 3E01               	addlw	1
  5022  0180' 1903               	skipnz
  5023  0181' 2800'              	goto	u5932
  5024  0182' 0799'              	addwf	___flmul@grs+2,f
  5025  0183'                    u5932:
  5026  0183' 0813'              	movf	??___flmul+3,w
  5027  0184' 1103               	clrz
  5028  0185' 1803               	skipnc
  5029  0186' 3E01               	addlw	1
  5030  0187' 1903               	skipnz
  5031  0188' 2800'              	goto	u5933
  5032  0189' 079A'              	addwf	___flmul@grs+3,f
  5033  018A'                    u5933:
  5034  018A'                    l4010:
  5035  018A' 3008               	movlw	8
  5036  018B' 0090'              	movwf	??___flmul
  5037  018C'                    u5945:
  5038  018C' 1003               	clrc
  5039  018D' 0D97'              	rlf	___flmul@grs,f
  5040  018E' 0D98'              	rlf	___flmul@grs+1,f
  5041  018F' 0D99'              	rlf	___flmul@grs+2,f
  5042  0190' 0D9A'              	rlf	___flmul@grs+3,f
  5043  0191' 0B90'              	decfsz	??___flmul,f
  5044  0192' 2800'              	goto	u5945
  5045  0193' 0808'              	movf	___flmul@b,w
  5046  0194' 0090'              	movwf	??___flmul
  5047  0195' 0810'              	movf	??___flmul,w
  5048  0196' 0082'              	movwf	__Umul8_16@multiplicand
  5049  0197' 080C'              	movf	___flmul@a,w
  5050  0198' 120A' 118A' 2000' 120A' 118A' 	fcall	__Umul8_16
  5051  019D' 0803'              	movf	?__Umul8_16+1,w
  5052  019E' 1283               	bcf	3,5	;RP0=0, select bank0
  5053  019F' 1303               	bcf	3,6	;RP1=0, select bank0
  5054  01A0' 00A1'              	movwf	___flmul@temp+1
  5055  01A1' 0802'              	movf	?__Umul8_16,w
  5056  01A2' 00A0'              	movwf	___flmul@temp
  5057  01A3'                    l4012:
  5058  01A3' 0820'              	movf	___flmul@temp,w
  5059  01A4' 0090'              	movwf	??___flmul
  5060  01A5' 0821'              	movf	___flmul@temp+1,w
  5061  01A6' 0091'              	movwf	??___flmul+1
  5062  01A7' 0192'              	clrf	??___flmul+2
  5063  01A8' 0193'              	clrf	??___flmul+3
  5064  01A9' 0810'              	movf	??___flmul,w
  5065  01AA' 0797'              	addwf	___flmul@grs,f
  5066  01AB' 0811'              	movf	??___flmul+1,w
  5067  01AC' 1103               	clrz
  5068  01AD' 1803               	skipnc
  5069  01AE' 3E01               	addlw	1
  5070  01AF' 1903               	skipnz
  5071  01B0' 2800'              	goto	u5951
  5072  01B1' 0798'              	addwf	___flmul@grs+1,f
  5073  01B2'                    u5951:
  5074  01B2' 0812'              	movf	??___flmul+2,w
  5075  01B3' 1103               	clrz
  5076  01B4' 1803               	skipnc
  5077  01B5' 3E01               	addlw	1
  5078  01B6' 1903               	skipnz
  5079  01B7' 2800'              	goto	u5952
  5080  01B8' 0799'              	addwf	___flmul@grs+2,f
  5081  01B9'                    u5952:
  5082  01B9' 0813'              	movf	??___flmul+3,w
  5083  01BA' 1103               	clrz
  5084  01BB' 1803               	skipnc
  5085  01BC' 3E01               	addlw	1
  5086  01BD' 1903               	skipnz
  5087  01BE' 2800'              	goto	u5953
  5088  01BF' 079A'              	addwf	___flmul@grs+3,f
  5089  01C0'                    u5953:
  5090  01C0'                    l4014:
  5091  01C0' 0809'              	movf	___flmul@b+1,w
  5092  01C1' 0090'              	movwf	??___flmul
  5093  01C2' 0810'              	movf	??___flmul,w
  5094  01C3' 0082'              	movwf	__Umul8_16@multiplicand
  5095  01C4' 080E'              	movf	___flmul@a+2,w
  5096  01C5' 120A' 118A' 2000' 120A' 118A' 	fcall	__Umul8_16
  5097  01CA' 0803'              	movf	?__Umul8_16+1,w
  5098  01CB' 1283               	bcf	3,5	;RP0=0, select bank0
  5099  01CC' 1303               	bcf	3,6	;RP1=0, select bank0
  5100  01CD' 00A1'              	movwf	___flmul@temp+1
  5101  01CE' 0802'              	movf	?__Umul8_16,w
  5102  01CF' 00A0'              	movwf	___flmul@temp
  5103  01D0' 0820'              	movf	___flmul@temp,w
  5104  01D1' 0090'              	movwf	??___flmul
  5105  01D2' 0821'              	movf	___flmul@temp+1,w
  5106  01D3' 0091'              	movwf	??___flmul+1
  5107  01D4' 0192'              	clrf	??___flmul+2
  5108  01D5' 0193'              	clrf	??___flmul+3
  5109  01D6' 0810'              	movf	??___flmul,w
  5110  01D7' 079C'              	addwf	___flmul@prod,f
  5111  01D8' 0811'              	movf	??___flmul+1,w
  5112  01D9' 1103               	clrz
  5113  01DA' 1803               	skipnc
  5114  01DB' 3E01               	addlw	1
  5115  01DC' 1903               	skipnz
  5116  01DD' 2800'              	goto	u5961
  5117  01DE' 079D'              	addwf	___flmul@prod+1,f
  5118  01DF'                    u5961:
  5119  01DF' 0812'              	movf	??___flmul+2,w
  5120  01E0' 1103               	clrz
  5121  01E1' 1803               	skipnc
  5122  01E2' 3E01               	addlw	1
  5123  01E3' 1903               	skipnz
  5124  01E4' 2800'              	goto	u5962
  5125  01E5' 079E'              	addwf	___flmul@prod+2,f
  5126  01E6'                    u5962:
  5127  01E6' 0813'              	movf	??___flmul+3,w
  5128  01E7' 1103               	clrz
  5129  01E8' 1803               	skipnc
  5130  01E9' 3E01               	addlw	1
  5131  01EA' 1903               	skipnz
  5132  01EB' 2800'              	goto	u5963
  5133  01EC' 079F'              	addwf	___flmul@prod+3,f
  5134  01ED'                    u5963:
  5135  01ED'                    l4016:
  5136  01ED' 080A'              	movf	___flmul@b+2,w
  5137  01EE' 0090'              	movwf	??___flmul
  5138  01EF' 0810'              	movf	??___flmul,w
  5139  01F0' 0082'              	movwf	__Umul8_16@multiplicand
  5140  01F1' 080D'              	movf	___flmul@a+1,w
  5141  01F2' 120A' 118A' 2000' 120A' 118A' 	fcall	__Umul8_16
  5142  01F7' 0803'              	movf	?__Umul8_16+1,w
  5143  01F8' 1283               	bcf	3,5	;RP0=0, select bank0
  5144  01F9' 1303               	bcf	3,6	;RP1=0, select bank0
  5145  01FA' 00A1'              	movwf	___flmul@temp+1
  5146  01FB' 0802'              	movf	?__Umul8_16,w
  5147  01FC' 00A0'              	movwf	___flmul@temp
  5148  01FD'                    l4018:
  5149  01FD' 0820'              	movf	___flmul@temp,w
  5150  01FE' 0090'              	movwf	??___flmul
  5151  01FF' 0821'              	movf	___flmul@temp+1,w
  5152  0200' 0091'              	movwf	??___flmul+1
  5153  0201' 0192'              	clrf	??___flmul+2
  5154  0202' 0193'              	clrf	??___flmul+3
  5155  0203' 0810'              	movf	??___flmul,w
  5156  0204' 079C'              	addwf	___flmul@prod,f
  5157  0205' 0811'              	movf	??___flmul+1,w
  5158  0206' 1103               	clrz
  5159  0207' 1803               	skipnc
  5160  0208' 3E01               	addlw	1
  5161  0209' 1903               	skipnz
  5162  020A' 2800'              	goto	u5971
  5163  020B' 079D'              	addwf	___flmul@prod+1,f
  5164  020C'                    u5971:
  5165  020C' 0812'              	movf	??___flmul+2,w
  5166  020D' 1103               	clrz
  5167  020E' 1803               	skipnc
  5168  020F' 3E01               	addlw	1
  5169  0210' 1903               	skipnz
  5170  0211' 2800'              	goto	u5972
  5171  0212' 079E'              	addwf	___flmul@prod+2,f
  5172  0213'                    u5972:
  5173  0213' 0813'              	movf	??___flmul+3,w
  5174  0214' 1103               	clrz
  5175  0215' 1803               	skipnc
  5176  0216' 3E01               	addlw	1
  5177  0217' 1903               	skipnz
  5178  0218' 2800'              	goto	u5973
  5179  0219' 079F'              	addwf	___flmul@prod+3,f
  5180  021A'                    u5973:
  5181  021A' 080A'              	movf	___flmul@b+2,w
  5182  021B' 0090'              	movwf	??___flmul
  5183  021C' 0810'              	movf	??___flmul,w
  5184  021D' 0082'              	movwf	__Umul8_16@multiplicand
  5185  021E' 080E'              	movf	___flmul@a+2,w
  5186  021F' 120A' 118A' 2000' 120A' 118A' 	fcall	__Umul8_16
  5187  0224' 0803'              	movf	?__Umul8_16+1,w
  5188  0225' 1283               	bcf	3,5	;RP0=0, select bank0
  5189  0226' 1303               	bcf	3,6	;RP1=0, select bank0
  5190  0227' 00A1'              	movwf	___flmul@temp+1
  5191  0228' 0802'              	movf	?__Umul8_16,w
  5192  0229' 00A0'              	movwf	___flmul@temp
  5193  022A'                    l4020:
  5194  022A' 0820'              	movf	___flmul@temp,w
  5195  022B' 0090'              	movwf	??___flmul
  5196  022C' 0821'              	movf	___flmul@temp+1,w
  5197  022D' 0091'              	movwf	??___flmul+1
  5198  022E' 0192'              	clrf	??___flmul+2
  5199  022F' 0193'              	clrf	??___flmul+3
  5200  0230' 3008               	movlw	8
  5201  0231'                    u5985:
  5202  0231' 1003               	clrc
  5203  0232' 0D90'              	rlf	??___flmul,f
  5204  0233' 0D91'              	rlf	??___flmul+1,f
  5205  0234' 0D92'              	rlf	??___flmul+2,f
  5206  0235' 0D93'              	rlf	??___flmul+3,f
  5207  0236'                    u5980:
  5208  0236' 3EFF               	addlw	-1
  5209  0237' 1D03               	skipz
  5210  0238' 2800'              	goto	u5985
  5211  0239' 0810'              	movf	??___flmul,w
  5212  023A' 079C'              	addwf	___flmul@prod,f
  5213  023B' 0811'              	movf	??___flmul+1,w
  5214  023C' 1103               	clrz
  5215  023D' 1803               	skipnc
  5216  023E' 3E01               	addlw	1
  5217  023F' 1903               	skipnz
  5218  0240' 2800'              	goto	u5991
  5219  0241' 079D'              	addwf	___flmul@prod+1,f
  5220  0242'                    u5991:
  5221  0242' 0812'              	movf	??___flmul+2,w
  5222  0243' 1103               	clrz
  5223  0244' 1803               	skipnc
  5224  0245' 3E01               	addlw	1
  5225  0246' 1903               	skipnz
  5226  0247' 2800'              	goto	u5992
  5227  0248' 079E'              	addwf	___flmul@prod+2,f
  5228  0249'                    u5992:
  5229  0249' 0813'              	movf	??___flmul+3,w
  5230  024A' 1103               	clrz
  5231  024B' 1803               	skipnc
  5232  024C' 3E01               	addlw	1
  5233  024D' 1903               	skipnz
  5234  024E' 2800'              	goto	u5993
  5235  024F' 079F'              	addwf	___flmul@prod+3,f
  5236  0250'                    u5993:
  5237  0250'                    l4022:
  5238  0250' 0817'              	movf	___flmul@grs,w
  5239  0251' 0090'              	movwf	??___flmul
  5240  0252' 0818'              	movf	___flmul@grs+1,w
  5241  0253' 0091'              	movwf	??___flmul+1
  5242  0254' 0819'              	movf	___flmul@grs+2,w
  5243  0255' 0092'              	movwf	??___flmul+2
  5244  0256' 081A'              	movf	___flmul@grs+3,w
  5245  0257' 0093'              	movwf	??___flmul+3
  5246  0258' 3018               	movlw	24
  5247  0259'                    u6005:
  5248  0259' 1003               	clrc
  5249  025A' 0C93'              	rrf	??___flmul+3,f
  5250  025B' 0C92'              	rrf	??___flmul+2,f
  5251  025C' 0C91'              	rrf	??___flmul+1,f
  5252  025D' 0C90'              	rrf	??___flmul,f
  5253  025E'                    u6000:
  5254  025E' 3EFF               	addlw	-1
  5255  025F' 1D03               	skipz
  5256  0260' 2800'              	goto	u6005
  5257  0261' 0810'              	movf	??___flmul,w
  5258  0262' 079C'              	addwf	___flmul@prod,f
  5259  0263' 0811'              	movf	??___flmul+1,w
  5260  0264' 1103               	clrz
  5261  0265' 1803               	skipnc
  5262  0266' 3E01               	addlw	1
  5263  0267' 1903               	skipnz
  5264  0268' 2800'              	goto	u6011
  5265  0269' 079D'              	addwf	___flmul@prod+1,f
  5266  026A'                    u6011:
  5267  026A' 0812'              	movf	??___flmul+2,w
  5268  026B' 1103               	clrz
  5269  026C' 1803               	skipnc
  5270  026D' 3E01               	addlw	1
  5271  026E' 1903               	skipnz
  5272  026F' 2800'              	goto	u6012
  5273  0270' 079E'              	addwf	___flmul@prod+2,f
  5274  0271'                    u6012:
  5275  0271' 0813'              	movf	??___flmul+3,w
  5276  0272' 1103               	clrz
  5277  0273' 1803               	skipnc
  5278  0274' 3E01               	addlw	1
  5279  0275' 1903               	skipnz
  5280  0276' 2800'              	goto	u6013
  5281  0277' 079F'              	addwf	___flmul@prod+3,f
  5282  0278'                    u6013:
  5283  0278'                    l4024:
  5284  0278' 3008               	movlw	8
  5285  0279' 0090'              	movwf	??___flmul
  5286  027A'                    u6025:
  5287  027A' 1003               	clrc
  5288  027B' 0D97'              	rlf	___flmul@grs,f
  5289  027C' 0D98'              	rlf	___flmul@grs+1,f
  5290  027D' 0D99'              	rlf	___flmul@grs+2,f
  5291  027E' 0D9A'              	rlf	___flmul@grs+3,f
  5292  027F' 0B90'              	decfsz	??___flmul,f
  5293  0280' 2800'              	goto	u6025
  5294  0281'                    l4026:
  5295  0281' 081B'              	movf	___flmul@bexp,w
  5296  0282' 0716'              	addwf	___flmul@aexp,w
  5297  0283' 0090'              	movwf	??___flmul
  5298  0284' 0191'              	clrf	??___flmul+1
  5299  0285' 0D91'              	rlf	??___flmul+1,f
  5300  0286' 0810'              	movf	??___flmul,w
  5301  0287' 3E82               	addlw	130
  5302  0288' 00A0'              	movwf	___flmul@temp
  5303  0289' 0811'              	movf	??___flmul+1,w
  5304  028A' 1803               	skipnc
  5305  028B' 3E01               	addlw	1
  5306  028C' 3EFF               	addlw	255
  5307  028D' 00A1'              	movwf	___flmul@temp+1
  5308  028E' 2800'              	goto	l4038
  5309  028F'                    l4028:
  5310  028F' 3001               	movlw	1
  5311  0290' 0090'              	movwf	??___flmul
  5312  0291'                    u6035:
  5313  0291' 1003               	clrc
  5314  0292' 0D9C'              	rlf	___flmul@prod,f
  5315  0293' 0D9D'              	rlf	___flmul@prod+1,f
  5316  0294' 0D9E'              	rlf	___flmul@prod+2,f
  5317  0295' 0D9F'              	rlf	___flmul@prod+3,f
  5318  0296' 0B90'              	decfsz	??___flmul,f
  5319  0297' 2800'              	goto	u6035
  5320  0298'                    l4030:
  5321  0298' 1F9A'              	btfss	___flmul@grs+3,7
  5322  0299' 2800'              	goto	u6041
  5323  029A' 2800'              	goto	u6040
  5324  029B'                    u6041:
  5325  029B' 2800'              	goto	l4034
  5326  029C'                    u6040:
  5327  029C'                    l4032:
  5328  029C' 141C'              	bsf	___flmul@prod,0
  5329  029D'                    l4034:
  5330  029D' 3001               	movlw	1
  5331  029E' 0090'              	movwf	??___flmul
  5332  029F'                    u6055:
  5333  029F' 1003               	clrc
  5334  02A0' 0D97'              	rlf	___flmul@grs,f
  5335  02A1' 0D98'              	rlf	___flmul@grs+1,f
  5336  02A2' 0D99'              	rlf	___flmul@grs+2,f
  5337  02A3' 0D9A'              	rlf	___flmul@grs+3,f
  5338  02A4' 0B90'              	decfsz	??___flmul,f
  5339  02A5' 2800'              	goto	u6055
  5340  02A6'                    l4036:
  5341  02A6' 30FF               	movlw	255
  5342  02A7' 07A0'              	addwf	___flmul@temp,f
  5343  02A8' 1803               	skipnc
  5344  02A9' 0AA1'              	incf	___flmul@temp+1,f
  5345  02AA' 30FF               	movlw	255
  5346  02AB' 07A1'              	addwf	___flmul@temp+1,f
  5347  02AC'                    l4038:
  5348  02AC' 1F9E'              	btfss	___flmul@prod+2,7
  5349  02AD' 2800'              	goto	u6061
  5350  02AE' 2800'              	goto	u6060
  5351  02AF'                    u6061:
  5352  02AF' 2800'              	goto	l4028
  5353  02B0'                    u6060:
  5354  02B0'                    l4040:
  5355  02B0' 0196'              	clrf	___flmul@aexp
  5356  02B1'                    l4042:
  5357  02B1' 1F9A'              	btfss	___flmul@grs+3,7
  5358  02B2' 2800'              	goto	u6071
  5359  02B3' 2800'              	goto	u6070
  5360  02B4'                    u6071:
  5361  02B4' 2800'              	goto	l4050
  5362  02B5'                    u6070:
  5363  02B5'                    l4044:
  5364  02B5' 30FF               	movlw	255
  5365  02B6' 0517'              	andwf	___flmul@grs,w
  5366  02B7' 0090'              	movwf	??___flmul
  5367  02B8' 30FF               	movlw	255
  5368  02B9' 0518'              	andwf	___flmul@grs+1,w
  5369  02BA' 0091'              	movwf	??___flmul+1
  5370  02BB' 30FF               	movlw	255
  5371  02BC' 0519'              	andwf	___flmul@grs+2,w
  5372  02BD' 0092'              	movwf	??___flmul+2
  5373  02BE' 307F               	movlw	127
  5374  02BF' 051A'              	andwf	___flmul@grs+3,w
  5375  02C0' 0093'              	movwf	??___flmul+3
  5376  02C1' 0813'              	movf	??___flmul+3,w
  5377  02C2' 0412'              	iorwf	??___flmul+2,w
  5378  02C3' 0411'              	iorwf	??___flmul+1,w
  5379  02C4' 0410'              	iorwf	??___flmul,w
  5380  02C5' 1903               	skipnz
  5381  02C6' 2800'              	goto	u6081
  5382  02C7' 2800'              	goto	u6080
  5383  02C8'                    u6081:
  5384  02C8' 2800'              	goto	l828
  5385  02C9'                    u6080:
  5386  02C9'                    l4046:
  5387  02C9' 0196'              	clrf	___flmul@aexp
  5388  02CA' 0A96'              	incf	___flmul@aexp,f
  5389  02CB' 2800'              	goto	l4050
  5390  02CC'                    l828:
  5391  02CC' 1C1C'              	btfss	___flmul@prod,0
  5392  02CD' 2800'              	goto	u6091
  5393  02CE' 2800'              	goto	u6090
  5394  02CF'                    u6091:
  5395  02CF' 2800'              	goto	l4050
  5396  02D0'                    u6090:
  5397  02D0' 2800'              	goto	l4046
  5398  02D1'                    l4050:
  5399  02D1' 0816'              	movf	___flmul@aexp,w
  5400  02D2' 1903               	btfsc	3,2
  5401  02D3' 2800'              	goto	u6101
  5402  02D4' 2800'              	goto	u6100
  5403  02D5'                    u6101:
  5404  02D5' 2800'              	goto	l4060
  5405  02D6'                    u6100:
  5406  02D6'                    l4052:
  5407  02D6' 3001               	movlw	1
  5408  02D7' 079C'              	addwf	___flmul@prod,f
  5409  02D8' 3000               	movlw	0
  5410  02D9' 1803               	skipnc
  5411  02DA' 3001               	movlw	1
  5412  02DB' 079D'              	addwf	___flmul@prod+1,f
  5413  02DC' 3000               	movlw	0
  5414  02DD' 1803               	skipnc
  5415  02DE' 3001               	movlw	1
  5416  02DF' 079E'              	addwf	___flmul@prod+2,f
  5417  02E0' 3000               	movlw	0
  5418  02E1' 1803               	skipnc
  5419  02E2' 3001               	movlw	1
  5420  02E3' 079F'              	addwf	___flmul@prod+3,f
  5421  02E4'                    l4054:
  5422  02E4' 1C1F'              	btfss	___flmul@prod+3,0
  5423  02E5' 2800'              	goto	u6111
  5424  02E6' 2800'              	goto	u6110
  5425  02E7'                    u6111:
  5426  02E7' 2800'              	goto	l4060
  5427  02E8'                    u6110:
  5428  02E8'                    l4056:
  5429  02E8' 081C'              	movf	___flmul@prod,w
  5430  02E9' 0090'              	movwf	??___flmul
  5431  02EA' 081D'              	movf	___flmul@prod+1,w
  5432  02EB' 0091'              	movwf	??___flmul+1
  5433  02EC' 081E'              	movf	___flmul@prod+2,w
  5434  02ED' 0092'              	movwf	??___flmul+2
  5435  02EE' 081F'              	movf	___flmul@prod+3,w
  5436  02EF' 0093'              	movwf	??___flmul+3
  5437  02F0' 3001               	movlw	1
  5438  02F1' 0094'              	movwf	??___flmul+4
  5439  02F2'                    u6125:
  5440  02F2' 0D13'              	rlf	??___flmul+3,w
  5441  02F3' 0C93'              	rrf	??___flmul+3,f
  5442  02F4' 0C92'              	rrf	??___flmul+2,f
  5443  02F5' 0C91'              	rrf	??___flmul+1,f
  5444  02F6' 0C90'              	rrf	??___flmul,f
  5445  02F7'                    u6120:
  5446  02F7' 0B94'              	decfsz	??___flmul+4,f
  5447  02F8' 2800'              	goto	u6125
  5448  02F9' 0813'              	movf	??___flmul+3,w
  5449  02FA' 009F'              	movwf	___flmul@prod+3
  5450  02FB' 0812'              	movf	??___flmul+2,w
  5451  02FC' 009E'              	movwf	___flmul@prod+2
  5452  02FD' 0811'              	movf	??___flmul+1,w
  5453  02FE' 009D'              	movwf	___flmul@prod+1
  5454  02FF' 0810'              	movf	??___flmul,w
  5455  0300' 009C'              	movwf	___flmul@prod
  5456  0301'                    l4058:
  5457  0301' 3001               	movlw	1
  5458  0302' 07A0'              	addwf	___flmul@temp,f
  5459  0303' 1803               	skipnc
  5460  0304' 0AA1'              	incf	___flmul@temp+1,f
  5461  0305' 3000               	movlw	0
  5462  0306' 07A1'              	addwf	___flmul@temp+1,f
  5463  0307'                    l4060:
  5464  0307' 0821'              	movf	___flmul@temp+1,w
  5465  0308' 3A80               	xorlw	128
  5466  0309' 00FF               	movwf	btemp+1
  5467  030A' 3080               	movlw	128
  5468  030B' 027F               	subwf	btemp+1,w
  5469  030C' 1D03               	skipz
  5470  030D' 2800'              	goto	u6135
  5471  030E' 30FF               	movlw	255
  5472  030F' 0220'              	subwf	___flmul@temp,w
  5473  0310'                    u6135:
  5474  0310' 1C03               	skipc
  5475  0311' 2800'              	goto	u6131
  5476  0312' 2800'              	goto	u6130
  5477  0313'                    u6131:
  5478  0313' 2800'              	goto	l4064
  5479  0314'                    u6130:
  5480  0314'                    l4062:
  5481  0314' 307F               	movlw	127
  5482  0315' 1283               	bcf	3,5	;RP0=0, select bank0
  5483  0316' 1303               	bcf	3,6	;RP1=0, select bank0
  5484  0317' 009F'              	movwf	___flmul@prod+3
  5485  0318' 3080               	movlw	128
  5486  0319' 009E'              	movwf	___flmul@prod+2
  5487  031A' 3000               	movlw	0
  5488  031B' 009D'              	movwf	___flmul@prod+1
  5489  031C' 3000               	movlw	0
  5490  031D' 009C'              	movwf	___flmul@prod
  5491  031E' 2800'              	goto	l834
  5492  031F'                    l4064:
  5493  031F' 1283               	bcf	3,5	;RP0=0, select bank0
  5494  0320' 1303               	bcf	3,6	;RP1=0, select bank0
  5495  0321' 0821'              	movf	___flmul@temp+1,w
  5496  0322' 3A80               	xorlw	128
  5497  0323' 00FF               	movwf	btemp+1
  5498  0324' 3080               	movlw	128
  5499  0325' 027F               	subwf	btemp+1,w
  5500  0326' 1D03               	skipz
  5501  0327' 2800'              	goto	u6145
  5502  0328' 3001               	movlw	1
  5503  0329' 0220'              	subwf	___flmul@temp,w
  5504  032A'                    u6145:
  5505  032A' 1803               	skipnc
  5506  032B' 2800'              	goto	u6141
  5507  032C' 2800'              	goto	u6140
  5508  032D'                    u6141:
  5509  032D' 2800'              	goto	l4070
  5510  032E'                    u6140:
  5511  032E'                    l4066:
  5512  032E' 3000               	movlw	0
  5513  032F' 1283               	bcf	3,5	;RP0=0, select bank0
  5514  0330' 1303               	bcf	3,6	;RP1=0, select bank0
  5515  0331' 009F'              	movwf	___flmul@prod+3
  5516  0332' 3000               	movlw	0
  5517  0333' 009E'              	movwf	___flmul@prod+2
  5518  0334' 3000               	movlw	0
  5519  0335' 009D'              	movwf	___flmul@prod+1
  5520  0336' 3000               	movlw	0
  5521  0337' 009C'              	movwf	___flmul@prod
  5522  0338'                    l4068:
  5523  0338' 0195'              	clrf	___flmul@sign
  5524  0339' 2800'              	goto	l834
  5525  033A'                    l4070:
  5526  033A' 1283               	bcf	3,5	;RP0=0, select bank0
  5527  033B' 1303               	bcf	3,6	;RP1=0, select bank0
  5528  033C' 0820'              	movf	___flmul@temp,w
  5529  033D' 0090'              	movwf	??___flmul
  5530  033E' 0810'              	movf	??___flmul,w
  5531  033F' 009B'              	movwf	___flmul@bexp
  5532  0340' 30FF               	movlw	255
  5533  0341' 059C'              	andwf	___flmul@prod,f
  5534  0342' 30FF               	movlw	255
  5535  0343' 059D'              	andwf	___flmul@prod+1,f
  5536  0344' 307F               	movlw	127
  5537  0345' 059E'              	andwf	___flmul@prod+2,f
  5538  0346' 3000               	movlw	0
  5539  0347' 059F'              	andwf	___flmul@prod+3,f
  5540  0348'                    l4072:
  5541  0348' 1C1B'              	btfss	___flmul@bexp,0
  5542  0349' 2800'              	goto	u6151
  5543  034A' 2800'              	goto	u6150
  5544  034B'                    u6151:
  5545  034B' 2800'              	goto	l4076
  5546  034C'                    u6150:
  5547  034C'                    l4074:
  5548  034C' 179E'              	bsf	___flmul@prod+2,7
  5549  034D'                    l4076:
  5550  034D' 081B'              	movf	___flmul@bexp,w
  5551  034E' 0090'              	movwf	??___flmul
  5552  034F' 1003               	clrc
  5553  0350' 0C10'              	rrf	??___flmul,w
  5554  0351' 0091'              	movwf	??___flmul+1
  5555  0352' 0811'              	movf	??___flmul+1,w
  5556  0353' 009F'              	movwf	___flmul@prod+3
  5557  0354'                    l834:
  5558  0354' 0815'              	movf	___flmul@sign,w
  5559  0355' 0090'              	movwf	??___flmul
  5560  0356' 0810'              	movf	??___flmul,w
  5561  0357' 049F'              	iorwf	___flmul@prod+3,f
  5562  0358'                    l4078:
  5563  0358' 081F'              	movf	___flmul@prod+3,w
  5564  0359' 008B'              	movwf	?___flmul+3
  5565  035A' 081E'              	movf	___flmul@prod+2,w
  5566  035B' 008A'              	movwf	?___flmul+2
  5567  035C' 081D'              	movf	___flmul@prod+1,w
  5568  035D' 0089'              	movwf	?___flmul+1
  5569  035E' 081C'              	movf	___flmul@prod,w
  5570  035F' 0088'              	movwf	?___flmul
  5571  0360'                    l822:
  5572  0360' 0008               	return
  5573  0361'                    __end_of___flmul:
  5574                           
  5575                           	psect	text10
  5576  0000'                    __ptext10:	
  5577 ;; *************** function __Umul8_16 *****************
  5578 ;; Defined at:
  5579 ;;		line 4 in file "C:\Program Files\Microchip\xc8\v2.31\pic\sources\c90\common\Umul8_16.c"
  5580 ;; Parameters:    Size  Location     Type
  5581 ;;  multiplier      1    wreg     unsigned char 
  5582 ;;  multiplicand    1    2[COMMON] unsigned char 
  5583 ;; Auto vars:     Size  Location     Type
  5584 ;;  multiplier      1    4[BANK0 ] unsigned char 
  5585 ;;  word_mpld       2    2[BANK0 ] unsigned int 
  5586 ;;  product         2    0[BANK0 ] unsigned int 
  5587 ;; Return value:  Size  Location     Type
  5588 ;;                  2    2[COMMON] unsigned int 
  5589 ;; Registers used:
  5590 ;;		wreg, status,2, status,0
  5591 ;; Tracked objects:
  5592 ;;		On entry : 0/0
  5593 ;;		On exit  : 0/0
  5594 ;;		Unchanged: 0/0
  5595 ;; Data sizes:     COMMON   BANK0   BANK1   BANK3   BANK2
  5596 ;;      Params:         2       0       0       0       0
  5597 ;;      Locals:         0       5       0       0       0
  5598 ;;      Temps:          2       0       0       0       0
  5599 ;;      Totals:         4       5       0       0       0
  5600 ;;Total ram usage:        9 bytes
  5601 ;; Hardware stack levels used:    1
  5602 ;; Hardware stack levels required when called:    1
  5603 ;; This function calls:
  5604 ;;		Nothing
  5605 ;; This function is called by:
  5606 ;;		___flmul
  5607 ;; This function uses a non-reentrant model
  5608 ;;
  5609                           
  5610                           
  5611                           ;psect for function __Umul8_16
  5612  0000'                    __Umul8_16:
  5613                           
  5614                           ;incstack = 0
  5615                           ; Regs used in __Umul8_16: [wreg+status,2+status,0]
  5616                           ;__Umul8_16@multiplier stored from wreg
  5617  0000' 1283               	bcf	3,5	;RP0=0, select bank0
  5618  0001' 1303               	bcf	3,6	;RP1=0, select bank0
  5619  0002' 0084'              	movwf	__Umul8_16@multiplier
  5620  0003'                    l3902:
  5621  0003' 0180'              	clrf	__Umul8_16@product
  5622  0004' 0181'              	clrf	__Umul8_16@product+1
  5623  0005'                    l3904:
  5624  0005' 0802'              	movf	__Umul8_16@multiplicand,w
  5625  0006' 0084'              	movwf	??__Umul8_16
  5626  0007' 0185'              	clrf	??__Umul8_16+1
  5627  0008' 0804'              	movf	??__Umul8_16,w
  5628  0009' 0082'              	movwf	__Umul8_16@word_mpld
  5629  000A' 0805'              	movf	??__Umul8_16+1,w
  5630  000B' 0083'              	movwf	__Umul8_16@word_mpld+1
  5631  000C'                    l3906:
  5632  000C' 1C04'              	btfss	__Umul8_16@multiplier,0
  5633  000D' 2800'              	goto	u5691
  5634  000E' 2800'              	goto	u5690
  5635  000F'                    u5691:
  5636  000F' 2800'              	goto	l841
  5637  0010'                    u5690:
  5638  0010'                    l3908:
  5639  0010' 0802'              	movf	__Umul8_16@word_mpld,w
  5640  0011' 0780'              	addwf	__Umul8_16@product,f
  5641  0012' 1803               	skipnc
  5642  0013' 0A81'              	incf	__Umul8_16@product+1,f
  5643  0014' 0803'              	movf	__Umul8_16@word_mpld+1,w
  5644  0015' 0781'              	addwf	__Umul8_16@product+1,f
  5645  0016'                    l841:
  5646  0016' 3001               	movlw	1
  5647  0017'                    u5705:
  5648  0017' 1003               	clrc
  5649  0018' 0D82'              	rlf	__Umul8_16@word_mpld,f
  5650  0019' 0D83'              	rlf	__Umul8_16@word_mpld+1,f
  5651  001A' 3EFF               	addlw	-1
  5652  001B' 1D03               	skipz
  5653  001C' 2800'              	goto	u5705
  5654  001D' 1003               	clrc
  5655  001E' 0C84'              	rrf	__Umul8_16@multiplier,f
  5656  001F'                    l3910:
  5657  001F' 0804'              	movf	__Umul8_16@multiplier,w
  5658  0020' 1D03               	btfss	3,2
  5659  0021' 2800'              	goto	u5711
  5660  0022' 2800'              	goto	u5710
  5661  0023'                    u5711:
  5662  0023' 2800'              	goto	l3906
  5663  0024'                    u5710:
  5664  0024'                    l3912:
  5665  0024' 0801'              	movf	__Umul8_16@product+1,w
  5666  0025' 0083'              	movwf	?__Umul8_16+1
  5667  0026' 0800'              	movf	__Umul8_16@product,w
  5668  0027' 0082'              	movwf	?__Umul8_16
  5669  0028'                    l843:
  5670  0028' 0008               	return
  5671  0029'                    __end_of__Umul8_16:
  5672                           
  5673                           	psect	text11
  5674  0000'                    __ptext11:	
  5675 ;; *************** function __tdiv_to_l_ *****************
  5676 ;; Defined at:
  5677 ;;		line 60 in file "C:\Program Files\Microchip\xc8\v2.31\pic\sources\c90\common\ftdivl.c"
  5678 ;; Parameters:    Size  Location     Type
  5679 ;;  f1              4    2[COMMON] float 
  5680 ;;  f2              4    6[COMMON] float 
  5681 ;; Auto vars:     Size  Location     Type
  5682 ;;  quot            4    4[BANK0 ] unsigned long 
  5683 ;;  exp1            1    9[BANK0 ] unsigned char 
  5684 ;;  cntr            1    8[BANK0 ] unsigned char 
  5685 ;; Return value:  Size  Location     Type
  5686 ;;                  4    2[COMMON] unsigned long 
  5687 ;; Registers used:
  5688 ;;		wreg, status,2, status,0
  5689 ;; Tracked objects:
  5690 ;;		On entry : 0/0
  5691 ;;		On exit  : 0/0
  5692 ;;		Unchanged: 0/0
  5693 ;; Data sizes:     COMMON   BANK0   BANK1   BANK3   BANK2
  5694 ;;      Params:         8       0       0       0       0
  5695 ;;      Locals:         0       6       0       0       0
  5696 ;;      Temps:          0       4       0       0       0
  5697 ;;      Totals:         8      10       0       0       0
  5698 ;;Total ram usage:       18 bytes
  5699 ;; Hardware stack levels used:    1
  5700 ;; Hardware stack levels required when called:    1
  5701 ;; This function calls:
  5702 ;;		Nothing
  5703 ;; This function is called by:
  5704 ;;		_sprintf
  5705 ;; This function uses a non-reentrant model
  5706 ;;
  5707                           
  5708                           
  5709                           ;psect for function __tdiv_to_l_
  5710  0000'                    __tdiv_to_l_:
  5711  0000'                    l3088:	
  5712                           ;incstack = 0
  5713                           ; Regs used in __tdiv_to_l_: [wreg+status,2+status,0]
  5714                           
  5715  0000' 0802'              	movf	__tdiv_to_l_@f1,w
  5716  0001' 1283               	bcf	3,5	;RP0=0, select bank0
  5717  0002' 1303               	bcf	3,6	;RP1=0, select bank0
  5718  0003' 0080'              	movwf	??__tdiv_to_l_
  5719  0004' 0803'              	movf	__tdiv_to_l_@f1+1,w
  5720  0005' 0081'              	movwf	??__tdiv_to_l_+1
  5721  0006' 0804'              	movf	__tdiv_to_l_@f1+2,w
  5722  0007' 0082'              	movwf	??__tdiv_to_l_+2
  5723  0008' 1003               	clrc
  5724  0009' 0D01'              	rlf	??__tdiv_to_l_+1,w
  5725  000A' 0D02'              	rlf	??__tdiv_to_l_+2,w
  5726  000B' 0083'              	movwf	??__tdiv_to_l_+3
  5727  000C' 0803'              	movf	??__tdiv_to_l_+3,w
  5728  000D' 0089'              	movwf	__tdiv_to_l_@exp1
  5729  000E' 0809'              	movf	__tdiv_to_l_@exp1,w
  5730  000F' 1D03               	btfss	3,2
  5731  0010' 2800'              	goto	u4331
  5732  0011' 2800'              	goto	u4330
  5733  0012'                    u4331:
  5734  0012' 2800'              	goto	l3094
  5735  0013'                    u4330:
  5736  0013'                    l3090:
  5737  0013' 3000               	movlw	0
  5738  0014' 0085'              	movwf	?__tdiv_to_l_+3
  5739  0015' 3000               	movlw	0
  5740  0016' 0084'              	movwf	?__tdiv_to_l_+2
  5741  0017' 3000               	movlw	0
  5742  0018' 0083'              	movwf	?__tdiv_to_l_+1
  5743  0019' 3000               	movlw	0
  5744  001A' 0082'              	movwf	?__tdiv_to_l_
  5745  001B' 2800'              	goto	l616
  5746  001C'                    l3094:
  5747  001C' 0806'              	movf	__tdiv_to_l_@f2,w
  5748  001D' 0080'              	movwf	??__tdiv_to_l_
  5749  001E' 0807'              	movf	__tdiv_to_l_@f2+1,w
  5750  001F' 0081'              	movwf	??__tdiv_to_l_+1
  5751  0020' 0808'              	movf	__tdiv_to_l_@f2+2,w
  5752  0021' 0082'              	movwf	??__tdiv_to_l_+2
  5753  0022' 1003               	clrc
  5754  0023' 0D01'              	rlf	??__tdiv_to_l_+1,w
  5755  0024' 0D02'              	rlf	??__tdiv_to_l_+2,w
  5756  0025' 0083'              	movwf	??__tdiv_to_l_+3
  5757  0026' 0803'              	movf	??__tdiv_to_l_+3,w
  5758  0027' 0088'              	movwf	__tdiv_to_l_@cntr
  5759  0028' 0808'              	movf	__tdiv_to_l_@cntr,w
  5760  0029' 1D03               	btfss	3,2
  5761  002A' 2800'              	goto	u4341
  5762  002B' 2800'              	goto	u4340
  5763  002C'                    u4341:
  5764  002C' 2800'              	goto	l617
  5765  002D'                    u4340:
  5766  002D' 2800'              	goto	l3090
  5767  002E'                    l617:
  5768  002E' 1783'              	bsf	__tdiv_to_l_@f1+1,7
  5769  002F'                    l3100:
  5770  002F' 30FF               	movlw	255
  5771  0030' 0582'              	andwf	__tdiv_to_l_@f1,f
  5772  0031' 30FF               	movlw	255
  5773  0032' 0583'              	andwf	__tdiv_to_l_@f1+1,f
  5774  0033' 3000               	movlw	0
  5775  0034' 0584'              	andwf	__tdiv_to_l_@f1+2,f
  5776  0035'                    l3102:
  5777  0035' 1787'              	bsf	__tdiv_to_l_@f2+1,7
  5778  0036' 30FF               	movlw	255
  5779  0037' 0586'              	andwf	__tdiv_to_l_@f2,f
  5780  0038' 30FF               	movlw	255
  5781  0039' 0587'              	andwf	__tdiv_to_l_@f2+1,f
  5782  003A' 3000               	movlw	0
  5783  003B' 0588'              	andwf	__tdiv_to_l_@f2+2,f
  5784  003C' 3000               	movlw	0
  5785  003D' 0087'              	movwf	__tdiv_to_l_@quot+3
  5786  003E' 3000               	movlw	0
  5787  003F' 0086'              	movwf	__tdiv_to_l_@quot+2
  5788  0040' 3000               	movlw	0
  5789  0041' 0085'              	movwf	__tdiv_to_l_@quot+1
  5790  0042' 3000               	movlw	0
  5791  0043' 0084'              	movwf	__tdiv_to_l_@quot
  5792  0044'                    l3104:
  5793  0044' 307F               	movlw	127
  5794  0045' 0289'              	subwf	__tdiv_to_l_@exp1,f
  5795  0046'                    l3106:
  5796  0046' 3098               	movlw	152
  5797  0047' 0708'              	addwf	__tdiv_to_l_@cntr,w
  5798  0048' 0080'              	movwf	??__tdiv_to_l_
  5799  0049' 0800'              	movf	??__tdiv_to_l_,w
  5800  004A' 0289'              	subwf	__tdiv_to_l_@exp1,f
  5801  004B' 3018               	movlw	24
  5802  004C' 0080'              	movwf	??__tdiv_to_l_
  5803  004D' 0800'              	movf	??__tdiv_to_l_,w
  5804  004E' 0088'              	movwf	__tdiv_to_l_@cntr
  5805  004F'                    l3108:
  5806  004F' 3001               	movlw	1
  5807  0050' 0080'              	movwf	??__tdiv_to_l_
  5808  0051'                    u4355:
  5809  0051' 1003               	clrc
  5810  0052' 0D84'              	rlf	__tdiv_to_l_@quot,f
  5811  0053' 0D85'              	rlf	__tdiv_to_l_@quot+1,f
  5812  0054' 0D86'              	rlf	__tdiv_to_l_@quot+2,f
  5813  0055' 0D87'              	rlf	__tdiv_to_l_@quot+3,f
  5814  0056' 0B80'              	decfsz	??__tdiv_to_l_,f
  5815  0057' 2800'              	goto	u4355
  5816  0058'                    l3110:
  5817  0058' 0808'              	movf	__tdiv_to_l_@f2+2,w
  5818  0059' 0204'              	subwf	__tdiv_to_l_@f1+2,w
  5819  005A' 1D03               	skipz
  5820  005B' 2800'              	goto	u4365
  5821  005C' 0807'              	movf	__tdiv_to_l_@f2+1,w
  5822  005D' 0203'              	subwf	__tdiv_to_l_@f1+1,w
  5823  005E' 1D03               	skipz
  5824  005F' 2800'              	goto	u4365
  5825  0060' 0806'              	movf	__tdiv_to_l_@f2,w
  5826  0061' 0202'              	subwf	__tdiv_to_l_@f1,w
  5827  0062'                    u4365:
  5828  0062' 1C03               	skipc
  5829  0063' 2800'              	goto	u4361
  5830  0064' 2800'              	goto	u4360
  5831  0065'                    u4361:
  5832  0065' 2800'              	goto	l3116
  5833  0066'                    u4360:
  5834  0066'                    l3112:
  5835  0066' 0806'              	movf	__tdiv_to_l_@f2,w
  5836  0067' 0282'              	subwf	__tdiv_to_l_@f1,f
  5837  0068' 0807'              	movf	__tdiv_to_l_@f2+1,w
  5838  0069' 1C03               	skipc
  5839  006A' 0F07'              	incfsz	__tdiv_to_l_@f2+1,w
  5840  006B' 0283'              	subwf	__tdiv_to_l_@f1+1,f
  5841  006C' 0808'              	movf	__tdiv_to_l_@f2+2,w
  5842  006D' 1C03               	skipc
  5843  006E' 0A08'              	incf	__tdiv_to_l_@f2+2,w
  5844  006F' 0284'              	subwf	__tdiv_to_l_@f1+2,f
  5845  0070'                    l3114:
  5846  0070' 1404'              	bsf	__tdiv_to_l_@quot,0
  5847  0071'                    l3116:
  5848  0071' 3001               	movlw	1
  5849  0072'                    u4375:
  5850  0072' 1003               	clrc
  5851  0073' 0D82'              	rlf	__tdiv_to_l_@f1,f
  5852  0074' 0D83'              	rlf	__tdiv_to_l_@f1+1,f
  5853  0075' 0D84'              	rlf	__tdiv_to_l_@f1+2,f
  5854  0076' 3EFF               	addlw	-1
  5855  0077' 1D03               	skipz
  5856  0078' 2800'              	goto	u4375
  5857  0079'                    l3118:
  5858  0079' 3001               	movlw	1
  5859  007A' 0288'              	subwf	__tdiv_to_l_@cntr,f
  5860  007B' 1D03               	btfss	3,2
  5861  007C' 2800'              	goto	u4381
  5862  007D' 2800'              	goto	u4380
  5863  007E'                    u4381:
  5864  007E' 2800'              	goto	l3108
  5865  007F'                    u4380:
  5866  007F'                    l620:
  5867  007F' 1F89'              	btfss	__tdiv_to_l_@exp1,7
  5868  0080' 2800'              	goto	u4391
  5869  0081' 2800'              	goto	u4390
  5870  0082'                    u4391:
  5871  0082' 2800'              	goto	l3128
  5872  0083'                    u4390:
  5873  0083'                    l3120:
  5874  0083' 0809'              	movf	__tdiv_to_l_@exp1,w
  5875  0084' 3A80               	xorlw	128
  5876  0085' 3E97               	addlw	151
  5877  0086' 1803               	skipnc
  5878  0087' 2800'              	goto	u4401
  5879  0088' 2800'              	goto	u4400
  5880  0089'                    u4401:
  5881  0089' 2800'              	goto	l3126
  5882  008A'                    u4400:
  5883  008A' 2800'              	goto	l3090
  5884  008B'                    l3126:
  5885  008B' 3001               	movlw	1
  5886  008C'                    u4415:
  5887  008C' 1003               	clrc
  5888  008D' 0C87'              	rrf	__tdiv_to_l_@quot+3,f
  5889  008E' 0C86'              	rrf	__tdiv_to_l_@quot+2,f
  5890  008F' 0C85'              	rrf	__tdiv_to_l_@quot+1,f
  5891  0090' 0C84'              	rrf	__tdiv_to_l_@quot,f
  5892  0091' 3EFF               	addlw	-1
  5893  0092' 1D03               	skipz
  5894  0093' 2800'              	goto	u4415
  5895  0094' 3001               	movlw	1
  5896  0095' 0080'              	movwf	??__tdiv_to_l_
  5897  0096' 0800'              	movf	??__tdiv_to_l_,w
  5898  0097' 0789'              	addwf	__tdiv_to_l_@exp1,f
  5899  0098' 1D03               	btfss	3,2
  5900  0099' 2800'              	goto	u4421
  5901  009A' 2800'              	goto	u4420
  5902  009B'                    u4421:
  5903  009B' 2800'              	goto	l3126
  5904  009C'                    u4420:
  5905  009C' 2800'              	goto	l3136
  5906  009D'                    l3128:
  5907  009D' 3018               	movlw	24
  5908  009E' 0209'              	subwf	__tdiv_to_l_@exp1,w
  5909  009F' 1C03               	skipc
  5910  00A0' 2800'              	goto	u4431
  5911  00A1' 2800'              	goto	u4430
  5912  00A2'                    u4431:
  5913  00A2' 2800'              	goto	l627
  5914  00A3'                    u4430:
  5915  00A3' 2800'              	goto	l3090
  5916  00A4'                    l3134:
  5917  00A4' 3001               	movlw	1
  5918  00A5' 0080'              	movwf	??__tdiv_to_l_
  5919  00A6'                    u4445:
  5920  00A6' 1003               	clrc
  5921  00A7' 0D84'              	rlf	__tdiv_to_l_@quot,f
  5922  00A8' 0D85'              	rlf	__tdiv_to_l_@quot+1,f
  5923  00A9' 0D86'              	rlf	__tdiv_to_l_@quot+2,f
  5924  00AA' 0D87'              	rlf	__tdiv_to_l_@quot+3,f
  5925  00AB' 0B80'              	decfsz	??__tdiv_to_l_,f
  5926  00AC' 2800'              	goto	u4445
  5927  00AD' 3001               	movlw	1
  5928  00AE' 0289'              	subwf	__tdiv_to_l_@exp1,f
  5929  00AF'                    l627:
  5930  00AF' 0809'              	movf	__tdiv_to_l_@exp1,w
  5931  00B0' 1D03               	btfss	3,2
  5932  00B1' 2800'              	goto	u4451
  5933  00B2' 2800'              	goto	u4450
  5934  00B3'                    u4451:
  5935  00B3' 2800'              	goto	l3134
  5936  00B4'                    u4450:
  5937  00B4'                    l3136:
  5938  00B4' 0807'              	movf	__tdiv_to_l_@quot+3,w
  5939  00B5' 0085'              	movwf	?__tdiv_to_l_+3
  5940  00B6' 0806'              	movf	__tdiv_to_l_@quot+2,w
  5941  00B7' 0084'              	movwf	?__tdiv_to_l_+2
  5942  00B8' 0805'              	movf	__tdiv_to_l_@quot+1,w
  5943  00B9' 0083'              	movwf	?__tdiv_to_l_+1
  5944  00BA' 0804'              	movf	__tdiv_to_l_@quot,w
  5945  00BB' 0082'              	movwf	?__tdiv_to_l_
  5946  00BC'                    l616:
  5947  00BC' 0008               	return
  5948  00BD'                    __end_of__tdiv_to_l_:
  5949                           
  5950                           	psect	text12
  5951  0000'                    __ptext12:	
  5952 ;; *************** function __div_to_l_ *****************
  5953 ;; Defined at:
  5954 ;;		line 60 in file "C:\Program Files\Microchip\xc8\v2.31\pic\sources\c90\common\fldivl.c"
  5955 ;; Parameters:    Size  Location     Type
  5956 ;;  f1              4    2[COMMON] unsigned long 
  5957 ;;  f2              4    6[COMMON] unsigned long 
  5958 ;; Auto vars:     Size  Location     Type
  5959 ;;  quot            4    1[BANK0 ] unsigned long 
  5960 ;;  exp1            1    6[BANK0 ] unsigned char 
  5961 ;;  cntr            1    5[BANK0 ] unsigned char 
  5962 ;; Return value:  Size  Location     Type
  5963 ;;                  4    2[COMMON] unsigned long 
  5964 ;; Registers used:
  5965 ;;		wreg, status,2, status,0
  5966 ;; Tracked objects:
  5967 ;;		On entry : 0/0
  5968 ;;		On exit  : 0/0
  5969 ;;		Unchanged: 0/0
  5970 ;; Data sizes:     COMMON   BANK0   BANK1   BANK3   BANK2
  5971 ;;      Params:         8       0       0       0       0
  5972 ;;      Locals:         0       6       0       0       0
  5973 ;;      Temps:          0       1       0       0       0
  5974 ;;      Totals:         8       7       0       0       0
  5975 ;;Total ram usage:       15 bytes
  5976 ;; Hardware stack levels used:    1
  5977 ;; Hardware stack levels required when called:    1
  5978 ;; This function calls:
  5979 ;;		Nothing
  5980 ;; This function is called by:
  5981 ;;		_sprintf
  5982 ;; This function uses a non-reentrant model
  5983 ;;
  5984                           
  5985                           
  5986                           ;psect for function __div_to_l_
  5987  0000'                    __div_to_l_:
  5988  0000'                    l4140:	
  5989                           ;incstack = 0
  5990                           ; Regs used in __div_to_l_: [wreg+status,2+status,0]
  5991                           
  5992  0000' 1003               	clrc
  5993  0001' 0D04'              	rlf	__div_to_l_@f1+2,w
  5994  0002' 0D05'              	rlf	__div_to_l_@f1+3,w
  5995  0003' 1283               	bcf	3,5	;RP0=0, select bank0
  5996  0004' 1303               	bcf	3,6	;RP1=0, select bank0
  5997  0005' 0080'              	movwf	??__div_to_l_
  5998  0006' 0800'              	movf	??__div_to_l_,w
  5999  0007' 0086'              	movwf	__div_to_l_@exp1
  6000  0008' 0806'              	movf	__div_to_l_@exp1,w
  6001  0009' 1D03               	btfss	3,2
  6002  000A' 2800'              	goto	u6411
  6003  000B' 2800'              	goto	u6410
  6004  000C'                    u6411:
  6005  000C' 2800'              	goto	l4146
  6006  000D'                    u6410:
  6007  000D'                    l4142:
  6008  000D' 3000               	movlw	0
  6009  000E' 0085'              	movwf	?__div_to_l_+3
  6010  000F' 3000               	movlw	0
  6011  0010' 0084'              	movwf	?__div_to_l_+2
  6012  0011' 3000               	movlw	0
  6013  0012' 0083'              	movwf	?__div_to_l_+1
  6014  0013' 3000               	movlw	0
  6015  0014' 0082'              	movwf	?__div_to_l_
  6016  0015' 2800'              	goto	l569
  6017  0016'                    l4146:
  6018  0016' 1003               	clrc
  6019  0017' 0D08'              	rlf	__div_to_l_@f2+2,w
  6020  0018' 0D09'              	rlf	__div_to_l_@f2+3,w
  6021  0019' 0080'              	movwf	??__div_to_l_
  6022  001A' 0800'              	movf	??__div_to_l_,w
  6023  001B' 0085'              	movwf	__div_to_l_@cntr
  6024  001C' 0805'              	movf	__div_to_l_@cntr,w
  6025  001D' 1D03               	btfss	3,2
  6026  001E' 2800'              	goto	u6421
  6027  001F' 2800'              	goto	u6420
  6028  0020'                    u6421:
  6029  0020' 2800'              	goto	l570
  6030  0021'                    u6420:
  6031  0021' 2800'              	goto	l4142
  6032  0022'                    l570:
  6033  0022' 1784'              	bsf	__div_to_l_@f1+2,7
  6034  0023'                    l4152:
  6035  0023' 30FF               	movlw	255
  6036  0024' 0582'              	andwf	__div_to_l_@f1,f
  6037  0025' 30FF               	movlw	255
  6038  0026' 0583'              	andwf	__div_to_l_@f1+1,f
  6039  0027' 30FF               	movlw	255
  6040  0028' 0584'              	andwf	__div_to_l_@f1+2,f
  6041  0029' 3000               	movlw	0
  6042  002A' 0585'              	andwf	__div_to_l_@f1+3,f
  6043  002B'                    l4154:
  6044  002B' 1788'              	bsf	__div_to_l_@f2+2,7
  6045  002C' 30FF               	movlw	255
  6046  002D' 0586'              	andwf	__div_to_l_@f2,f
  6047  002E' 30FF               	movlw	255
  6048  002F' 0587'              	andwf	__div_to_l_@f2+1,f
  6049  0030' 30FF               	movlw	255
  6050  0031' 0588'              	andwf	__div_to_l_@f2+2,f
  6051  0032' 3000               	movlw	0
  6052  0033' 0589'              	andwf	__div_to_l_@f2+3,f
  6053  0034' 3000               	movlw	0
  6054  0035' 0084'              	movwf	__div_to_l_@quot+3
  6055  0036' 3000               	movlw	0
  6056  0037' 0083'              	movwf	__div_to_l_@quot+2
  6057  0038' 3000               	movlw	0
  6058  0039' 0082'              	movwf	__div_to_l_@quot+1
  6059  003A' 3000               	movlw	0
  6060  003B' 0081'              	movwf	__div_to_l_@quot
  6061  003C'                    l4156:
  6062  003C' 307F               	movlw	127
  6063  003D' 0286'              	subwf	__div_to_l_@exp1,f
  6064  003E'                    l4158:
  6065  003E' 30A0               	movlw	160
  6066  003F' 0705'              	addwf	__div_to_l_@cntr,w
  6067  0040' 0080'              	movwf	??__div_to_l_
  6068  0041' 0800'              	movf	??__div_to_l_,w
  6069  0042' 0286'              	subwf	__div_to_l_@exp1,f
  6070  0043' 3020               	movlw	32
  6071  0044' 0080'              	movwf	??__div_to_l_
  6072  0045' 0800'              	movf	??__div_to_l_,w
  6073  0046' 0085'              	movwf	__div_to_l_@cntr
  6074  0047'                    l4160:
  6075  0047' 3001               	movlw	1
  6076  0048' 0080'              	movwf	??__div_to_l_
  6077  0049'                    u6435:
  6078  0049' 1003               	clrc
  6079  004A' 0D81'              	rlf	__div_to_l_@quot,f
  6080  004B' 0D82'              	rlf	__div_to_l_@quot+1,f
  6081  004C' 0D83'              	rlf	__div_to_l_@quot+2,f
  6082  004D' 0D84'              	rlf	__div_to_l_@quot+3,f
  6083  004E' 0B80'              	decfsz	??__div_to_l_,f
  6084  004F' 2800'              	goto	u6435
  6085  0050'                    l4162:
  6086  0050' 0809'              	movf	__div_to_l_@f2+3,w
  6087  0051' 0205'              	subwf	__div_to_l_@f1+3,w
  6088  0052' 1D03               	skipz
  6089  0053' 2800'              	goto	u6445
  6090  0054' 0808'              	movf	__div_to_l_@f2+2,w
  6091  0055' 0204'              	subwf	__div_to_l_@f1+2,w
  6092  0056' 1D03               	skipz
  6093  0057' 2800'              	goto	u6445
  6094  0058' 0807'              	movf	__div_to_l_@f2+1,w
  6095  0059' 0203'              	subwf	__div_to_l_@f1+1,w
  6096  005A' 1D03               	skipz
  6097  005B' 2800'              	goto	u6445
  6098  005C' 0806'              	movf	__div_to_l_@f2,w
  6099  005D' 0202'              	subwf	__div_to_l_@f1,w
  6100  005E'                    u6445:
  6101  005E' 1C03               	skipc
  6102  005F' 2800'              	goto	u6441
  6103  0060' 2800'              	goto	u6440
  6104  0061'                    u6441:
  6105  0061' 2800'              	goto	l4168
  6106  0062'                    u6440:
  6107  0062'                    l4164:
  6108  0062' 0806'              	movf	__div_to_l_@f2,w
  6109  0063' 0282'              	subwf	__div_to_l_@f1,f
  6110  0064' 0807'              	movf	__div_to_l_@f2+1,w
  6111  0065' 1C03               	skipc
  6112  0066' 0F07'              	incfsz	__div_to_l_@f2+1,w
  6113  0067' 0283'              	subwf	__div_to_l_@f1+1,f
  6114  0068' 0808'              	movf	__div_to_l_@f2+2,w
  6115  0069' 1C03               	skipc
  6116  006A' 0F08'              	incfsz	__div_to_l_@f2+2,w
  6117  006B' 0284'              	subwf	__div_to_l_@f1+2,f
  6118  006C' 0809'              	movf	__div_to_l_@f2+3,w
  6119  006D' 1C03               	skipc
  6120  006E' 0F09'              	incfsz	__div_to_l_@f2+3,w
  6121  006F' 0285'              	subwf	__div_to_l_@f1+3,f
  6122  0070'                    l4166:
  6123  0070' 1401'              	bsf	__div_to_l_@quot,0
  6124  0071'                    l4168:
  6125  0071' 3001               	movlw	1
  6126  0072' 0080'              	movwf	??__div_to_l_
  6127  0073'                    u6455:
  6128  0073' 1003               	clrc
  6129  0074' 0D82'              	rlf	__div_to_l_@f1,f
  6130  0075' 0D83'              	rlf	__div_to_l_@f1+1,f
  6131  0076' 0D84'              	rlf	__div_to_l_@f1+2,f
  6132  0077' 0D85'              	rlf	__div_to_l_@f1+3,f
  6133  0078' 0B80'              	decfsz	??__div_to_l_,f
  6134  0079' 2800'              	goto	u6455
  6135  007A'                    l4170:
  6136  007A' 3001               	movlw	1
  6137  007B' 0285'              	subwf	__div_to_l_@cntr,f
  6138  007C' 1D03               	btfss	3,2
  6139  007D' 2800'              	goto	u6461
  6140  007E' 2800'              	goto	u6460
  6141  007F'                    u6461:
  6142  007F' 2800'              	goto	l4160
  6143  0080'                    u6460:
  6144  0080'                    l573:
  6145  0080' 1F86'              	btfss	__div_to_l_@exp1,7
  6146  0081' 2800'              	goto	u6471
  6147  0082' 2800'              	goto	u6470
  6148  0083'                    u6471:
  6149  0083' 2800'              	goto	l4180
  6150  0084'                    u6470:
  6151  0084'                    l4172:
  6152  0084' 0806'              	movf	__div_to_l_@exp1,w
  6153  0085' 3A80               	xorlw	128
  6154  0086' 3E9F               	addlw	159
  6155  0087' 1803               	skipnc
  6156  0088' 2800'              	goto	u6481
  6157  0089' 2800'              	goto	u6480
  6158  008A'                    u6481:
  6159  008A' 2800'              	goto	l4178
  6160  008B'                    u6480:
  6161  008B' 2800'              	goto	l4142
  6162  008C'                    l4178:
  6163  008C' 3001               	movlw	1
  6164  008D'                    u6495:
  6165  008D' 1003               	clrc
  6166  008E' 0C84'              	rrf	__div_to_l_@quot+3,f
  6167  008F' 0C83'              	rrf	__div_to_l_@quot+2,f
  6168  0090' 0C82'              	rrf	__div_to_l_@quot+1,f
  6169  0091' 0C81'              	rrf	__div_to_l_@quot,f
  6170  0092' 3EFF               	addlw	-1
  6171  0093' 1D03               	skipz
  6172  0094' 2800'              	goto	u6495
  6173  0095' 3001               	movlw	1
  6174  0096' 0080'              	movwf	??__div_to_l_
  6175  0097' 0800'              	movf	??__div_to_l_,w
  6176  0098' 0786'              	addwf	__div_to_l_@exp1,f
  6177  0099' 1D03               	btfss	3,2
  6178  009A' 2800'              	goto	u6501
  6179  009B' 2800'              	goto	u6500
  6180  009C'                    u6501:
  6181  009C' 2800'              	goto	l4178
  6182  009D'                    u6500:
  6183  009D' 2800'              	goto	l4188
  6184  009E'                    l4180:
  6185  009E' 3020               	movlw	32
  6186  009F' 0206'              	subwf	__div_to_l_@exp1,w
  6187  00A0' 1C03               	skipc
  6188  00A1' 2800'              	goto	u6511
  6189  00A2' 2800'              	goto	u6510
  6190  00A3'                    u6511:
  6191  00A3' 2800'              	goto	l580
  6192  00A4'                    u6510:
  6193  00A4' 2800'              	goto	l4142
  6194  00A5'                    l4186:
  6195  00A5' 3001               	movlw	1
  6196  00A6' 0080'              	movwf	??__div_to_l_
  6197  00A7'                    u6525:
  6198  00A7' 1003               	clrc
  6199  00A8' 0D81'              	rlf	__div_to_l_@quot,f
  6200  00A9' 0D82'              	rlf	__div_to_l_@quot+1,f
  6201  00AA' 0D83'              	rlf	__div_to_l_@quot+2,f
  6202  00AB' 0D84'              	rlf	__div_to_l_@quot+3,f
  6203  00AC' 0B80'              	decfsz	??__div_to_l_,f
  6204  00AD' 2800'              	goto	u6525
  6205  00AE' 3001               	movlw	1
  6206  00AF' 0286'              	subwf	__div_to_l_@exp1,f
  6207  00B0'                    l580:
  6208  00B0' 0806'              	movf	__div_to_l_@exp1,w
  6209  00B1' 1D03               	btfss	3,2
  6210  00B2' 2800'              	goto	u6531
  6211  00B3' 2800'              	goto	u6530
  6212  00B4'                    u6531:
  6213  00B4' 2800'              	goto	l4186
  6214  00B5'                    u6530:
  6215  00B5'                    l4188:
  6216  00B5' 0804'              	movf	__div_to_l_@quot+3,w
  6217  00B6' 0085'              	movwf	?__div_to_l_+3
  6218  00B7' 0803'              	movf	__div_to_l_@quot+2,w
  6219  00B8' 0084'              	movwf	?__div_to_l_+2
  6220  00B9' 0802'              	movf	__div_to_l_@quot+1,w
  6221  00BA' 0083'              	movwf	?__div_to_l_+1
  6222  00BB' 0801'              	movf	__div_to_l_@quot,w
  6223  00BC' 0082'              	movwf	?__div_to_l_
  6224  00BD'                    l569:
  6225  00BD' 0008               	return
  6226  00BE'                    __end_of__div_to_l_:
  6227                           
  6228                           	psect	text13
  6229  0000'                    __ptext13:	
  6230 ;; *************** function ___xxtofl *****************
  6231 ;; Defined at:
  6232 ;;		line 10 in file "C:\Program Files\Microchip\xc8\v2.31\pic\sources\c90\common\xxtofl.c"
  6233 ;; Parameters:    Size  Location     Type
  6234 ;;  sign            1    wreg     unsigned char 
  6235 ;;  val             4    2[COMMON] long 
  6236 ;; Auto vars:     Size  Location     Type
  6237 ;;  sign            1    0[BANK0 ] unsigned char 
  6238 ;;  arg             4    2[BANK0 ] unsigned long 
  6239 ;;  exp             1    1[BANK0 ] unsigned char 
  6240 ;; Return value:  Size  Location     Type
  6241 ;;                  4    2[COMMON] unsigned char 
  6242 ;; Registers used:
  6243 ;;		wreg, status,2, status,0
  6244 ;; Tracked objects:
  6245 ;;		On entry : 0/0
  6246 ;;		On exit  : 0/0
  6247 ;;		Unchanged: 0/0
  6248 ;; Data sizes:     COMMON   BANK0   BANK1   BANK3   BANK2
  6249 ;;      Params:         4       0       0       0       0
  6250 ;;      Locals:         0       6       0       0       0
  6251 ;;      Temps:          4       0       0       0       0
  6252 ;;      Totals:         8       6       0       0       0
  6253 ;;Total ram usage:       14 bytes
  6254 ;; Hardware stack levels used:    1
  6255 ;; Hardware stack levels required when called:    1
  6256 ;; This function calls:
  6257 ;;		Nothing
  6258 ;; This function is called by:
  6259 ;;		_main
  6260 ;;		_sprintf
  6261 ;; This function uses a non-reentrant model
  6262 ;;
  6263                           
  6264                           
  6265                           ;psect for function ___xxtofl
  6266  0000'                    ___xxtofl:
  6267                           
  6268                           ;incstack = 0
  6269                           ; Regs used in ___xxtofl: [wreg+status,2+status,0]
  6270                           ;___xxtofl@sign stored from wreg
  6271  0000' 1283               	bcf	3,5	;RP0=0, select bank0
  6272  0001' 1303               	bcf	3,6	;RP1=0, select bank0
  6273  0002' 0080'              	movwf	___xxtofl@sign
  6274  0003'                    l3332:
  6275  0003' 0800'              	movf	___xxtofl@sign,w
  6276  0004' 1903               	btfsc	3,2
  6277  0005' 2800'              	goto	u4971
  6278  0006' 2800'              	goto	u4970
  6279  0007'                    u4971:
  6280  0007' 2800'              	goto	l3338
  6281  0008'                    u4970:
  6282  0008'                    l3334:
  6283  0008' 1F85'              	btfss	___xxtofl@val+3,7
  6284  0009' 2800'              	goto	u4981
  6285  000A' 2800'              	goto	u4980
  6286  000B'                    u4981:
  6287  000B' 2800'              	goto	l3338
  6288  000C'                    u4980:
  6289  000C'                    l3336:
  6290  000C' 0902'              	comf	___xxtofl@val,w
  6291  000D' 0082'              	movwf	___xxtofl@arg
  6292  000E' 0903'              	comf	___xxtofl@val+1,w
  6293  000F' 0083'              	movwf	___xxtofl@arg+1
  6294  0010' 0904'              	comf	___xxtofl@val+2,w
  6295  0011' 0084'              	movwf	___xxtofl@arg+2
  6296  0012' 0905'              	comf	___xxtofl@val+3,w
  6297  0013' 0085'              	movwf	___xxtofl@arg+3
  6298  0014' 0A82'              	incf	___xxtofl@arg,f
  6299  0015' 1903               	skipnz
  6300  0016' 0A83'              	incf	___xxtofl@arg+1,f
  6301  0017' 1903               	skipnz
  6302  0018' 0A84'              	incf	___xxtofl@arg+2,f
  6303  0019' 1903               	skipnz
  6304  001A' 0A85'              	incf	___xxtofl@arg+3,f
  6305  001B' 2800'              	goto	l866
  6306  001C'                    l3338:
  6307  001C' 0805'              	movf	___xxtofl@val+3,w
  6308  001D' 0085'              	movwf	___xxtofl@arg+3
  6309  001E' 0804'              	movf	___xxtofl@val+2,w
  6310  001F' 0084'              	movwf	___xxtofl@arg+2
  6311  0020' 0803'              	movf	___xxtofl@val+1,w
  6312  0021' 0083'              	movwf	___xxtofl@arg+1
  6313  0022' 0802'              	movf	___xxtofl@val,w
  6314  0023' 0082'              	movwf	___xxtofl@arg
  6315  0024'                    l866:
  6316  0024' 0805'              	movf	___xxtofl@val+3,w
  6317  0025' 0404'              	iorwf	___xxtofl@val+2,w
  6318  0026' 0403'              	iorwf	___xxtofl@val+1,w
  6319  0027' 0402'              	iorwf	___xxtofl@val,w
  6320  0028' 1D03               	skipz
  6321  0029' 2800'              	goto	u4991
  6322  002A' 2800'              	goto	u4990
  6323  002B'                    u4991:
  6324  002B' 2800'              	goto	l3344
  6325  002C'                    u4990:
  6326  002C'                    l3340:
  6327  002C' 3000               	movlw	0
  6328  002D' 0085'              	movwf	?___xxtofl+3
  6329  002E' 3000               	movlw	0
  6330  002F' 0084'              	movwf	?___xxtofl+2
  6331  0030' 3000               	movlw	0
  6332  0031' 0083'              	movwf	?___xxtofl+1
  6333  0032' 3000               	movlw	0
  6334  0033' 0082'              	movwf	?___xxtofl
  6335  0034' 2800'              	goto	l868
  6336  0035'                    l3344:
  6337  0035' 3096               	movlw	150
  6338  0036' 0086'              	movwf	??___xxtofl
  6339  0037' 0806'              	movf	??___xxtofl,w
  6340  0038' 0081'              	movwf	___xxtofl@exp
  6341  0039' 2800'              	goto	l3348
  6342  003A'                    l3346:
  6343  003A' 3001               	movlw	1
  6344  003B' 0086'              	movwf	??___xxtofl
  6345  003C' 0806'              	movf	??___xxtofl,w
  6346  003D' 0781'              	addwf	___xxtofl@exp,f
  6347  003E' 3001               	movlw	1
  6348  003F'                    u5005:
  6349  003F' 1003               	clrc
  6350  0040' 0C85'              	rrf	___xxtofl@arg+3,f
  6351  0041' 0C84'              	rrf	___xxtofl@arg+2,f
  6352  0042' 0C83'              	rrf	___xxtofl@arg+1,f
  6353  0043' 0C82'              	rrf	___xxtofl@arg,f
  6354  0044' 3EFF               	addlw	-1
  6355  0045' 1D03               	skipz
  6356  0046' 2800'              	goto	u5005
  6357  0047'                    l3348:
  6358  0047' 30FE               	movlw	254
  6359  0048' 0505'              	andwf	___xxtofl@arg+3,w
  6360  0049' 1D03               	btfss	3,2
  6361  004A' 2800'              	goto	u5011
  6362  004B' 2800'              	goto	u5010
  6363  004C'                    u5011:
  6364  004C' 2800'              	goto	l3346
  6365  004D'                    u5010:
  6366  004D' 2800'              	goto	l872
  6367  004E'                    l3350:
  6368  004E' 3001               	movlw	1
  6369  004F' 0086'              	movwf	??___xxtofl
  6370  0050' 0806'              	movf	??___xxtofl,w
  6371  0051' 0781'              	addwf	___xxtofl@exp,f
  6372  0052'                    l3352:
  6373  0052' 3001               	movlw	1
  6374  0053' 0782'              	addwf	___xxtofl@arg,f
  6375  0054' 3000               	movlw	0
  6376  0055' 1803               	skipnc
  6377  0056' 3001               	movlw	1
  6378  0057' 0783'              	addwf	___xxtofl@arg+1,f
  6379  0058' 3000               	movlw	0
  6380  0059' 1803               	skipnc
  6381  005A' 3001               	movlw	1
  6382  005B' 0784'              	addwf	___xxtofl@arg+2,f
  6383  005C' 3000               	movlw	0
  6384  005D' 1803               	skipnc
  6385  005E' 3001               	movlw	1
  6386  005F' 0785'              	addwf	___xxtofl@arg+3,f
  6387  0060'                    l3354:
  6388  0060' 3001               	movlw	1
  6389  0061'                    u5025:
  6390  0061' 1003               	clrc
  6391  0062' 0C85'              	rrf	___xxtofl@arg+3,f
  6392  0063' 0C84'              	rrf	___xxtofl@arg+2,f
  6393  0064' 0C83'              	rrf	___xxtofl@arg+1,f
  6394  0065' 0C82'              	rrf	___xxtofl@arg,f
  6395  0066' 3EFF               	addlw	-1
  6396  0067' 1D03               	skipz
  6397  0068' 2800'              	goto	u5025
  6398  0069'                    l872:
  6399  0069' 30FF               	movlw	255
  6400  006A' 0505'              	andwf	___xxtofl@arg+3,w
  6401  006B' 1D03               	btfss	3,2
  6402  006C' 2800'              	goto	u5031
  6403  006D' 2800'              	goto	u5030
  6404  006E'                    u5031:
  6405  006E' 2800'              	goto	l3350
  6406  006F'                    u5030:
  6407  006F' 2800'              	goto	l3358
  6408  0070'                    l3356:
  6409  0070' 3001               	movlw	1
  6410  0071' 0281'              	subwf	___xxtofl@exp,f
  6411  0072' 3001               	movlw	1
  6412  0073' 0086'              	movwf	??___xxtofl
  6413  0074'                    u5045:
  6414  0074' 1003               	clrc
  6415  0075' 0D82'              	rlf	___xxtofl@arg,f
  6416  0076' 0D83'              	rlf	___xxtofl@arg+1,f
  6417  0077' 0D84'              	rlf	___xxtofl@arg+2,f
  6418  0078' 0D85'              	rlf	___xxtofl@arg+3,f
  6419  0079' 0B86'              	decfsz	??___xxtofl,f
  6420  007A' 2800'              	goto	u5045
  6421  007B'                    l3358:
  6422  007B' 1B84'              	btfsc	___xxtofl@arg+2,7
  6423  007C' 2800'              	goto	u5051
  6424  007D' 2800'              	goto	u5050
  6425  007E'                    u5051:
  6426  007E' 2800'              	goto	l879
  6427  007F'                    u5050:
  6428  007F'                    l3360:
  6429  007F' 3002               	movlw	2
  6430  0080' 0201'              	subwf	___xxtofl@exp,w
  6431  0081' 1803               	skipnc
  6432  0082' 2800'              	goto	u5061
  6433  0083' 2800'              	goto	u5060
  6434  0084'                    u5061:
  6435  0084' 2800'              	goto	l3356
  6436  0085'                    u5060:
  6437  0085'                    l879:
  6438  0085' 1801'              	btfsc	___xxtofl@exp,0
  6439  0086' 2800'              	goto	u5071
  6440  0087' 2800'              	goto	u5070
  6441  0088'                    u5071:
  6442  0088' 2800'              	goto	l880
  6443  0089'                    u5070:
  6444  0089'                    l3362:
  6445  0089' 30FF               	movlw	255
  6446  008A' 0582'              	andwf	___xxtofl@arg,f
  6447  008B' 30FF               	movlw	255
  6448  008C' 0583'              	andwf	___xxtofl@arg+1,f
  6449  008D' 307F               	movlw	127
  6450  008E' 0584'              	andwf	___xxtofl@arg+2,f
  6451  008F' 30FF               	movlw	255
  6452  0090' 0585'              	andwf	___xxtofl@arg+3,f
  6453  0091'                    l880:
  6454  0091' 1003               	clrc
  6455  0092' 0C81'              	rrf	___xxtofl@exp,f
  6456  0093'                    l3364:
  6457  0093' 0801'              	movf	___xxtofl@exp,w
  6458  0094' 0086'              	movwf	??___xxtofl
  6459  0095' 0187'              	clrf	??___xxtofl+1
  6460  0096' 0188'              	clrf	??___xxtofl+2
  6461  0097' 0189'              	clrf	??___xxtofl+3
  6462  0098' 3018               	movlw	24
  6463  0099'                    u5085:
  6464  0099' 1003               	clrc
  6465  009A' 0D86'              	rlf	??___xxtofl,f
  6466  009B' 0D87'              	rlf	??___xxtofl+1,f
  6467  009C' 0D88'              	rlf	??___xxtofl+2,f
  6468  009D' 0D89'              	rlf	??___xxtofl+3,f
  6469  009E'                    u5080:
  6470  009E' 3EFF               	addlw	-1
  6471  009F' 1D03               	skipz
  6472  00A0' 2800'              	goto	u5085
  6473  00A1' 0806'              	movf	??___xxtofl,w
  6474  00A2' 0482'              	iorwf	___xxtofl@arg,f
  6475  00A3' 0807'              	movf	??___xxtofl+1,w
  6476  00A4' 0483'              	iorwf	___xxtofl@arg+1,f
  6477  00A5' 0808'              	movf	??___xxtofl+2,w
  6478  00A6' 0484'              	iorwf	___xxtofl@arg+2,f
  6479  00A7' 0809'              	movf	??___xxtofl+3,w
  6480  00A8' 0485'              	iorwf	___xxtofl@arg+3,f
  6481  00A9'                    l3366:
  6482  00A9' 0800'              	movf	___xxtofl@sign,w
  6483  00AA' 1903               	btfsc	3,2
  6484  00AB' 2800'              	goto	u5091
  6485  00AC' 2800'              	goto	u5090
  6486  00AD'                    u5091:
  6487  00AD' 2800'              	goto	l3372
  6488  00AE'                    u5090:
  6489  00AE'                    l3368:
  6490  00AE' 1F85'              	btfss	___xxtofl@val+3,7
  6491  00AF' 2800'              	goto	u5101
  6492  00B0' 2800'              	goto	u5100
  6493  00B1'                    u5101:
  6494  00B1' 2800'              	goto	l3372
  6495  00B2'                    u5100:
  6496  00B2'                    l3370:
  6497  00B2' 1785'              	bsf	___xxtofl@arg+3,7
  6498  00B3'                    l3372:
  6499  00B3' 0805'              	movf	___xxtofl@arg+3,w
  6500  00B4' 0085'              	movwf	?___xxtofl+3
  6501  00B5' 0804'              	movf	___xxtofl@arg+2,w
  6502  00B6' 0084'              	movwf	?___xxtofl+2
  6503  00B7' 0803'              	movf	___xxtofl@arg+1,w
  6504  00B8' 0083'              	movwf	?___xxtofl+1
  6505  00B9' 0802'              	movf	___xxtofl@arg,w
  6506  00BA' 0082'              	movwf	?___xxtofl
  6507  00BB'                    l868:
  6508  00BB' 0008               	return
  6509  00BC'                    __end_of___xxtofl:
  6510                           
  6511                           	psect	text14
  6512  0000'                    __ptext14:	
  6513 ;; *************** function ___wmul *****************
  6514 ;; Defined at:
  6515 ;;		line 15 in file "C:\Program Files\Microchip\xc8\v2.31\pic\sources\c90\common\Umul16.c"
  6516 ;; Parameters:    Size  Location     Type
  6517 ;;  multiplier      2    2[COMMON] unsigned int 
  6518 ;;  multiplicand    2    4[COMMON] unsigned int 
  6519 ;; Auto vars:     Size  Location     Type
  6520 ;;  product         2    6[COMMON] unsigned int 
  6521 ;; Return value:  Size  Location     Type
  6522 ;;                  2    2[COMMON] unsigned int 
  6523 ;; Registers used:
  6524 ;;		wreg, status,2, status,0
  6525 ;; Tracked objects:
  6526 ;;		On entry : 0/0
  6527 ;;		On exit  : 0/0
  6528 ;;		Unchanged: 0/0
  6529 ;; Data sizes:     COMMON   BANK0   BANK1   BANK3   BANK2
  6530 ;;      Params:         4       0       0       0       0
  6531 ;;      Locals:         2       0       0       0       0
  6532 ;;      Temps:          0       0       0       0       0
  6533 ;;      Totals:         6       0       0       0       0
  6534 ;;Total ram usage:        6 bytes
  6535 ;; Hardware stack levels used:    1
  6536 ;; Hardware stack levels required when called:    1
  6537 ;; This function calls:
  6538 ;;		Nothing
  6539 ;; This function is called by:
  6540 ;;		_sprintf
  6541 ;; This function uses a non-reentrant model
  6542 ;;
  6543                           
  6544                           
  6545                           ;psect for function ___wmul
  6546  0000'                    ___wmul:
  6547  0000'                    l3192:	
  6548                           ;incstack = 0
  6549                           ; Regs used in ___wmul: [wreg+status,2+status,0]
  6550                           
  6551  0000' 0186'              	clrf	___wmul@product
  6552  0001' 0187'              	clrf	___wmul@product+1
  6553  0002'                    l3194:
  6554  0002' 1C02'              	btfss	___wmul@multiplier,0
  6555  0003' 2800'              	goto	u4591
  6556  0004' 2800'              	goto	u4590
  6557  0005'                    u4591:
  6558  0005' 2800'              	goto	l399
  6559  0006'                    u4590:
  6560  0006'                    l3196:
  6561  0006' 0804'              	movf	___wmul@multiplicand,w
  6562  0007' 0786'              	addwf	___wmul@product,f
  6563  0008' 1803               	skipnc
  6564  0009' 0A87'              	incf	___wmul@product+1,f
  6565  000A' 0805'              	movf	___wmul@multiplicand+1,w
  6566  000B' 0787'              	addwf	___wmul@product+1,f
  6567  000C'                    l399:
  6568  000C' 3001               	movlw	1
  6569  000D'                    u4605:
  6570  000D' 1003               	clrc
  6571  000E' 0D84'              	rlf	___wmul@multiplicand,f
  6572  000F' 0D85'              	rlf	___wmul@multiplicand+1,f
  6573  0010' 3EFF               	addlw	-1
  6574  0011' 1D03               	skipz
  6575  0012' 2800'              	goto	u4605
  6576  0013'                    l3198:
  6577  0013' 3001               	movlw	1
  6578  0014'                    u4615:
  6579  0014' 1003               	clrc
  6580  0015' 0C83'              	rrf	___wmul@multiplier+1,f
  6581  0016' 0C82'              	rrf	___wmul@multiplier,f
  6582  0017' 3EFF               	addlw	-1
  6583  0018' 1D03               	skipz
  6584  0019' 2800'              	goto	u4615
  6585  001A'                    l3200:
  6586  001A' 0802'              	movf	___wmul@multiplier,w
  6587  001B' 0403'              	iorwf	___wmul@multiplier+1,w
  6588  001C' 1D03               	btfss	3,2
  6589  001D' 2800'              	goto	u4621
  6590  001E' 2800'              	goto	u4620
  6591  001F'                    u4621:
  6592  001F' 2800'              	goto	l3194
  6593  0020'                    u4620:
  6594  0020'                    l3202:
  6595  0020' 0807'              	movf	___wmul@product+1,w
  6596  0021' 0083'              	movwf	?___wmul+1
  6597  0022' 0806'              	movf	___wmul@product,w
  6598  0023' 0082'              	movwf	?___wmul
  6599  0024'                    l401:
  6600  0024' 0008               	return
  6601  0025'                    __end_of___wmul:
  6602                           
  6603                           	psect	text15
  6604  0000'                    __ptext15:	
  6605 ;; *************** function ___llmod *****************
  6606 ;; Defined at:
  6607 ;;		line 5 in file "C:\Program Files\Microchip\xc8\v2.31\pic\sources\c90\common\llmod.c"
  6608 ;; Parameters:    Size  Location     Type
  6609 ;;  divisor         4    2[COMMON] unsigned long 
  6610 ;;  dividend        4    6[COMMON] unsigned long 
  6611 ;; Auto vars:     Size  Location     Type
  6612 ;;  counter         1    1[BANK0 ] unsigned char 
  6613 ;; Return value:  Size  Location     Type
  6614 ;;                  4    2[COMMON] unsigned long 
  6615 ;; Registers used:
  6616 ;;		wreg, status,2, status,0
  6617 ;; Tracked objects:
  6618 ;;		On entry : 0/0
  6619 ;;		On exit  : 0/0
  6620 ;;		Unchanged: 0/0
  6621 ;; Data sizes:     COMMON   BANK0   BANK1   BANK3   BANK2
  6622 ;;      Params:         8       0       0       0       0
  6623 ;;      Locals:         0       1       0       0       0
  6624 ;;      Temps:          0       1       0       0       0
  6625 ;;      Totals:         8       2       0       0       0
  6626 ;;Total ram usage:       10 bytes
  6627 ;; Hardware stack levels used:    1
  6628 ;; Hardware stack levels required when called:    1
  6629 ;; This function calls:
  6630 ;;		Nothing
  6631 ;; This function is called by:
  6632 ;;		_sprintf
  6633 ;; This function uses a non-reentrant model
  6634 ;;
  6635                           
  6636                           
  6637                           ;psect for function ___llmod
  6638  0000'                    ___llmod:
  6639  0000'                    l4216:	
  6640                           ;incstack = 0
  6641                           ; Regs used in ___llmod: [wreg+status,2+status,0]
  6642                           
  6643  0000' 0805'              	movf	___llmod@divisor+3,w
  6644  0001' 0404'              	iorwf	___llmod@divisor+2,w
  6645  0002' 0403'              	iorwf	___llmod@divisor+1,w
  6646  0003' 0402'              	iorwf	___llmod@divisor,w
  6647  0004' 1903               	skipnz
  6648  0005' 2800'              	goto	u6611
  6649  0006' 2800'              	goto	u6610
  6650  0007'                    u6611:
  6651  0007' 2800'              	goto	l4232
  6652  0008'                    u6610:
  6653  0008'                    l4218:
  6654  0008' 1283               	bcf	3,5	;RP0=0, select bank0
  6655  0009' 1303               	bcf	3,6	;RP1=0, select bank0
  6656  000A' 0181'              	clrf	___llmod@counter
  6657  000B' 0A81'              	incf	___llmod@counter,f
  6658  000C' 2800'              	goto	l4222
  6659  000D'                    l4220:
  6660  000D' 3001               	movlw	1
  6661  000E' 0080'              	movwf	??___llmod
  6662  000F'                    u6625:
  6663  000F' 1003               	clrc
  6664  0010' 0D82'              	rlf	___llmod@divisor,f
  6665  0011' 0D83'              	rlf	___llmod@divisor+1,f
  6666  0012' 0D84'              	rlf	___llmod@divisor+2,f
  6667  0013' 0D85'              	rlf	___llmod@divisor+3,f
  6668  0014' 0B80'              	decfsz	??___llmod,f
  6669  0015' 2800'              	goto	u6625
  6670  0016' 3001               	movlw	1
  6671  0017' 0080'              	movwf	??___llmod
  6672  0018' 0800'              	movf	??___llmod,w
  6673  0019' 0781'              	addwf	___llmod@counter,f
  6674  001A'                    l4222:
  6675  001A' 1F85'              	btfss	___llmod@divisor+3,7
  6676  001B' 2800'              	goto	u6631
  6677  001C' 2800'              	goto	u6630
  6678  001D'                    u6631:
  6679  001D' 2800'              	goto	l4220
  6680  001E'                    u6630:
  6681  001E'                    l4224:
  6682  001E' 0805'              	movf	___llmod@divisor+3,w
  6683  001F' 0209'              	subwf	___llmod@dividend+3,w
  6684  0020' 1D03               	skipz
  6685  0021' 2800'              	goto	u6645
  6686  0022' 0804'              	movf	___llmod@divisor+2,w
  6687  0023' 0208'              	subwf	___llmod@dividend+2,w
  6688  0024' 1D03               	skipz
  6689  0025' 2800'              	goto	u6645
  6690  0026' 0803'              	movf	___llmod@divisor+1,w
  6691  0027' 0207'              	subwf	___llmod@dividend+1,w
  6692  0028' 1D03               	skipz
  6693  0029' 2800'              	goto	u6645
  6694  002A' 0802'              	movf	___llmod@divisor,w
  6695  002B' 0206'              	subwf	___llmod@dividend,w
  6696  002C'                    u6645:
  6697  002C' 1C03               	skipc
  6698  002D' 2800'              	goto	u6641
  6699  002E' 2800'              	goto	u6640
  6700  002F'                    u6641:
  6701  002F' 2800'              	goto	l4228
  6702  0030'                    u6640:
  6703  0030'                    l4226:
  6704  0030' 0802'              	movf	___llmod@divisor,w
  6705  0031' 0286'              	subwf	___llmod@dividend,f
  6706  0032' 0803'              	movf	___llmod@divisor+1,w
  6707  0033' 1C03               	skipc
  6708  0034' 0F03'              	incfsz	___llmod@divisor+1,w
  6709  0035' 0287'              	subwf	___llmod@dividend+1,f
  6710  0036' 0804'              	movf	___llmod@divisor+2,w
  6711  0037' 1C03               	skipc
  6712  0038' 0F04'              	incfsz	___llmod@divisor+2,w
  6713  0039' 0288'              	subwf	___llmod@dividend+2,f
  6714  003A' 0805'              	movf	___llmod@divisor+3,w
  6715  003B' 1C03               	skipc
  6716  003C' 0F05'              	incfsz	___llmod@divisor+3,w
  6717  003D' 0289'              	subwf	___llmod@dividend+3,f
  6718  003E'                    l4228:
  6719  003E' 3001               	movlw	1
  6720  003F'                    u6655:
  6721  003F' 1003               	clrc
  6722  0040' 0C85'              	rrf	___llmod@divisor+3,f
  6723  0041' 0C84'              	rrf	___llmod@divisor+2,f
  6724  0042' 0C83'              	rrf	___llmod@divisor+1,f
  6725  0043' 0C82'              	rrf	___llmod@divisor,f
  6726  0044' 3EFF               	addlw	-1
  6727  0045' 1D03               	skipz
  6728  0046' 2800'              	goto	u6655
  6729  0047'                    l4230:
  6730  0047' 3001               	movlw	1
  6731  0048' 0281'              	subwf	___llmod@counter,f
  6732  0049' 1D03               	btfss	3,2
  6733  004A' 2800'              	goto	u6661
  6734  004B' 2800'              	goto	u6660
  6735  004C'                    u6661:
  6736  004C' 2800'              	goto	l4224
  6737  004D'                    u6660:
  6738  004D'                    l4232:
  6739  004D' 0809'              	movf	___llmod@dividend+3,w
  6740  004E' 0085'              	movwf	?___llmod+3
  6741  004F' 0808'              	movf	___llmod@dividend+2,w
  6742  0050' 0084'              	movwf	?___llmod+2
  6743  0051' 0807'              	movf	___llmod@dividend+1,w
  6744  0052' 0083'              	movwf	?___llmod+1
  6745  0053' 0806'              	movf	___llmod@dividend,w
  6746  0054' 0082'              	movwf	?___llmod
  6747  0055'                    l655:
  6748  0055' 0008               	return
  6749  0056'                    __end_of___llmod:
  6750                           
  6751                           	psect	text16
  6752  0000'                    __ptext16:	
  6753 ;; *************** function ___lldiv *****************
  6754 ;; Defined at:
  6755 ;;		line 5 in file "C:\Program Files\Microchip\xc8\v2.31\pic\sources\c90\common\__lldiv.c"
  6756 ;; Parameters:    Size  Location     Type
  6757 ;;  divisor         4    2[COMMON] unsigned long 
  6758 ;;  dividend        4    6[COMMON] unsigned long 
  6759 ;; Auto vars:     Size  Location     Type
  6760 ;;  quotient        4    1[BANK0 ] unsigned long 
  6761 ;;  counter         1    5[BANK0 ] unsigned char 
  6762 ;; Return value:  Size  Location     Type
  6763 ;;                  4    2[COMMON] unsigned long 
  6764 ;; Registers used:
  6765 ;;		wreg, status,2, status,0
  6766 ;; Tracked objects:
  6767 ;;		On entry : 0/0
  6768 ;;		On exit  : 0/0
  6769 ;;		Unchanged: 0/0
  6770 ;; Data sizes:     COMMON   BANK0   BANK1   BANK3   BANK2
  6771 ;;      Params:         8       0       0       0       0
  6772 ;;      Locals:         0       5       0       0       0
  6773 ;;      Temps:          0       1       0       0       0
  6774 ;;      Totals:         8       6       0       0       0
  6775 ;;Total ram usage:       14 bytes
  6776 ;; Hardware stack levels used:    1
  6777 ;; Hardware stack levels required when called:    1
  6778 ;; This function calls:
  6779 ;;		Nothing
  6780 ;; This function is called by:
  6781 ;;		_sprintf
  6782 ;; This function uses a non-reentrant model
  6783 ;;
  6784                           
  6785                           
  6786                           ;psect for function ___lldiv
  6787  0000'                    ___lldiv:
  6788  0000'                    l4192:	
  6789                           ;incstack = 0
  6790                           ; Regs used in ___lldiv: [wreg+status,2+status,0]
  6791                           
  6792  0000' 3000               	movlw	0
  6793  0001' 1283               	bcf	3,5	;RP0=0, select bank0
  6794  0002' 1303               	bcf	3,6	;RP1=0, select bank0
  6795  0003' 0084'              	movwf	___lldiv@quotient+3
  6796  0004' 3000               	movlw	0
  6797  0005' 0083'              	movwf	___lldiv@quotient+2
  6798  0006' 3000               	movlw	0
  6799  0007' 0082'              	movwf	___lldiv@quotient+1
  6800  0008' 3000               	movlw	0
  6801  0009' 0081'              	movwf	___lldiv@quotient
  6802  000A' 0805'              	movf	___lldiv@divisor+3,w
  6803  000B' 0404'              	iorwf	___lldiv@divisor+2,w
  6804  000C' 0403'              	iorwf	___lldiv@divisor+1,w
  6805  000D' 0402'              	iorwf	___lldiv@divisor,w
  6806  000E' 1903               	skipnz
  6807  000F' 2800'              	goto	u6541
  6808  0010' 2800'              	goto	u6540
  6809  0011'                    u6541:
  6810  0011' 2800'              	goto	l4212
  6811  0012'                    u6540:
  6812  0012'                    l4194:
  6813  0012' 0185'              	clrf	___lldiv@counter
  6814  0013' 0A85'              	incf	___lldiv@counter,f
  6815  0014' 2800'              	goto	l4198
  6816  0015'                    l4196:
  6817  0015' 3001               	movlw	1
  6818  0016' 0080'              	movwf	??___lldiv
  6819  0017'                    u6555:
  6820  0017' 1003               	clrc
  6821  0018' 0D82'              	rlf	___lldiv@divisor,f
  6822  0019' 0D83'              	rlf	___lldiv@divisor+1,f
  6823  001A' 0D84'              	rlf	___lldiv@divisor+2,f
  6824  001B' 0D85'              	rlf	___lldiv@divisor+3,f
  6825  001C' 0B80'              	decfsz	??___lldiv,f
  6826  001D' 2800'              	goto	u6555
  6827  001E' 3001               	movlw	1
  6828  001F' 0080'              	movwf	??___lldiv
  6829  0020' 0800'              	movf	??___lldiv,w
  6830  0021' 0785'              	addwf	___lldiv@counter,f
  6831  0022'                    l4198:
  6832  0022' 1F85'              	btfss	___lldiv@divisor+3,7
  6833  0023' 2800'              	goto	u6561
  6834  0024' 2800'              	goto	u6560
  6835  0025'                    u6561:
  6836  0025' 2800'              	goto	l4196
  6837  0026'                    u6560:
  6838  0026'                    l4200:
  6839  0026' 3001               	movlw	1
  6840  0027' 0080'              	movwf	??___lldiv
  6841  0028'                    u6575:
  6842  0028' 1003               	clrc
  6843  0029' 0D81'              	rlf	___lldiv@quotient,f
  6844  002A' 0D82'              	rlf	___lldiv@quotient+1,f
  6845  002B' 0D83'              	rlf	___lldiv@quotient+2,f
  6846  002C' 0D84'              	rlf	___lldiv@quotient+3,f
  6847  002D' 0B80'              	decfsz	??___lldiv,f
  6848  002E' 2800'              	goto	u6575
  6849  002F'                    l4202:
  6850  002F' 0805'              	movf	___lldiv@divisor+3,w
  6851  0030' 0209'              	subwf	___lldiv@dividend+3,w
  6852  0031' 1D03               	skipz
  6853  0032' 2800'              	goto	u6585
  6854  0033' 0804'              	movf	___lldiv@divisor+2,w
  6855  0034' 0208'              	subwf	___lldiv@dividend+2,w
  6856  0035' 1D03               	skipz
  6857  0036' 2800'              	goto	u6585
  6858  0037' 0803'              	movf	___lldiv@divisor+1,w
  6859  0038' 0207'              	subwf	___lldiv@dividend+1,w
  6860  0039' 1D03               	skipz
  6861  003A' 2800'              	goto	u6585
  6862  003B' 0802'              	movf	___lldiv@divisor,w
  6863  003C' 0206'              	subwf	___lldiv@dividend,w
  6864  003D'                    u6585:
  6865  003D' 1C03               	skipc
  6866  003E' 2800'              	goto	u6581
  6867  003F' 2800'              	goto	u6580
  6868  0040'                    u6581:
  6869  0040' 2800'              	goto	l4208
  6870  0041'                    u6580:
  6871  0041'                    l4204:
  6872  0041' 0802'              	movf	___lldiv@divisor,w
  6873  0042' 0286'              	subwf	___lldiv@dividend,f
  6874  0043' 0803'              	movf	___lldiv@divisor+1,w
  6875  0044' 1C03               	skipc
  6876  0045' 0F03'              	incfsz	___lldiv@divisor+1,w
  6877  0046' 0287'              	subwf	___lldiv@dividend+1,f
  6878  0047' 0804'              	movf	___lldiv@divisor+2,w
  6879  0048' 1C03               	skipc
  6880  0049' 0F04'              	incfsz	___lldiv@divisor+2,w
  6881  004A' 0288'              	subwf	___lldiv@dividend+2,f
  6882  004B' 0805'              	movf	___lldiv@divisor+3,w
  6883  004C' 1C03               	skipc
  6884  004D' 0F05'              	incfsz	___lldiv@divisor+3,w
  6885  004E' 0289'              	subwf	___lldiv@dividend+3,f
  6886  004F'                    l4206:
  6887  004F' 1401'              	bsf	___lldiv@quotient,0
  6888  0050'                    l4208:
  6889  0050' 3001               	movlw	1
  6890  0051'                    u6595:
  6891  0051' 1003               	clrc
  6892  0052' 0C85'              	rrf	___lldiv@divisor+3,f
  6893  0053' 0C84'              	rrf	___lldiv@divisor+2,f
  6894  0054' 0C83'              	rrf	___lldiv@divisor+1,f
  6895  0055' 0C82'              	rrf	___lldiv@divisor,f
  6896  0056' 3EFF               	addlw	-1
  6897  0057' 1D03               	skipz
  6898  0058' 2800'              	goto	u6595
  6899  0059'                    l4210:
  6900  0059' 3001               	movlw	1
  6901  005A' 0285'              	subwf	___lldiv@counter,f
  6902  005B' 1D03               	btfss	3,2
  6903  005C' 2800'              	goto	u6601
  6904  005D' 2800'              	goto	u6600
  6905  005E'                    u6601:
  6906  005E' 2800'              	goto	l4200
  6907  005F'                    u6600:
  6908  005F'                    l4212:
  6909  005F' 0804'              	movf	___lldiv@quotient+3,w
  6910  0060' 0085'              	movwf	?___lldiv+3
  6911  0061' 0803'              	movf	___lldiv@quotient+2,w
  6912  0062' 0084'              	movwf	?___lldiv+2
  6913  0063' 0802'              	movf	___lldiv@quotient+1,w
  6914  0064' 0083'              	movwf	?___lldiv+1
  6915  0065' 0801'              	movf	___lldiv@quotient,w
  6916  0066' 0082'              	movwf	?___lldiv
  6917  0067'                    l435:
  6918  0067' 0008               	return
  6919  0068'                    __end_of___lldiv:
  6920                           
  6921                           	psect	text17
  6922  0000'                    __ptext17:	
  6923 ;; *************** function ___fltol *****************
  6924 ;; Defined at:
  6925 ;;		line 43 in file "C:\Program Files\Microchip\xc8\v2.31\pic\sources\c90\common\fltol.c"
  6926 ;; Parameters:    Size  Location     Type
  6927 ;;  f1              4   53[BANK0 ] unsigned long 
  6928 ;; Auto vars:     Size  Location     Type
  6929 ;;  exp1            1   63[BANK0 ] unsigned char 
  6930 ;;  sign1           1   62[BANK0 ] unsigned char 
  6931 ;; Return value:  Size  Location     Type
  6932 ;;                  4   53[BANK0 ] long 
  6933 ;; Registers used:
  6934 ;;		wreg, status,2, status,0
  6935 ;; Tracked objects:
  6936 ;;		On entry : 0/0
  6937 ;;		On exit  : 0/0
  6938 ;;		Unchanged: 0/0
  6939 ;; Data sizes:     COMMON   BANK0   BANK1   BANK3   BANK2
  6940 ;;      Params:         0       4       0       0       0
  6941 ;;      Locals:         0       2       0       0       0
  6942 ;;      Temps:          0       5       0       0       0
  6943 ;;      Totals:         0      11       0       0       0
  6944 ;;Total ram usage:       11 bytes
  6945 ;; Hardware stack levels used:    1
  6946 ;; Hardware stack levels required when called:    1
  6947 ;; This function calls:
  6948 ;;		Nothing
  6949 ;; This function is called by:
  6950 ;;		_main
  6951 ;;		_sprintf
  6952 ;; This function uses a non-reentrant model
  6953 ;;
  6954                           
  6955                           
  6956                           ;psect for function ___fltol
  6957  0000'                    ___fltol:
  6958  0000'                    l3270:	
  6959                           ;incstack = 0
  6960                           ; Regs used in ___fltol: [wreg+status,2+status,0]
  6961                           
  6962  0000' 1003               	clrc
  6963  0001' 1283               	bcf	3,5	;RP0=0, select bank0
  6964  0002' 1303               	bcf	3,6	;RP1=0, select bank0
  6965  0003' 0D37'              	rlf	___fltol@f1+2,w
  6966  0004' 0D38'              	rlf	___fltol@f1+3,w
  6967  0005' 00B9'              	movwf	??___fltol
  6968  0006' 0839'              	movf	??___fltol,w
  6969  0007' 00BF'              	movwf	___fltol@exp1
  6970  0008' 083F'              	movf	___fltol@exp1,w
  6971  0009' 1D03               	btfss	3,2
  6972  000A' 2800'              	goto	u4811
  6973  000B' 2800'              	goto	u4810
  6974  000C'                    u4811:
  6975  000C' 2800'              	goto	l3276
  6976  000D'                    u4810:
  6977  000D'                    l3272:
  6978  000D' 3000               	movlw	0
  6979  000E' 00B8'              	movwf	?___fltol+3
  6980  000F' 3000               	movlw	0
  6981  0010' 00B7'              	movwf	?___fltol+2
  6982  0011' 3000               	movlw	0
  6983  0012' 00B6'              	movwf	?___fltol+1
  6984  0013' 3000               	movlw	0
  6985  0014' 00B5'              	movwf	?___fltol
  6986  0015' 2800'              	goto	l602
  6987  0016'                    l3276:
  6988  0016' 0835'              	movf	___fltol@f1,w
  6989  0017' 00B9'              	movwf	??___fltol
  6990  0018' 0836'              	movf	___fltol@f1+1,w
  6991  0019' 00BA'              	movwf	??___fltol+1
  6992  001A' 0837'              	movf	___fltol@f1+2,w
  6993  001B' 00BB'              	movwf	??___fltol+2
  6994  001C' 0838'              	movf	___fltol@f1+3,w
  6995  001D' 00BC'              	movwf	??___fltol+3
  6996  001E' 301F               	movlw	31
  6997  001F'                    u4825:
  6998  001F' 1003               	clrc
  6999  0020' 0CBC'              	rrf	??___fltol+3,f
  7000  0021' 0CBB'              	rrf	??___fltol+2,f
  7001  0022' 0CBA'              	rrf	??___fltol+1,f
  7002  0023' 0CB9'              	rrf	??___fltol,f
  7003  0024'                    u4820:
  7004  0024' 3EFF               	addlw	-1
  7005  0025' 1D03               	skipz
  7006  0026' 2800'              	goto	u4825
  7007  0027' 0839'              	movf	??___fltol,w
  7008  0028' 00BD'              	movwf	??___fltol+4
  7009  0029' 083D'              	movf	??___fltol+4,w
  7010  002A' 00BE'              	movwf	___fltol@sign1
  7011  002B'                    l3278:
  7012  002B' 17B7'              	bsf	___fltol@f1+2,7
  7013  002C'                    l3280:
  7014  002C' 30FF               	movlw	255
  7015  002D' 05B5'              	andwf	___fltol@f1,f
  7016  002E' 30FF               	movlw	255
  7017  002F' 05B6'              	andwf	___fltol@f1+1,f
  7018  0030' 30FF               	movlw	255
  7019  0031' 05B7'              	andwf	___fltol@f1+2,f
  7020  0032' 3000               	movlw	0
  7021  0033' 05B8'              	andwf	___fltol@f1+3,f
  7022  0034'                    l3282:
  7023  0034' 3096               	movlw	150
  7024  0035' 02BF'              	subwf	___fltol@exp1,f
  7025  0036'                    l3284:
  7026  0036' 1FBF'              	btfss	___fltol@exp1,7
  7027  0037' 2800'              	goto	u4831
  7028  0038' 2800'              	goto	u4830
  7029  0039'                    u4831:
  7030  0039' 2800'              	goto	l3294
  7031  003A'                    u4830:
  7032  003A'                    l3286:
  7033  003A' 083F'              	movf	___fltol@exp1,w
  7034  003B' 3A80               	xorlw	128
  7035  003C' 3E97               	addlw	151
  7036  003D' 1803               	skipnc
  7037  003E' 2800'              	goto	u4841
  7038  003F' 2800'              	goto	u4840
  7039  0040'                    u4841:
  7040  0040' 2800'              	goto	l3292
  7041  0041'                    u4840:
  7042  0041' 2800'              	goto	l3272
  7043  0042'                    l3292:
  7044  0042' 3001               	movlw	1
  7045  0043'                    u4855:
  7046  0043' 1003               	clrc
  7047  0044' 0CB8'              	rrf	___fltol@f1+3,f
  7048  0045' 0CB7'              	rrf	___fltol@f1+2,f
  7049  0046' 0CB6'              	rrf	___fltol@f1+1,f
  7050  0047' 0CB5'              	rrf	___fltol@f1,f
  7051  0048' 3EFF               	addlw	-1
  7052  0049' 1D03               	skipz
  7053  004A' 2800'              	goto	u4855
  7054  004B' 3001               	movlw	1
  7055  004C' 00B9'              	movwf	??___fltol
  7056  004D' 0839'              	movf	??___fltol,w
  7057  004E' 07BF'              	addwf	___fltol@exp1,f
  7058  004F' 1D03               	btfss	3,2
  7059  0050' 2800'              	goto	u4861
  7060  0051' 2800'              	goto	u4860
  7061  0052'                    u4861:
  7062  0052' 2800'              	goto	l3292
  7063  0053'                    u4860:
  7064  0053' 2800'              	goto	l3302
  7065  0054'                    l3294:
  7066  0054' 3020               	movlw	32
  7067  0055' 023F'              	subwf	___fltol@exp1,w
  7068  0056' 1C03               	skipc
  7069  0057' 2800'              	goto	u4871
  7070  0058' 2800'              	goto	u4870
  7071  0059'                    u4871:
  7072  0059' 2800'              	goto	l609
  7073  005A'                    u4870:
  7074  005A' 2800'              	goto	l3272
  7075  005B'                    l3300:
  7076  005B' 3001               	movlw	1
  7077  005C' 00B9'              	movwf	??___fltol
  7078  005D'                    u4885:
  7079  005D' 1003               	clrc
  7080  005E' 0DB5'              	rlf	___fltol@f1,f
  7081  005F' 0DB6'              	rlf	___fltol@f1+1,f
  7082  0060' 0DB7'              	rlf	___fltol@f1+2,f
  7083  0061' 0DB8'              	rlf	___fltol@f1+3,f
  7084  0062' 0BB9'              	decfsz	??___fltol,f
  7085  0063' 2800'              	goto	u4885
  7086  0064' 3001               	movlw	1
  7087  0065' 02BF'              	subwf	___fltol@exp1,f
  7088  0066'                    l609:
  7089  0066' 083F'              	movf	___fltol@exp1,w
  7090  0067' 1D03               	btfss	3,2
  7091  0068' 2800'              	goto	u4891
  7092  0069' 2800'              	goto	u4890
  7093  006A'                    u4891:
  7094  006A' 2800'              	goto	l3300
  7095  006B'                    u4890:
  7096  006B'                    l3302:
  7097  006B' 083E'              	movf	___fltol@sign1,w
  7098  006C' 1903               	btfsc	3,2
  7099  006D' 2800'              	goto	u4901
  7100  006E' 2800'              	goto	u4900
  7101  006F'                    u4901:
  7102  006F' 2800'              	goto	l612
  7103  0070'                    u4900:
  7104  0070'                    l3304:
  7105  0070' 09B5'              	comf	___fltol@f1,f
  7106  0071' 09B6'              	comf	___fltol@f1+1,f
  7107  0072' 09B7'              	comf	___fltol@f1+2,f
  7108  0073' 09B8'              	comf	___fltol@f1+3,f
  7109  0074' 0AB5'              	incf	___fltol@f1,f
  7110  0075' 1903               	skipnz
  7111  0076' 0AB6'              	incf	___fltol@f1+1,f
  7112  0077' 1903               	skipnz
  7113  0078' 0AB7'              	incf	___fltol@f1+2,f
  7114  0079' 1903               	skipnz
  7115  007A' 0AB8'              	incf	___fltol@f1+3,f
  7116  007B'                    l612:
  7117  007B'                    l602:
  7118  007B' 0008               	return
  7119  007C'                    __end_of___fltol:
  7120                           
  7121                           	psect	text18
  7122  0000'                    __ptext18:	
  7123 ;; *************** function ___flsub *****************
  7124 ;; Defined at:
  7125 ;;		line 242 in file "C:\Program Files\Microchip\xc8\v2.31\pic\sources\c90\common\sprcadd.c"
  7126 ;; Parameters:    Size  Location     Type
  7127 ;;  a               4    0[BANK1 ] long 
  7128 ;;  b               4    4[BANK1 ] long 
  7129 ;; Auto vars:     Size  Location     Type
  7130 ;;		None
  7131 ;; Return value:  Size  Location     Type
  7132 ;;                  4    0[BANK1 ] long 
  7133 ;; Registers used:
  7134 ;;		wreg, status,2, status,0, btemp+1, pclath, cstack
  7135 ;; Tracked objects:
  7136 ;;		On entry : 0/0
  7137 ;;		On exit  : 0/0
  7138 ;;		Unchanged: 0/0
  7139 ;; Data sizes:     COMMON   BANK0   BANK1   BANK3   BANK2
  7140 ;;      Params:         0       0       8       0       0
  7141 ;;      Locals:         0       0       0       0       0
  7142 ;;      Temps:          0       0       0       0       0
  7143 ;;      Totals:         0       0       8       0       0
  7144 ;;Total ram usage:        8 bytes
  7145 ;; Hardware stack levels used:    1
  7146 ;; Hardware stack levels required when called:    2
  7147 ;; This function calls:
  7148 ;;		___fladd
  7149 ;; This function is called by:
  7150 ;;		_sprintf
  7151 ;; This function uses a non-reentrant model
  7152 ;;
  7153                           
  7154                           
  7155                           ;psect for function ___flsub
  7156  0000'                    ___flsub:
  7157  0000'                    l3326:	
  7158                           ;incstack = 0
  7159                           ; Regs used in ___flsub: [wreg+status,2+status,0+btemp+1+pclath+cstack]
  7160                           
  7161  0000' 3080               	movlw	128
  7162  0001' 1683               	bsf	3,5	;RP0=1, select bank1
  7163  0002' 1303               	bcf	3,6	;RP1=0, select bank1
  7164  0003' 0680'              	xorwf	(___flsub@a+3)^(0+128),f
  7165  0004'                    l3328:
  7166  0004' 0800'              	movf	(___flsub@b+3)^(0+128),w
  7167  0005' 1283               	bcf	3,5	;RP0=0, select bank0
  7168  0006' 1303               	bcf	3,6	;RP1=0, select bank0
  7169  0007' 00B9'              	movwf	___fladd@b+3
  7170  0008' 1683               	bsf	3,5	;RP0=1, select bank1
  7171  0009' 1303               	bcf	3,6	;RP1=0, select bank1
  7172  000A' 0800'              	movf	(___flsub@b+2)^(0+128),w
  7173  000B' 1283               	bcf	3,5	;RP0=0, select bank0
  7174  000C' 1303               	bcf	3,6	;RP1=0, select bank0
  7175  000D' 00B8'              	movwf	___fladd@b+2
  7176  000E' 1683               	bsf	3,5	;RP0=1, select bank1
  7177  000F' 1303               	bcf	3,6	;RP1=0, select bank1
  7178  0010' 0800'              	movf	(___flsub@b+1)^(0+128),w
  7179  0011' 1283               	bcf	3,5	;RP0=0, select bank0
  7180  0012' 1303               	bcf	3,6	;RP1=0, select bank0
  7181  0013' 00B7'              	movwf	___fladd@b+1
  7182  0014' 1683               	bsf	3,5	;RP0=1, select bank1
  7183  0015' 1303               	bcf	3,6	;RP1=0, select bank1
  7184  0016' 0800'              	movf	___flsub@b^(0+128),w
  7185  0017' 1283               	bcf	3,5	;RP0=0, select bank0
  7186  0018' 1303               	bcf	3,6	;RP1=0, select bank0
  7187  0019' 00B6'              	movwf	___fladd@b
  7188  001A' 1683               	bsf	3,5	;RP0=1, select bank1
  7189  001B' 1303               	bcf	3,6	;RP1=0, select bank1
  7190  001C' 0800'              	movf	(___flsub@a+3)^(0+128),w
  7191  001D' 1283               	bcf	3,5	;RP0=0, select bank0
  7192  001E' 1303               	bcf	3,6	;RP1=0, select bank0
  7193  001F' 00BD'              	movwf	___fladd@a+3
  7194  0020' 1683               	bsf	3,5	;RP0=1, select bank1
  7195  0021' 1303               	bcf	3,6	;RP1=0, select bank1
  7196  0022' 0800'              	movf	(___flsub@a+2)^(0+128),w
  7197  0023' 1283               	bcf	3,5	;RP0=0, select bank0
  7198  0024' 1303               	bcf	3,6	;RP1=0, select bank0
  7199  0025' 00BC'              	movwf	___fladd@a+2
  7200  0026' 1683               	bsf	3,5	;RP0=1, select bank1
  7201  0027' 1303               	bcf	3,6	;RP1=0, select bank1
  7202  0028' 0800'              	movf	(___flsub@a+1)^(0+128),w
  7203  0029' 1283               	bcf	3,5	;RP0=0, select bank0
  7204  002A' 1303               	bcf	3,6	;RP1=0, select bank0
  7205  002B' 00BB'              	movwf	___fladd@a+1
  7206  002C' 1683               	bsf	3,5	;RP0=1, select bank1
  7207  002D' 1303               	bcf	3,6	;RP1=0, select bank1
  7208  002E' 0800'              	movf	___flsub@a^(0+128),w
  7209  002F' 1283               	bcf	3,5	;RP0=0, select bank0
  7210  0030' 1303               	bcf	3,6	;RP1=0, select bank0
  7211  0031' 00BA'              	movwf	___fladd@a
  7212  0032' 120A' 118A' 2000' 120A' 118A' 	fcall	___fladd
  7213  0037' 1283               	bcf	3,5	;RP0=0, select bank0
  7214  0038' 1303               	bcf	3,6	;RP1=0, select bank0
  7215  0039' 0839'              	movf	?___fladd+3,w
  7216  003A' 1683               	bsf	3,5	;RP0=1, select bank1
  7217  003B' 1303               	bcf	3,6	;RP1=0, select bank1
  7218  003C' 0080'              	movwf	(?___flsub+3)^(0+128)
  7219  003D' 1283               	bcf	3,5	;RP0=0, select bank0
  7220  003E' 1303               	bcf	3,6	;RP1=0, select bank0
  7221  003F' 0838'              	movf	?___fladd+2,w
  7222  0040' 1683               	bsf	3,5	;RP0=1, select bank1
  7223  0041' 1303               	bcf	3,6	;RP1=0, select bank1
  7224  0042' 0080'              	movwf	(?___flsub+2)^(0+128)
  7225  0043' 1283               	bcf	3,5	;RP0=0, select bank0
  7226  0044' 1303               	bcf	3,6	;RP1=0, select bank0
  7227  0045' 0837'              	movf	?___fladd+1,w
  7228  0046' 1683               	bsf	3,5	;RP0=1, select bank1
  7229  0047' 1303               	bcf	3,6	;RP1=0, select bank1
  7230  0048' 0080'              	movwf	(?___flsub+1)^(0+128)
  7231  0049' 1283               	bcf	3,5	;RP0=0, select bank0
  7232  004A' 1303               	bcf	3,6	;RP1=0, select bank0
  7233  004B' 0836'              	movf	?___fladd,w
  7234  004C' 1683               	bsf	3,5	;RP0=1, select bank1
  7235  004D' 1303               	bcf	3,6	;RP1=0, select bank1
  7236  004E' 0080'              	movwf	?___flsub^(0+128)
  7237  004F'                    l772:
  7238  004F' 0008               	return
  7239  0050'                    __end_of___flsub:
  7240                           
  7241                           	psect	text19
  7242  0000'                    __ptext19:	
  7243 ;; *************** function ___fladd *****************
  7244 ;; Defined at:
  7245 ;;		line 10 in file "C:\Program Files\Microchip\xc8\v2.31\pic\sources\c90\common\sprcadd.c"
  7246 ;; Parameters:    Size  Location     Type
  7247 ;;  b               4   54[BANK0 ] long 
  7248 ;;  a               4   58[BANK0 ] long 
  7249 ;; Auto vars:     Size  Location     Type
  7250 ;;  grs             1   73[BANK0 ] unsigned char 
  7251 ;;  bexp            1   72[BANK0 ] unsigned char 
  7252 ;;  aexp            1   71[BANK0 ] unsigned char 
  7253 ;;  signs           1   70[BANK0 ] unsigned char 
  7254 ;; Return value:  Size  Location     Type
  7255 ;;                  4   54[BANK0 ] unsigned char 
  7256 ;; Registers used:
  7257 ;;		wreg, status,2, status,0, btemp+1
  7258 ;; Tracked objects:
  7259 ;;		On entry : 0/0
  7260 ;;		On exit  : 0/0
  7261 ;;		Unchanged: 0/0
  7262 ;; Data sizes:     COMMON   BANK0   BANK1   BANK3   BANK2
  7263 ;;      Params:         0       8       0       0       0
  7264 ;;      Locals:         0       4       0       0       0
  7265 ;;      Temps:          0       8       0       0       0
  7266 ;;      Totals:         0      20       0       0       0
  7267 ;;Total ram usage:       20 bytes
  7268 ;; Hardware stack levels used:    1
  7269 ;; Hardware stack levels required when called:    1
  7270 ;; This function calls:
  7271 ;;		Nothing
  7272 ;; This function is called by:
  7273 ;;		_sprintf
  7274 ;;		___flsub
  7275 ;; This function uses a non-reentrant model
  7276 ;;
  7277                           
  7278                           
  7279                           ;psect for function ___fladd
  7280  0000'                    ___fladd:
  7281  0000'                    l2656:	
  7282                           ;incstack = 0
  7283                           ; Regs used in ___fladd: [wreg+status,2+status,0+btemp+1]
  7284                           
  7285  0000' 1283               	bcf	3,5	;RP0=0, select bank0
  7286  0001' 1303               	bcf	3,6	;RP1=0, select bank0
  7287  0002' 0839'              	movf	___fladd@b+3,w
  7288  0003' 3980               	andlw	128
  7289  0004' 00BE'              	movwf	??___fladd
  7290  0005' 083E'              	movf	??___fladd,w
  7291  0006' 00C6'              	movwf	___fladd@signs
  7292  0007'                    l2658:
  7293  0007' 0839'              	movf	___fladd@b+3,w
  7294  0008' 00BE'              	movwf	??___fladd
  7295  0009' 073E'              	addwf	??___fladd,w
  7296  000A' 00BF'              	movwf	??___fladd+1
  7297  000B' 083F'              	movf	??___fladd+1,w
  7298  000C' 00C8'              	movwf	___fladd@bexp
  7299  000D'                    l2660:
  7300  000D' 1FB8'              	btfss	___fladd@b+2,7
  7301  000E' 2800'              	goto	u3221
  7302  000F' 2800'              	goto	u3220
  7303  0010'                    u3221:
  7304  0010' 2800'              	goto	l2664
  7305  0011'                    u3220:
  7306  0011'                    l2662:
  7307  0011' 1448'              	bsf	___fladd@bexp,0
  7308  0012'                    l2664:
  7309  0012' 0848'              	movf	___fladd@bexp,w
  7310  0013' 1903               	btfsc	3,2
  7311  0014' 2800'              	goto	u3231
  7312  0015' 2800'              	goto	u3230
  7313  0016'                    u3231:
  7314  0016' 2800'              	goto	l2674
  7315  0017'                    u3230:
  7316  0017'                    l2666:
  7317  0017' 0A48'              	incf	___fladd@bexp,w
  7318  0018' 1D03               	btfss	3,2
  7319  0019' 2800'              	goto	u3241
  7320  001A' 2800'              	goto	u3240
  7321  001B'                    u3241:
  7322  001B' 2800'              	goto	l2670
  7323  001C'                    u3240:
  7324  001C'                    l2668:
  7325  001C' 3000               	movlw	0
  7326  001D' 00B9'              	movwf	___fladd@b+3
  7327  001E' 3000               	movlw	0
  7328  001F' 00B8'              	movwf	___fladd@b+2
  7329  0020' 3000               	movlw	0
  7330  0021' 00B7'              	movwf	___fladd@b+1
  7331  0022' 3000               	movlw	0
  7332  0023' 00B6'              	movwf	___fladd@b
  7333  0024'                    l2670:
  7334  0024' 17B8'              	bsf	___fladd@b+2,7
  7335  0025'                    l2672:
  7336  0025' 01B9'              	clrf	___fladd@b+3
  7337  0026' 2800'              	goto	l2676
  7338  0027'                    l2674:
  7339  0027' 3000               	movlw	0
  7340  0028' 00B9'              	movwf	___fladd@b+3
  7341  0029' 3000               	movlw	0
  7342  002A' 00B8'              	movwf	___fladd@b+2
  7343  002B' 3000               	movlw	0
  7344  002C' 00B7'              	movwf	___fladd@b+1
  7345  002D' 3000               	movlw	0
  7346  002E' 00B6'              	movwf	___fladd@b
  7347  002F'                    l2676:
  7348  002F' 083D'              	movf	___fladd@a+3,w
  7349  0030' 3980               	andlw	128
  7350  0031' 00BE'              	movwf	??___fladd
  7351  0032' 083E'              	movf	??___fladd,w
  7352  0033' 00C7'              	movwf	___fladd@aexp
  7353  0034'                    l2678:
  7354  0034' 0847'              	movf	___fladd@aexp,w
  7355  0035' 0646'              	xorwf	___fladd@signs,w
  7356  0036' 1903               	skipnz
  7357  0037' 2800'              	goto	u3251
  7358  0038' 2800'              	goto	u3250
  7359  0039'                    u3251:
  7360  0039' 2800'              	goto	l2682
  7361  003A'                    u3250:
  7362  003A'                    l2680:
  7363  003A' 1746'              	bsf	___fladd@signs,6
  7364  003B'                    l2682:
  7365  003B' 083D'              	movf	___fladd@a+3,w
  7366  003C' 00BE'              	movwf	??___fladd
  7367  003D' 073E'              	addwf	??___fladd,w
  7368  003E' 00BF'              	movwf	??___fladd+1
  7369  003F' 083F'              	movf	??___fladd+1,w
  7370  0040' 00C7'              	movwf	___fladd@aexp
  7371  0041'                    l2684:
  7372  0041' 1FBC'              	btfss	___fladd@a+2,7
  7373  0042' 2800'              	goto	u3261
  7374  0043' 2800'              	goto	u3260
  7375  0044'                    u3261:
  7376  0044' 2800'              	goto	l2688
  7377  0045'                    u3260:
  7378  0045'                    l2686:
  7379  0045' 1447'              	bsf	___fladd@aexp,0
  7380  0046'                    l2688:
  7381  0046' 0847'              	movf	___fladd@aexp,w
  7382  0047' 1903               	btfsc	3,2
  7383  0048' 2800'              	goto	u3271
  7384  0049' 2800'              	goto	u3270
  7385  004A'                    u3271:
  7386  004A' 2800'              	goto	l2698
  7387  004B'                    u3270:
  7388  004B'                    l2690:
  7389  004B' 0A47'              	incf	___fladd@aexp,w
  7390  004C' 1D03               	btfss	3,2
  7391  004D' 2800'              	goto	u3281
  7392  004E' 2800'              	goto	u3280
  7393  004F'                    u3281:
  7394  004F' 2800'              	goto	l2694
  7395  0050'                    u3280:
  7396  0050'                    l2692:
  7397  0050' 3000               	movlw	0
  7398  0051' 00BD'              	movwf	___fladd@a+3
  7399  0052' 3000               	movlw	0
  7400  0053' 00BC'              	movwf	___fladd@a+2
  7401  0054' 3000               	movlw	0
  7402  0055' 00BB'              	movwf	___fladd@a+1
  7403  0056' 3000               	movlw	0
  7404  0057' 00BA'              	movwf	___fladd@a
  7405  0058'                    l2694:
  7406  0058' 17BC'              	bsf	___fladd@a+2,7
  7407  0059'                    l2696:
  7408  0059' 01BD'              	clrf	___fladd@a+3
  7409  005A' 2800'              	goto	l726
  7410  005B'                    l2698:
  7411  005B' 3000               	movlw	0
  7412  005C' 00BD'              	movwf	___fladd@a+3
  7413  005D' 3000               	movlw	0
  7414  005E' 00BC'              	movwf	___fladd@a+2
  7415  005F' 3000               	movlw	0
  7416  0060' 00BB'              	movwf	___fladd@a+1
  7417  0061' 3000               	movlw	0
  7418  0062' 00BA'              	movwf	___fladd@a
  7419  0063'                    l726:
  7420  0063' 0848'              	movf	___fladd@bexp,w
  7421  0064' 0247'              	subwf	___fladd@aexp,w
  7422  0065' 1803               	skipnc
  7423  0066' 2800'              	goto	u3291
  7424  0067' 2800'              	goto	u3290
  7425  0068'                    u3291:
  7426  0068' 2800'              	goto	l2734
  7427  0069'                    u3290:
  7428  0069'                    l2700:
  7429  0069' 1F46'              	btfss	___fladd@signs,6
  7430  006A' 2800'              	goto	u3301
  7431  006B' 2800'              	goto	u3300
  7432  006C'                    u3301:
  7433  006C' 2800'              	goto	l2704
  7434  006D'                    u3300:
  7435  006D'                    l2702:
  7436  006D' 3080               	movlw	128
  7437  006E' 00BE'              	movwf	??___fladd
  7438  006F' 083E'              	movf	??___fladd,w
  7439  0070' 06C6'              	xorwf	___fladd@signs,f
  7440  0071'                    l2704:
  7441  0071' 0848'              	movf	___fladd@bexp,w
  7442  0072' 00BE'              	movwf	??___fladd
  7443  0073' 083E'              	movf	??___fladd,w
  7444  0074' 00C9'              	movwf	___fladd@grs
  7445  0075'                    l2706:
  7446  0075' 0847'              	movf	___fladd@aexp,w
  7447  0076' 00BE'              	movwf	??___fladd
  7448  0077' 083E'              	movf	??___fladd,w
  7449  0078' 00C8'              	movwf	___fladd@bexp
  7450  0079'                    l2708:
  7451  0079' 0849'              	movf	___fladd@grs,w
  7452  007A' 00BE'              	movwf	??___fladd
  7453  007B' 083E'              	movf	??___fladd,w
  7454  007C' 00C7'              	movwf	___fladd@aexp
  7455  007D'                    l2710:
  7456  007D' 0836'              	movf	___fladd@b,w
  7457  007E' 00BE'              	movwf	??___fladd
  7458  007F' 083E'              	movf	??___fladd,w
  7459  0080' 00C9'              	movwf	___fladd@grs
  7460  0081'                    l2712:
  7461  0081' 083A'              	movf	___fladd@a,w
  7462  0082' 00BE'              	movwf	??___fladd
  7463  0083' 083E'              	movf	??___fladd,w
  7464  0084' 00B6'              	movwf	___fladd@b
  7465  0085'                    l2714:
  7466  0085' 0849'              	movf	___fladd@grs,w
  7467  0086' 00BE'              	movwf	??___fladd
  7468  0087' 083E'              	movf	??___fladd,w
  7469  0088' 00BA'              	movwf	___fladd@a
  7470  0089'                    l2716:
  7471  0089' 0837'              	movf	___fladd@b+1,w
  7472  008A' 00BE'              	movwf	??___fladd
  7473  008B' 083E'              	movf	??___fladd,w
  7474  008C' 00C9'              	movwf	___fladd@grs
  7475  008D'                    l2718:
  7476  008D' 083B'              	movf	___fladd@a+1,w
  7477  008E' 00BE'              	movwf	??___fladd
  7478  008F' 083E'              	movf	??___fladd,w
  7479  0090' 00B7'              	movwf	___fladd@b+1
  7480  0091'                    l2720:
  7481  0091' 0849'              	movf	___fladd@grs,w
  7482  0092' 00BE'              	movwf	??___fladd
  7483  0093' 083E'              	movf	??___fladd,w
  7484  0094' 00BB'              	movwf	___fladd@a+1
  7485  0095'                    l2722:
  7486  0095' 0838'              	movf	___fladd@b+2,w
  7487  0096' 00BE'              	movwf	??___fladd
  7488  0097' 083E'              	movf	??___fladd,w
  7489  0098' 00C9'              	movwf	___fladd@grs
  7490  0099'                    l2724:
  7491  0099' 083C'              	movf	___fladd@a+2,w
  7492  009A' 00BE'              	movwf	??___fladd
  7493  009B' 083E'              	movf	??___fladd,w
  7494  009C' 00B8'              	movwf	___fladd@b+2
  7495  009D'                    l2726:
  7496  009D' 0849'              	movf	___fladd@grs,w
  7497  009E' 00BE'              	movwf	??___fladd
  7498  009F' 083E'              	movf	??___fladd,w
  7499  00A0' 00BC'              	movwf	___fladd@a+2
  7500  00A1'                    l2728:
  7501  00A1' 0839'              	movf	___fladd@b+3,w
  7502  00A2' 00BE'              	movwf	??___fladd
  7503  00A3' 083E'              	movf	??___fladd,w
  7504  00A4' 00C9'              	movwf	___fladd@grs
  7505  00A5'                    l2730:
  7506  00A5' 083D'              	movf	___fladd@a+3,w
  7507  00A6' 00BE'              	movwf	??___fladd
  7508  00A7' 083E'              	movf	??___fladd,w
  7509  00A8' 00B9'              	movwf	___fladd@b+3
  7510  00A9'                    l2732:
  7511  00A9' 0849'              	movf	___fladd@grs,w
  7512  00AA' 00BE'              	movwf	??___fladd
  7513  00AB' 083E'              	movf	??___fladd,w
  7514  00AC' 00BD'              	movwf	___fladd@a+3
  7515  00AD'                    l2734:
  7516  00AD' 01C9'              	clrf	___fladd@grs
  7517  00AE'                    l2736:
  7518  00AE' 0847'              	movf	___fladd@aexp,w
  7519  00AF' 00BE'              	movwf	??___fladd
  7520  00B0' 01BF'              	clrf	??___fladd+1
  7521  00B1' 083F'              	movf	??___fladd+1,w
  7522  00B2' 00C1'              	movwf	??___fladd+3
  7523  00B3' 0848'              	movf	___fladd@bexp,w
  7524  00B4' 023E'              	subwf	??___fladd,w
  7525  00B5' 00C0'              	movwf	??___fladd+2
  7526  00B6' 1C03               	skipc
  7527  00B7' 03C1'              	decf	??___fladd+3,f
  7528  00B8' 0841'              	movf	??___fladd+3,w
  7529  00B9' 3A80               	xorlw	128
  7530  00BA' 00FF               	movwf	btemp+1
  7531  00BB' 3080               	movlw	128
  7532  00BC' 027F               	subwf	btemp+1,w
  7533  00BD' 1D03               	skipz
  7534  00BE' 2800'              	goto	u3315
  7535  00BF' 301A               	movlw	26
  7536  00C0' 0240'              	subwf	??___fladd+2,w
  7537  00C1'                    u3315:
  7538  00C1' 1C03               	skipc
  7539  00C2' 2800'              	goto	u3311
  7540  00C3' 2800'              	goto	u3310
  7541  00C4'                    u3311:
  7542  00C4' 2800'              	goto	l2752
  7543  00C5'                    u3310:
  7544  00C5'                    l2738:
  7545  00C5' 1283               	bcf	3,5	;RP0=0, select bank0
  7546  00C6' 1303               	bcf	3,6	;RP1=0, select bank0
  7547  00C7' 0839'              	movf	___fladd@b+3,w
  7548  00C8' 0438'              	iorwf	___fladd@b+2,w
  7549  00C9' 0437'              	iorwf	___fladd@b+1,w
  7550  00CA' 0436'              	iorwf	___fladd@b,w
  7551  00CB' 1D03               	skipz
  7552  00CC' 2800'              	goto	u3321
  7553  00CD' 2800'              	goto	u3320
  7554  00CE'                    u3321:
  7555  00CE' 3001               	movlw	1
  7556  00CF' 2800'              	goto	u3330
  7557  00D0'                    u3320:
  7558  00D0' 3000               	movlw	0
  7559  00D1'                    u3330:
  7560  00D1' 00BE'              	movwf	??___fladd
  7561  00D2' 083E'              	movf	??___fladd,w
  7562  00D3' 00C9'              	movwf	___fladd@grs
  7563  00D4' 3000               	movlw	0
  7564  00D5' 00B9'              	movwf	___fladd@b+3
  7565  00D6' 3000               	movlw	0
  7566  00D7' 00B8'              	movwf	___fladd@b+2
  7567  00D8' 3000               	movlw	0
  7568  00D9' 00B7'              	movwf	___fladd@b+1
  7569  00DA' 3000               	movlw	0
  7570  00DB' 00B6'              	movwf	___fladd@b
  7571  00DC' 0847'              	movf	___fladd@aexp,w
  7572  00DD' 00BE'              	movwf	??___fladd
  7573  00DE' 083E'              	movf	??___fladd,w
  7574  00DF' 00C8'              	movwf	___fladd@bexp
  7575  00E0' 2800'              	goto	l730
  7576  00E1'                    l732:
  7577  00E1' 1C49'              	btfss	___fladd@grs,0
  7578  00E2' 2800'              	goto	u3341
  7579  00E3' 2800'              	goto	u3340
  7580  00E4'                    u3341:
  7581  00E4' 2800'              	goto	l2742
  7582  00E5'                    u3340:
  7583  00E5'                    l2740:
  7584  00E5' 0849'              	movf	___fladd@grs,w
  7585  00E6' 00BE'              	movwf	??___fladd
  7586  00E7' 1003               	clrc
  7587  00E8' 0C3E'              	rrf	??___fladd,w
  7588  00E9' 3801               	iorlw	1
  7589  00EA' 00BF'              	movwf	??___fladd+1
  7590  00EB' 083F'              	movf	??___fladd+1,w
  7591  00EC' 00C9'              	movwf	___fladd@grs
  7592  00ED' 2800'              	goto	l2744
  7593  00EE'                    l2742:
  7594  00EE' 1003               	clrc
  7595  00EF' 0CC9'              	rrf	___fladd@grs,f
  7596  00F0'                    l2744:
  7597  00F0' 1C36'              	btfss	___fladd@b,0
  7598  00F1' 2800'              	goto	u3351
  7599  00F2' 2800'              	goto	u3350
  7600  00F3'                    u3351:
  7601  00F3' 2800'              	goto	l2748
  7602  00F4'                    u3350:
  7603  00F4'                    l2746:
  7604  00F4' 17C9'              	bsf	___fladd@grs,7
  7605  00F5'                    l2748:
  7606  00F5' 3001               	movlw	1
  7607  00F6' 00BE'              	movwf	??___fladd
  7608  00F7'                    u3365:
  7609  00F7' 0D39'              	rlf	___fladd@b+3,w
  7610  00F8' 0CB9'              	rrf	___fladd@b+3,f
  7611  00F9' 0CB8'              	rrf	___fladd@b+2,f
  7612  00FA' 0CB7'              	rrf	___fladd@b+1,f
  7613  00FB' 0CB6'              	rrf	___fladd@b,f
  7614  00FC' 0B80'              	decfsz	??___fladd& (0+127),f
  7615  00FD' 2800'              	goto	u3365
  7616  00FE'                    l2750:
  7617  00FE' 3001               	movlw	1
  7618  00FF' 00BE'              	movwf	??___fladd
  7619  0100' 083E'              	movf	??___fladd,w
  7620  0101' 07C8'              	addwf	___fladd@bexp,f
  7621  0102'                    l2752:
  7622  0102' 1283               	bcf	3,5	;RP0=0, select bank0
  7623  0103' 1303               	bcf	3,6	;RP1=0, select bank0
  7624  0104' 0847'              	movf	___fladd@aexp,w
  7625  0105' 0248'              	subwf	___fladd@bexp,w
  7626  0106' 1C03               	skipc
  7627  0107' 2800'              	goto	u3371
  7628  0108' 2800'              	goto	u3370
  7629  0109'                    u3371:
  7630  0109' 2800'              	goto	l732
  7631  010A'                    u3370:
  7632  010A'                    l730:
  7633  010A' 1B46'              	btfsc	___fladd@signs,6
  7634  010B' 2800'              	goto	u3381
  7635  010C' 2800'              	goto	u3380
  7636  010D'                    u3381:
  7637  010D' 2800'              	goto	l2778
  7638  010E'                    u3380:
  7639  010E'                    l2754:
  7640  010E' 0848'              	movf	___fladd@bexp,w
  7641  010F' 1D03               	btfss	3,2
  7642  0110' 2800'              	goto	u3391
  7643  0111' 2800'              	goto	u3390
  7644  0112'                    u3391:
  7645  0112' 2800'              	goto	l2760
  7646  0113'                    u3390:
  7647  0113'                    l2756:
  7648  0113' 3000               	movlw	0
  7649  0114' 00B9'              	movwf	?___fladd+3
  7650  0115' 3000               	movlw	0
  7651  0116' 00B8'              	movwf	?___fladd+2
  7652  0117' 3000               	movlw	0
  7653  0118' 00B7'              	movwf	?___fladd+1
  7654  0119' 3000               	movlw	0
  7655  011A' 00B6'              	movwf	?___fladd
  7656  011B' 2800'              	goto	l739
  7657  011C'                    l2760:
  7658  011C' 083A'              	movf	___fladd@a,w
  7659  011D' 07B6'              	addwf	___fladd@b,f
  7660  011E' 083B'              	movf	___fladd@a+1,w
  7661  011F' 1103               	clrz
  7662  0120' 1803               	skipnc
  7663  0121' 3E01               	addlw	1
  7664  0122' 1903               	skipnz
  7665  0123' 2800'              	goto	u3401
  7666  0124' 07B7'              	addwf	___fladd@b+1,f
  7667  0125'                    u3401:
  7668  0125' 083C'              	movf	___fladd@a+2,w
  7669  0126' 1103               	clrz
  7670  0127' 1803               	skipnc
  7671  0128' 3E01               	addlw	1
  7672  0129' 1903               	skipnz
  7673  012A' 2800'              	goto	u3402
  7674  012B' 07B8'              	addwf	___fladd@b+2,f
  7675  012C'                    u3402:
  7676  012C' 083D'              	movf	___fladd@a+3,w
  7677  012D' 1103               	clrz
  7678  012E' 1803               	skipnc
  7679  012F' 3E01               	addlw	1
  7680  0130' 1903               	skipnz
  7681  0131' 2800'              	goto	u3403
  7682  0132' 07B9'              	addwf	___fladd@b+3,f
  7683  0133'                    u3403:
  7684  0133'                    l2762:
  7685  0133' 1C39'              	btfss	___fladd@b+3,0
  7686  0134' 2800'              	goto	u3411
  7687  0135' 2800'              	goto	u3410
  7688  0136'                    u3411:
  7689  0136' 2800'              	goto	l2812
  7690  0137'                    u3410:
  7691  0137'                    l2764:
  7692  0137' 1C49'              	btfss	___fladd@grs,0
  7693  0138' 2800'              	goto	u3421
  7694  0139' 2800'              	goto	u3420
  7695  013A'                    u3421:
  7696  013A' 2800'              	goto	l2768
  7697  013B'                    u3420:
  7698  013B'                    l2766:
  7699  013B' 0849'              	movf	___fladd@grs,w
  7700  013C' 00BE'              	movwf	??___fladd
  7701  013D' 1003               	clrc
  7702  013E' 0C3E'              	rrf	??___fladd,w
  7703  013F' 3801               	iorlw	1
  7704  0140' 00BF'              	movwf	??___fladd+1
  7705  0141' 083F'              	movf	??___fladd+1,w
  7706  0142' 00C9'              	movwf	___fladd@grs
  7707  0143' 2800'              	goto	l2770
  7708  0144'                    l2768:
  7709  0144' 1003               	clrc
  7710  0145' 0CC9'              	rrf	___fladd@grs,f
  7711  0146'                    l2770:
  7712  0146' 1C36'              	btfss	___fladd@b,0
  7713  0147' 2800'              	goto	u3431
  7714  0148' 2800'              	goto	u3430
  7715  0149'                    u3431:
  7716  0149' 2800'              	goto	l2774
  7717  014A'                    u3430:
  7718  014A'                    l2772:
  7719  014A' 17C9'              	bsf	___fladd@grs,7
  7720  014B'                    l2774:
  7721  014B' 3001               	movlw	1
  7722  014C' 00BE'              	movwf	??___fladd
  7723  014D'                    u3445:
  7724  014D' 0D39'              	rlf	___fladd@b+3,w
  7725  014E' 0CB9'              	rrf	___fladd@b+3,f
  7726  014F' 0CB8'              	rrf	___fladd@b+2,f
  7727  0150' 0CB7'              	rrf	___fladd@b+1,f
  7728  0151' 0CB6'              	rrf	___fladd@b,f
  7729  0152' 0B80'              	decfsz	??___fladd& (0+127),f
  7730  0153' 2800'              	goto	u3445
  7731  0154'                    l2776:
  7732  0154' 3001               	movlw	1
  7733  0155' 00BE'              	movwf	??___fladd
  7734  0156' 083E'              	movf	??___fladd,w
  7735  0157' 07C8'              	addwf	___fladd@bexp,f
  7736  0158' 2800'              	goto	l2812
  7737  0159'                    l2778:
  7738  0159' 0839'              	movf	___fladd@b+3,w
  7739  015A' 3A80               	xorlw	128
  7740  015B' 00FF               	movwf	btemp+1
  7741  015C' 083D'              	movf	___fladd@a+3,w
  7742  015D' 3A80               	xorlw	128
  7743  015E' 027F               	subwf	btemp+1,w
  7744  015F' 1D03               	skipz
  7745  0160' 2800'              	goto	u3453
  7746  0161' 083C'              	movf	___fladd@a+2,w
  7747  0162' 0238'              	subwf	___fladd@b+2,w
  7748  0163' 1D03               	skipz
  7749  0164' 2800'              	goto	u3453
  7750  0165' 083B'              	movf	___fladd@a+1,w
  7751  0166' 0237'              	subwf	___fladd@b+1,w
  7752  0167' 1D03               	skipz
  7753  0168' 2800'              	goto	u3453
  7754  0169' 083A'              	movf	___fladd@a,w
  7755  016A' 0236'              	subwf	___fladd@b,w
  7756  016B'                    u3453:
  7757  016B' 1803               	skipnc
  7758  016C' 2800'              	goto	u3451
  7759  016D' 2800'              	goto	u3450
  7760  016E'                    u3451:
  7761  016E' 2800'              	goto	l2788
  7762  016F'                    u3450:
  7763  016F'                    l2780:
  7764  016F' 30FF               	movlw	255
  7765  0170' 00BE'              	movwf	??___fladd
  7766  0171' 30FF               	movlw	255
  7767  0172' 00BF'              	movwf	??___fladd+1
  7768  0173' 30FF               	movlw	255
  7769  0174' 00C0'              	movwf	??___fladd+2
  7770  0175' 30FF               	movlw	255
  7771  0176' 00C1'              	movwf	??___fladd+3
  7772  0177' 083A'              	movf	___fladd@a,w
  7773  0178' 00C2'              	movwf	??___fladd+4
  7774  0179' 083B'              	movf	___fladd@a+1,w
  7775  017A' 00C3'              	movwf	??___fladd+5
  7776  017B' 083C'              	movf	___fladd@a+2,w
  7777  017C' 00C4'              	movwf	??___fladd+6
  7778  017D' 083D'              	movf	___fladd@a+3,w
  7779  017E' 00C5'              	movwf	??___fladd+7
  7780  017F' 0836'              	movf	___fladd@b,w
  7781  0180' 02C2'              	subwf	??___fladd+4,f
  7782  0181' 0837'              	movf	___fladd@b+1,w
  7783  0182' 1C03               	skipc
  7784  0183' 0F37'              	incfsz	___fladd@b+1,w
  7785  0184' 2800'              	goto	u3461
  7786  0185' 2800'              	goto	u3462
  7787  0186'                    u3461:
  7788  0186' 02C3'              	subwf	??___fladd+5,f
  7789  0187'                    u3462:
  7790  0187' 0838'              	movf	___fladd@b+2,w
  7791  0188' 1C03               	skipc
  7792  0189' 0F38'              	incfsz	___fladd@b+2,w
  7793  018A' 2800'              	goto	u3463
  7794  018B' 2800'              	goto	u3464
  7795  018C'                    u3463:
  7796  018C' 02C4'              	subwf	??___fladd+6,f
  7797  018D'                    u3464:
  7798  018D' 0839'              	movf	___fladd@b+3,w
  7799  018E' 1C03               	skipc
  7800  018F' 0F39'              	incfsz	___fladd@b+3,w
  7801  0190' 2800'              	goto	u3465
  7802  0191' 2800'              	goto	u3466
  7803  0192'                    u3465:
  7804  0192' 02C5'              	subwf	??___fladd+7,f
  7805  0193'                    u3466:
  7806  0193' 0842'              	movf	??___fladd+4,w
  7807  0194' 07BE'              	addwf	??___fladd,f
  7808  0195' 0843'              	movf	??___fladd+5,w
  7809  0196' 1803               	skipnc
  7810  0197' 0F43'              	incfsz	??___fladd+5,w
  7811  0198' 2800'              	goto	u3470
  7812  0199' 2800'              	goto	u3471
  7813  019A'                    u3470:
  7814  019A' 07BF'              	addwf	??___fladd+1,f
  7815  019B'                    u3471:
  7816  019B' 0844'              	movf	??___fladd+6,w
  7817  019C' 1803               	skipnc
  7818  019D' 0F44'              	incfsz	??___fladd+6,w
  7819  019E' 2800'              	goto	u3472
  7820  019F' 2800'              	goto	u3473
  7821  01A0'                    u3472:
  7822  01A0' 07C0'              	addwf	??___fladd+2,f
  7823  01A1'                    u3473:
  7824  01A1' 0845'              	movf	??___fladd+7,w
  7825  01A2' 1803               	skipnc
  7826  01A3' 0A45'              	incf	??___fladd+7,w
  7827  01A4' 07C1'              	addwf	??___fladd+3,f
  7828  01A5' 0841'              	movf	??___fladd+3,w
  7829  01A6' 00B9'              	movwf	___fladd@b+3
  7830  01A7' 0840'              	movf	??___fladd+2,w
  7831  01A8' 00B8'              	movwf	___fladd@b+2
  7832  01A9' 083F'              	movf	??___fladd+1,w
  7833  01AA' 00B7'              	movwf	___fladd@b+1
  7834  01AB' 083E'              	movf	??___fladd,w
  7835  01AC' 00B6'              	movwf	___fladd@b
  7836  01AD'                    l2782:
  7837  01AD' 3080               	movlw	128
  7838  01AE' 00BE'              	movwf	??___fladd
  7839  01AF' 083E'              	movf	??___fladd,w
  7840  01B0' 06C6'              	xorwf	___fladd@signs,f
  7841  01B1' 09C9'              	comf	___fladd@grs,f
  7842  01B2' 0AC9'              	incf	___fladd@grs,f
  7843  01B3'                    l2784:
  7844  01B3' 0849'              	movf	___fladd@grs,w
  7845  01B4' 1D03               	btfss	3,2
  7846  01B5' 2800'              	goto	u3481
  7847  01B6' 2800'              	goto	u3480
  7848  01B7'                    u3481:
  7849  01B7' 2800'              	goto	l747
  7850  01B8'                    u3480:
  7851  01B8'                    l2786:
  7852  01B8' 3001               	movlw	1
  7853  01B9' 07B6'              	addwf	___fladd@b,f
  7854  01BA' 3000               	movlw	0
  7855  01BB' 1803               	skipnc
  7856  01BC' 3001               	movlw	1
  7857  01BD' 07B7'              	addwf	___fladd@b+1,f
  7858  01BE' 3000               	movlw	0
  7859  01BF' 1803               	skipnc
  7860  01C0' 3001               	movlw	1
  7861  01C1' 07B8'              	addwf	___fladd@b+2,f
  7862  01C2' 3000               	movlw	0
  7863  01C3' 1803               	skipnc
  7864  01C4' 3001               	movlw	1
  7865  01C5' 07B9'              	addwf	___fladd@b+3,f
  7866  01C6' 2800'              	goto	l747
  7867  01C7'                    l2788:
  7868  01C7' 083A'              	movf	___fladd@a,w
  7869  01C8' 02B6'              	subwf	___fladd@b,f
  7870  01C9' 083B'              	movf	___fladd@a+1,w
  7871  01CA' 1C03               	skipc
  7872  01CB' 0F3B'              	incfsz	___fladd@a+1,w
  7873  01CC' 02B7'              	subwf	___fladd@b+1,f
  7874  01CD' 083C'              	movf	___fladd@a+2,w
  7875  01CE' 1C03               	skipc
  7876  01CF' 0F3C'              	incfsz	___fladd@a+2,w
  7877  01D0' 02B8'              	subwf	___fladd@b+2,f
  7878  01D1' 083D'              	movf	___fladd@a+3,w
  7879  01D2' 1C03               	skipc
  7880  01D3' 0F3D'              	incfsz	___fladd@a+3,w
  7881  01D4' 02B9'              	subwf	___fladd@b+3,f
  7882  01D5'                    l747:
  7883  01D5' 0839'              	movf	___fladd@b+3,w
  7884  01D6' 0438'              	iorwf	___fladd@b+2,w
  7885  01D7' 0437'              	iorwf	___fladd@b+1,w
  7886  01D8' 0436'              	iorwf	___fladd@b,w
  7887  01D9' 1D03               	skipz
  7888  01DA' 2800'              	goto	u3491
  7889  01DB' 2800'              	goto	u3490
  7890  01DC'                    u3491:
  7891  01DC' 2800'              	goto	l2810
  7892  01DD'                    u3490:
  7893  01DD'                    l2790:
  7894  01DD' 0849'              	movf	___fladd@grs,w
  7895  01DE' 1D03               	btfss	3,2
  7896  01DF' 2800'              	goto	u3501
  7897  01E0' 2800'              	goto	u3500
  7898  01E1'                    u3501:
  7899  01E1' 2800'              	goto	l2810
  7900  01E2'                    u3500:
  7901  01E2'                    l2792:
  7902  01E2' 3000               	movlw	0
  7903  01E3' 00B9'              	movwf	?___fladd+3
  7904  01E4' 3000               	movlw	0
  7905  01E5' 00B8'              	movwf	?___fladd+2
  7906  01E6' 3000               	movlw	0
  7907  01E7' 00B7'              	movwf	?___fladd+1
  7908  01E8' 3000               	movlw	0
  7909  01E9' 00B6'              	movwf	?___fladd
  7910  01EA' 2800'              	goto	l739
  7911  01EB'                    l2796:
  7912  01EB' 3001               	movlw	1
  7913  01EC' 00BE'              	movwf	??___fladd
  7914  01ED'                    u3515:
  7915  01ED' 1003               	clrc
  7916  01EE' 0DB6'              	rlf	___fladd@b,f
  7917  01EF' 0DB7'              	rlf	___fladd@b+1,f
  7918  01F0' 0DB8'              	rlf	___fladd@b+2,f
  7919  01F1' 0DB9'              	rlf	___fladd@b+3,f
  7920  01F2' 0BBE'              	decfsz	??___fladd,f
  7921  01F3' 2800'              	goto	u3515
  7922  01F4'                    l2798:
  7923  01F4' 1FC9'              	btfss	___fladd@grs,7
  7924  01F5' 2800'              	goto	u3521
  7925  01F6' 2800'              	goto	u3520
  7926  01F7'                    u3521:
  7927  01F7' 2800'              	goto	l751
  7928  01F8'                    u3520:
  7929  01F8'                    l2800:
  7930  01F8' 1436'              	bsf	___fladd@b,0
  7931  01F9'                    l751:
  7932  01F9' 1C49'              	btfss	___fladd@grs,0
  7933  01FA' 2800'              	goto	u3531
  7934  01FB' 2800'              	goto	u3530
  7935  01FC'                    u3531:
  7936  01FC' 2800'              	goto	l2804
  7937  01FD'                    u3530:
  7938  01FD'                    l2802:
  7939  01FD' 1403               	setc
  7940  01FE' 0DC9'              	rlf	___fladd@grs,f
  7941  01FF' 2800'              	goto	l2806
  7942  0200'                    l2804:
  7943  0200' 1003               	clrc
  7944  0201' 0DC9'              	rlf	___fladd@grs,f
  7945  0202'                    l2806:
  7946  0202' 0848'              	movf	___fladd@bexp,w
  7947  0203' 1903               	btfsc	3,2
  7948  0204' 2800'              	goto	u3541
  7949  0205' 2800'              	goto	u3540
  7950  0206'                    u3541:
  7951  0206' 2800'              	goto	l2810
  7952  0207'                    u3540:
  7953  0207'                    l2808:
  7954  0207' 3001               	movlw	1
  7955  0208' 02C8'              	subwf	___fladd@bexp,f
  7956  0209'                    l2810:
  7957  0209' 1FB8'              	btfss	___fladd@b+2,7
  7958  020A' 2800'              	goto	u3551
  7959  020B' 2800'              	goto	u3550
  7960  020C'                    u3551:
  7961  020C' 2800'              	goto	l2796
  7962  020D'                    u3550:
  7963  020D'                    l2812:
  7964  020D' 01C7'              	clrf	___fladd@aexp
  7965  020E'                    l2814:
  7966  020E' 1FC9'              	btfss	___fladd@grs,7
  7967  020F' 2800'              	goto	u3561
  7968  0210' 2800'              	goto	u3560
  7969  0211'                    u3561:
  7970  0211' 2800'              	goto	l2822
  7971  0212'                    u3560:
  7972  0212'                    l2816:
  7973  0212' 0849'              	movf	___fladd@grs,w
  7974  0213' 397F               	andlw	127
  7975  0214' 1903               	btfsc	3,2
  7976  0215' 2800'              	goto	u3571
  7977  0216' 2800'              	goto	u3570
  7978  0217'                    u3571:
  7979  0217' 2800'              	goto	l757
  7980  0218'                    u3570:
  7981  0218'                    l2818:
  7982  0218' 01C7'              	clrf	___fladd@aexp
  7983  0219' 0AC7'              	incf	___fladd@aexp,f
  7984  021A' 2800'              	goto	l2822
  7985  021B'                    l757:
  7986  021B' 1C36'              	btfss	___fladd@b,0
  7987  021C' 2800'              	goto	u3581
  7988  021D' 2800'              	goto	u3580
  7989  021E'                    u3581:
  7990  021E' 2800'              	goto	l2822
  7991  021F'                    u3580:
  7992  021F' 2800'              	goto	l2818
  7993  0220'                    l2822:
  7994  0220' 0847'              	movf	___fladd@aexp,w
  7995  0221' 1903               	btfsc	3,2
  7996  0222' 2800'              	goto	u3591
  7997  0223' 2800'              	goto	u3590
  7998  0224'                    u3591:
  7999  0224' 2800'              	goto	l760
  8000  0225'                    u3590:
  8001  0225'                    l2824:
  8002  0225' 3001               	movlw	1
  8003  0226' 07B6'              	addwf	___fladd@b,f
  8004  0227' 3000               	movlw	0
  8005  0228' 1803               	skipnc
  8006  0229' 3001               	movlw	1
  8007  022A' 07B7'              	addwf	___fladd@b+1,f
  8008  022B' 3000               	movlw	0
  8009  022C' 1803               	skipnc
  8010  022D' 3001               	movlw	1
  8011  022E' 07B8'              	addwf	___fladd@b+2,f
  8012  022F' 3000               	movlw	0
  8013  0230' 1803               	skipnc
  8014  0231' 3001               	movlw	1
  8015  0232' 07B9'              	addwf	___fladd@b+3,f
  8016  0233'                    l2826:
  8017  0233' 1C39'              	btfss	___fladd@b+3,0
  8018  0234' 2800'              	goto	u3601
  8019  0235' 2800'              	goto	u3600
  8020  0236'                    u3601:
  8021  0236' 2800'              	goto	l760
  8022  0237'                    u3600:
  8023  0237'                    l2828:
  8024  0237' 0836'              	movf	___fladd@b,w
  8025  0238' 00BE'              	movwf	??___fladd
  8026  0239' 0837'              	movf	___fladd@b+1,w
  8027  023A' 00BF'              	movwf	??___fladd+1
  8028  023B' 0838'              	movf	___fladd@b+2,w
  8029  023C' 00C0'              	movwf	??___fladd+2
  8030  023D' 0839'              	movf	___fladd@b+3,w
  8031  023E' 00C1'              	movwf	??___fladd+3
  8032  023F' 3001               	movlw	1
  8033  0240' 00C2'              	movwf	??___fladd+4
  8034  0241'                    u3615:
  8035  0241' 0D41'              	rlf	??___fladd+3,w
  8036  0242' 0CC1'              	rrf	??___fladd+3,f
  8037  0243' 0CC0'              	rrf	??___fladd+2,f
  8038  0244' 0CBF'              	rrf	??___fladd+1,f
  8039  0245' 0CBE'              	rrf	??___fladd,f
  8040  0246'                    u3610:
  8041  0246' 0BC2'              	decfsz	??___fladd+4,f
  8042  0247' 2800'              	goto	u3615
  8043  0248' 0841'              	movf	??___fladd+3,w
  8044  0249' 00B9'              	movwf	___fladd@b+3
  8045  024A' 0840'              	movf	??___fladd+2,w
  8046  024B' 00B8'              	movwf	___fladd@b+2
  8047  024C' 083F'              	movf	??___fladd+1,w
  8048  024D' 00B7'              	movwf	___fladd@b+1
  8049  024E' 083E'              	movf	??___fladd,w
  8050  024F' 00B6'              	movwf	___fladd@b
  8051  0250' 0A48'              	incf	___fladd@bexp,w
  8052  0251' 1903               	btfsc	3,2
  8053  0252' 2800'              	goto	u3621
  8054  0253' 2800'              	goto	u3620
  8055  0254'                    u3621:
  8056  0254' 2800'              	goto	l760
  8057  0255'                    u3620:
  8058  0255'                    l2830:
  8059  0255' 3001               	movlw	1
  8060  0256' 00BE'              	movwf	??___fladd
  8061  0257' 083E'              	movf	??___fladd,w
  8062  0258' 07C8'              	addwf	___fladd@bexp,f
  8063  0259'                    l760:
  8064  0259' 0A48'              	incf	___fladd@bexp,w
  8065  025A' 1903               	btfsc	3,2
  8066  025B' 2800'              	goto	u3631
  8067  025C' 2800'              	goto	u3630
  8068  025D'                    u3631:
  8069  025D' 2800'              	goto	l2834
  8070  025E'                    u3630:
  8071  025E'                    l2832:
  8072  025E' 0848'              	movf	___fladd@bexp,w
  8073  025F' 1D03               	btfss	3,2
  8074  0260' 2800'              	goto	u3641
  8075  0261' 2800'              	goto	u3640
  8076  0262'                    u3641:
  8077  0262' 2800'              	goto	l2840
  8078  0263'                    u3640:
  8079  0263'                    l2834:
  8080  0263' 3000               	movlw	0
  8081  0264' 00B9'              	movwf	___fladd@b+3
  8082  0265' 3000               	movlw	0
  8083  0266' 00B8'              	movwf	___fladd@b+2
  8084  0267' 3000               	movlw	0
  8085  0268' 00B7'              	movwf	___fladd@b+1
  8086  0269' 3000               	movlw	0
  8087  026A' 00B6'              	movwf	___fladd@b
  8088  026B'                    l2836:
  8089  026B' 0848'              	movf	___fladd@bexp,w
  8090  026C' 1D03               	btfss	3,2
  8091  026D' 2800'              	goto	u3651
  8092  026E' 2800'              	goto	u3650
  8093  026F'                    u3651:
  8094  026F' 2800'              	goto	l2840
  8095  0270'                    u3650:
  8096  0270'                    l2838:
  8097  0270' 01C6'              	clrf	___fladd@signs
  8098  0271'                    l2840:
  8099  0271' 1C48'              	btfss	___fladd@bexp,0
  8100  0272' 2800'              	goto	u3661
  8101  0273' 2800'              	goto	u3660
  8102  0274'                    u3661:
  8103  0274' 2800'              	goto	l2844
  8104  0275'                    u3660:
  8105  0275'                    l2842:
  8106  0275' 17B8'              	bsf	___fladd@b+2,7
  8107  0276' 2800'              	goto	l768
  8108  0277'                    l2844:
  8109  0277' 307F               	movlw	127
  8110  0278' 00BE'              	movwf	??___fladd
  8111  0279' 083E'              	movf	??___fladd,w
  8112  027A' 05B8'              	andwf	___fladd@b+2,f
  8113  027B'                    l768:
  8114  027B' 0848'              	movf	___fladd@bexp,w
  8115  027C' 00BE'              	movwf	??___fladd
  8116  027D' 1003               	clrc
  8117  027E' 0C3E'              	rrf	??___fladd,w
  8118  027F' 00BF'              	movwf	??___fladd+1
  8119  0280' 083F'              	movf	??___fladd+1,w
  8120  0281' 00B9'              	movwf	___fladd@b+3
  8121  0282'                    l2846:
  8122  0282' 1FC6'              	btfss	___fladd@signs,7
  8123  0283' 2800'              	goto	u3671
  8124  0284' 2800'              	goto	u3670
  8125  0285'                    u3671:
  8126  0285' 2800'              	goto	l769
  8127  0286'                    u3670:
  8128  0286'                    l2848:
  8129  0286' 17B9'              	bsf	___fladd@b+3,7
  8130  0287'                    l769:
  8131  0287'                    l739:
  8132  0287' 0008               	return
  8133  0288'                    __end_of___fladd:
  8134                           
  8135                           	psect	text20
  8136  0000'                    __ptext20:	
  8137 ;; *************** function ___flneg *****************
  8138 ;; Defined at:
  8139 ;;		line 15 in file "C:\Program Files\Microchip\xc8\v2.31\pic\sources\c90\common\flneg.c"
  8140 ;; Parameters:    Size  Location     Type
  8141 ;;  f1              4    2[COMMON] unsigned char 
  8142 ;; Auto vars:     Size  Location     Type
  8143 ;;		None
  8144 ;; Return value:  Size  Location     Type
  8145 ;;                  4    2[COMMON] unsigned char 
  8146 ;; Registers used:
  8147 ;;		wreg
  8148 ;; Tracked objects:
  8149 ;;		On entry : 0/0
  8150 ;;		On exit  : 0/0
  8151 ;;		Unchanged: 0/0
  8152 ;; Data sizes:     COMMON   BANK0   BANK1   BANK3   BANK2
  8153 ;;      Params:         4       0       0       0       0
  8154 ;;      Locals:         0       0       0       0       0
  8155 ;;      Temps:          0       0       0       0       0
  8156 ;;      Totals:         4       0       0       0       0
  8157 ;;Total ram usage:        4 bytes
  8158 ;; Hardware stack levels used:    1
  8159 ;; Hardware stack levels required when called:    1
  8160 ;; This function calls:
  8161 ;;		Nothing
  8162 ;; This function is called by:
  8163 ;;		_sprintf
  8164 ;; This function uses a non-reentrant model
  8165 ;;
  8166                           
  8167                           
  8168                           ;psect for function ___flneg
  8169  0000'                    ___flneg:
  8170  0000'                    l3262:	
  8171                           ;incstack = 0
  8172                           ; Regs used in ___flneg: [wreg]
  8173                           
  8174  0000' 0805'              	movf	___flneg@f1+3,w
  8175  0001' 0404'              	iorwf	___flneg@f1+2,w
  8176  0002' 0403'              	iorwf	___flneg@f1+1,w
  8177  0003' 0402'              	iorwf	___flneg@f1,w
  8178  0004' 1903               	skipnz
  8179  0005' 2800'              	goto	u4801
  8180  0006' 2800'              	goto	u4800
  8181  0007'                    u4801:
  8182  0007' 2800'              	goto	l3266
  8183  0008'                    u4800:
  8184  0008'                    l3264:
  8185  0008' 3080               	movlw	128
  8186  0009' 0685'              	xorwf	___flneg@f1+3,f
  8187  000A'                    l3266:
  8188  000A'                    l598:
  8189  000A' 0008               	return
  8190  000B'                    __end_of___flneg:
  8191                           
  8192                           	psect	text21
  8193  0000'                    __ptext21:	
  8194 ;; *************** function ___flge *****************
  8195 ;; Defined at:
  8196 ;;		line 4 in file "C:\Program Files\Microchip\xc8\v2.31\pic\sources\c90\common\flge.c"
  8197 ;; Parameters:    Size  Location     Type
  8198 ;;  ff1             4    2[COMMON] unsigned char 
  8199 ;;  ff2             4    6[COMMON] unsigned char 
  8200 ;; Auto vars:     Size  Location     Type
  8201 ;;		None
  8202 ;; Return value:  Size  Location     Type
  8203 ;;		None               void
  8204 ;; Registers used:
  8205 ;;		wreg, status,2, status,0
  8206 ;; Tracked objects:
  8207 ;;		On entry : 0/0
  8208 ;;		On exit  : 0/0
  8209 ;;		Unchanged: 0/0
  8210 ;; Data sizes:     COMMON   BANK0   BANK1   BANK3   BANK2
  8211 ;;      Params:         8       0       0       0       0
  8212 ;;      Locals:         0       0       0       0       0
  8213 ;;      Temps:          0       4       0       0       0
  8214 ;;      Totals:         8       4       0       0       0
  8215 ;;Total ram usage:       12 bytes
  8216 ;; Hardware stack levels used:    1
  8217 ;; Hardware stack levels required when called:    1
  8218 ;; This function calls:
  8219 ;;		Nothing
  8220 ;; This function is called by:
  8221 ;;		_sprintf
  8222 ;; This function uses a non-reentrant model
  8223 ;;
  8224                           
  8225                           
  8226                           ;psect for function ___flge
  8227  0000'                    ___flge:
  8228  0000'                    l3242:	
  8229                           ;incstack = 0
  8230                           ; Regs used in ___flge: [wreg+status,2+status,0]
  8231                           
  8232  0000' 3000               	movlw	0
  8233  0001' 0502'              	andwf	___flge@ff1,w
  8234  0002' 1283               	bcf	3,5	;RP0=0, select bank0
  8235  0003' 1303               	bcf	3,6	;RP1=0, select bank0
  8236  0004' 0080'              	movwf	??___flge
  8237  0005' 3000               	movlw	0
  8238  0006' 0503'              	andwf	___flge@ff1+1,w
  8239  0007' 0081'              	movwf	??___flge+1
  8240  0008' 3080               	movlw	128
  8241  0009' 0504'              	andwf	___flge@ff1+2,w
  8242  000A' 0082'              	movwf	??___flge+2
  8243  000B' 307F               	movlw	127
  8244  000C' 0505'              	andwf	___flge@ff1+3,w
  8245  000D' 0083'              	movwf	??___flge+3
  8246  000E' 0803'              	movf	??___flge+3,w
  8247  000F' 0402'              	iorwf	??___flge+2,w
  8248  0010' 0401'              	iorwf	??___flge+1,w
  8249  0011' 0400'              	iorwf	??___flge,w
  8250  0012' 1D03               	skipz
  8251  0013' 2800'              	goto	u4731
  8252  0014' 2800'              	goto	u4730
  8253  0015'                    u4731:
  8254  0015' 2800'              	goto	l590
  8255  0016'                    u4730:
  8256  0016'                    l3244:
  8257  0016' 3000               	movlw	0
  8258  0017' 0085'              	movwf	___flge@ff1+3
  8259  0018' 3000               	movlw	0
  8260  0019' 0084'              	movwf	___flge@ff1+2
  8261  001A' 3000               	movlw	0
  8262  001B' 0083'              	movwf	___flge@ff1+1
  8263  001C' 3000               	movlw	0
  8264  001D' 0082'              	movwf	___flge@ff1
  8265  001E'                    l590:
  8266  001E' 3000               	movlw	0
  8267  001F' 0506'              	andwf	___flge@ff2,w
  8268  0020' 0080'              	movwf	??___flge
  8269  0021' 3000               	movlw	0
  8270  0022' 0507'              	andwf	___flge@ff2+1,w
  8271  0023' 0081'              	movwf	??___flge+1
  8272  0024' 3080               	movlw	128
  8273  0025' 0508'              	andwf	___flge@ff2+2,w
  8274  0026' 0082'              	movwf	??___flge+2
  8275  0027' 307F               	movlw	127
  8276  0028' 0509'              	andwf	___flge@ff2+3,w
  8277  0029' 0083'              	movwf	??___flge+3
  8278  002A' 0803'              	movf	??___flge+3,w
  8279  002B' 0402'              	iorwf	??___flge+2,w
  8280  002C' 0401'              	iorwf	??___flge+1,w
  8281  002D' 0400'              	iorwf	??___flge,w
  8282  002E' 1D03               	skipz
  8283  002F' 2800'              	goto	u4741
  8284  0030' 2800'              	goto	u4740
  8285  0031'                    u4741:
  8286  0031' 2800'              	goto	l3248
  8287  0032'                    u4740:
  8288  0032'                    l3246:
  8289  0032' 3000               	movlw	0
  8290  0033' 0089'              	movwf	___flge@ff2+3
  8291  0034' 3000               	movlw	0
  8292  0035' 0088'              	movwf	___flge@ff2+2
  8293  0036' 3000               	movlw	0
  8294  0037' 0087'              	movwf	___flge@ff2+1
  8295  0038' 3000               	movlw	0
  8296  0039' 0086'              	movwf	___flge@ff2
  8297  003A'                    l3248:
  8298  003A' 1F85'              	btfss	___flge@ff1+3,7
  8299  003B' 2800'              	goto	u4751
  8300  003C' 2800'              	goto	u4750
  8301  003D'                    u4751:
  8302  003D' 2800'              	goto	l3252
  8303  003E'                    u4750:
  8304  003E'                    l3250:
  8305  003E' 3000               	movlw	0
  8306  003F' 0080'              	movwf	??___flge
  8307  0040' 3000               	movlw	0
  8308  0041' 0081'              	movwf	??___flge+1
  8309  0042' 3000               	movlw	0
  8310  0043' 0082'              	movwf	??___flge+2
  8311  0044' 3080               	movlw	128
  8312  0045' 0083'              	movwf	??___flge+3
  8313  0046' 0802'              	movf	___flge@ff1,w
  8314  0047' 0280'              	subwf	??___flge,f
  8315  0048' 0803'              	movf	___flge@ff1+1,w
  8316  0049' 1C03               	skipc
  8317  004A' 0F03'              	incfsz	___flge@ff1+1,w
  8318  004B' 2800'              	goto	u4761
  8319  004C' 2800'              	goto	u4762
  8320  004D'                    u4761:
  8321  004D' 0281'              	subwf	??___flge+1,f
  8322  004E'                    u4762:
  8323  004E' 0804'              	movf	___flge@ff1+2,w
  8324  004F' 1C03               	skipc
  8325  0050' 0F04'              	incfsz	___flge@ff1+2,w
  8326  0051' 2800'              	goto	u4763
  8327  0052' 2800'              	goto	u4764
  8328  0053'                    u4763:
  8329  0053' 0282'              	subwf	??___flge+2,f
  8330  0054'                    u4764:
  8331  0054' 0805'              	movf	___flge@ff1+3,w
  8332  0055' 1C03               	skipc
  8333  0056' 0F05'              	incfsz	___flge@ff1+3,w
  8334  0057' 2800'              	goto	u4765
  8335  0058' 2800'              	goto	u4766
  8336  0059'                    u4765:
  8337  0059' 0283'              	subwf	??___flge+3,f
  8338  005A'                    u4766:
  8339  005A' 0803'              	movf	??___flge+3,w
  8340  005B' 0085'              	movwf	___flge@ff1+3
  8341  005C' 0802'              	movf	??___flge+2,w
  8342  005D' 0084'              	movwf	___flge@ff1+2
  8343  005E' 0801'              	movf	??___flge+1,w
  8344  005F' 0083'              	movwf	___flge@ff1+1
  8345  0060' 0800'              	movf	??___flge,w
  8346  0061' 0082'              	movwf	___flge@ff1
  8347  0062'                    l3252:
  8348  0062' 1F89'              	btfss	___flge@ff2+3,7
  8349  0063' 2800'              	goto	u4771
  8350  0064' 2800'              	goto	u4770
  8351  0065'                    u4771:
  8352  0065' 2800'              	goto	l593
  8353  0066'                    u4770:
  8354  0066'                    l3254:
  8355  0066' 3000               	movlw	0
  8356  0067' 0080'              	movwf	??___flge
  8357  0068' 3000               	movlw	0
  8358  0069' 0081'              	movwf	??___flge+1
  8359  006A' 3000               	movlw	0
  8360  006B' 0082'              	movwf	??___flge+2
  8361  006C' 3080               	movlw	128
  8362  006D' 0083'              	movwf	??___flge+3
  8363  006E' 0806'              	movf	___flge@ff2,w
  8364  006F' 0280'              	subwf	??___flge,f
  8365  0070' 0807'              	movf	___flge@ff2+1,w
  8366  0071' 1C03               	skipc
  8367  0072' 0F07'              	incfsz	___flge@ff2+1,w
  8368  0073' 2800'              	goto	u4781
  8369  0074' 2800'              	goto	u4782
  8370  0075'                    u4781:
  8371  0075' 0281'              	subwf	??___flge+1,f
  8372  0076'                    u4782:
  8373  0076' 0808'              	movf	___flge@ff2+2,w
  8374  0077' 1C03               	skipc
  8375  0078' 0F08'              	incfsz	___flge@ff2+2,w
  8376  0079' 2800'              	goto	u4783
  8377  007A' 2800'              	goto	u4784
  8378  007B'                    u4783:
  8379  007B' 0282'              	subwf	??___flge+2,f
  8380  007C'                    u4784:
  8381  007C' 0809'              	movf	___flge@ff2+3,w
  8382  007D' 1C03               	skipc
  8383  007E' 0F09'              	incfsz	___flge@ff2+3,w
  8384  007F' 2800'              	goto	u4785
  8385  0080' 2800'              	goto	u4786
  8386  0081'                    u4785:
  8387  0081' 0283'              	subwf	??___flge+3,f
  8388  0082'                    u4786:
  8389  0082' 0803'              	movf	??___flge+3,w
  8390  0083' 0089'              	movwf	___flge@ff2+3
  8391  0084' 0802'              	movf	??___flge+2,w
  8392  0085' 0088'              	movwf	___flge@ff2+2
  8393  0086' 0801'              	movf	??___flge+1,w
  8394  0087' 0087'              	movwf	___flge@ff2+1
  8395  0088' 0800'              	movf	??___flge,w
  8396  0089' 0086'              	movwf	___flge@ff2
  8397  008A'                    l593:
  8398  008A' 3080               	movlw	128
  8399  008B' 0685'              	xorwf	___flge@ff1+3,f
  8400  008C' 3080               	movlw	128
  8401  008D' 0689'              	xorwf	___flge@ff2+3,f
  8402  008E' 0809'              	movf	___flge@ff2+3,w
  8403  008F' 0205'              	subwf	___flge@ff1+3,w
  8404  0090' 1D03               	skipz
  8405  0091' 2800'              	goto	u4795
  8406  0092' 0808'              	movf	___flge@ff2+2,w
  8407  0093' 0204'              	subwf	___flge@ff1+2,w
  8408  0094' 1D03               	skipz
  8409  0095' 2800'              	goto	u4795
  8410  0096' 0807'              	movf	___flge@ff2+1,w
  8411  0097' 0203'              	subwf	___flge@ff1+1,w
  8412  0098' 1D03               	skipz
  8413  0099' 2800'              	goto	u4795
  8414  009A' 0806'              	movf	___flge@ff2,w
  8415  009B' 0202'              	subwf	___flge@ff1,w
  8416  009C'                    u4795:
  8417  009C' 1803               	skipnc
  8418  009D' 2800'              	goto	u4791
  8419  009E' 2800'              	goto	u4790
  8420  009F'                    u4791:
  8421  009F' 2800'              	goto	l3258
  8422  00A0'                    u4790:
  8423  00A0'                    l3256:
  8424  00A0' 1003               	clrc
  8425  00A1' 2800'              	goto	l594
  8426  00A2'                    l3258:
  8427  00A2' 1403               	setc
  8428  00A3'                    l594:
  8429  00A3' 0008               	return
  8430  00A4'                    __end_of___flge:
  8431                           
  8432                           	psect	text22
  8433  0000'                    __ptext22:	
  8434 ;; *************** function ___fleq *****************
  8435 ;; Defined at:
  8436 ;;		line 4 in file "C:\Program Files\Microchip\xc8\v2.31\pic\sources\c90\common\fleq.c"
  8437 ;; Parameters:    Size  Location     Type
  8438 ;;  ff1             4    2[COMMON] unsigned char 
  8439 ;;  ff2             4    6[COMMON] unsigned char 
  8440 ;; Auto vars:     Size  Location     Type
  8441 ;;		None
  8442 ;; Return value:  Size  Location     Type
  8443 ;;		None               void
  8444 ;; Registers used:
  8445 ;;		wreg, status,2, status,0
  8446 ;; Tracked objects:
  8447 ;;		On entry : 0/0
  8448 ;;		On exit  : 0/0
  8449 ;;		Unchanged: 0/0
  8450 ;; Data sizes:     COMMON   BANK0   BANK1   BANK3   BANK2
  8451 ;;      Params:         8       0       0       0       0
  8452 ;;      Locals:         0       0       0       0       0
  8453 ;;      Temps:          0       4       0       0       0
  8454 ;;      Totals:         8       4       0       0       0
  8455 ;;Total ram usage:       12 bytes
  8456 ;; Hardware stack levels used:    1
  8457 ;; Hardware stack levels required when called:    1
  8458 ;; This function calls:
  8459 ;;		Nothing
  8460 ;; This function is called by:
  8461 ;;		_sprintf
  8462 ;; This function uses a non-reentrant model
  8463 ;;
  8464                           
  8465                           
  8466                           ;psect for function ___fleq
  8467  0000'                    ___fleq:
  8468  0000'                    l3230:	
  8469                           ;incstack = 0
  8470                           ; Regs used in ___fleq: [wreg+status,2+status,0]
  8471                           
  8472  0000' 3000               	movlw	0
  8473  0001' 0502'              	andwf	___fleq@ff1,w
  8474  0002' 1283               	bcf	3,5	;RP0=0, select bank0
  8475  0003' 1303               	bcf	3,6	;RP1=0, select bank0
  8476  0004' 0080'              	movwf	??___fleq
  8477  0005' 3000               	movlw	0
  8478  0006' 0503'              	andwf	___fleq@ff1+1,w
  8479  0007' 0081'              	movwf	??___fleq+1
  8480  0008' 3080               	movlw	128
  8481  0009' 0504'              	andwf	___fleq@ff1+2,w
  8482  000A' 0082'              	movwf	??___fleq+2
  8483  000B' 307F               	movlw	127
  8484  000C' 0505'              	andwf	___fleq@ff1+3,w
  8485  000D' 0083'              	movwf	??___fleq+3
  8486  000E' 0803'              	movf	??___fleq+3,w
  8487  000F' 0402'              	iorwf	??___fleq+2,w
  8488  0010' 0401'              	iorwf	??___fleq+1,w
  8489  0011' 0400'              	iorwf	??___fleq,w
  8490  0012' 1D03               	skipz
  8491  0013' 2800'              	goto	u4701
  8492  0014' 2800'              	goto	u4700
  8493  0015'                    u4701:
  8494  0015' 2800'              	goto	l585
  8495  0016'                    u4700:
  8496  0016'                    l3232:
  8497  0016' 3000               	movlw	0
  8498  0017' 0085'              	movwf	___fleq@ff1+3
  8499  0018' 3000               	movlw	0
  8500  0019' 0084'              	movwf	___fleq@ff1+2
  8501  001A' 3000               	movlw	0
  8502  001B' 0083'              	movwf	___fleq@ff1+1
  8503  001C' 3000               	movlw	0
  8504  001D' 0082'              	movwf	___fleq@ff1
  8505  001E'                    l585:
  8506  001E' 3000               	movlw	0
  8507  001F' 0506'              	andwf	___fleq@ff2,w
  8508  0020' 0080'              	movwf	??___fleq
  8509  0021' 3000               	movlw	0
  8510  0022' 0507'              	andwf	___fleq@ff2+1,w
  8511  0023' 0081'              	movwf	??___fleq+1
  8512  0024' 3080               	movlw	128
  8513  0025' 0508'              	andwf	___fleq@ff2+2,w
  8514  0026' 0082'              	movwf	??___fleq+2
  8515  0027' 307F               	movlw	127
  8516  0028' 0509'              	andwf	___fleq@ff2+3,w
  8517  0029' 0083'              	movwf	??___fleq+3
  8518  002A' 0803'              	movf	??___fleq+3,w
  8519  002B' 0402'              	iorwf	??___fleq+2,w
  8520  002C' 0401'              	iorwf	??___fleq+1,w
  8521  002D' 0400'              	iorwf	??___fleq,w
  8522  002E' 1D03               	skipz
  8523  002F' 2800'              	goto	u4711
  8524  0030' 2800'              	goto	u4710
  8525  0031'                    u4711:
  8526  0031' 2800'              	goto	l586
  8527  0032'                    u4710:
  8528  0032'                    l3234:
  8529  0032' 3000               	movlw	0
  8530  0033' 0089'              	movwf	___fleq@ff2+3
  8531  0034' 3000               	movlw	0
  8532  0035' 0088'              	movwf	___fleq@ff2+2
  8533  0036' 3000               	movlw	0
  8534  0037' 0087'              	movwf	___fleq@ff2+1
  8535  0038' 3000               	movlw	0
  8536  0039' 0086'              	movwf	___fleq@ff2
  8537  003A'                    l586:
  8538  003A' 0809'              	movf	___fleq@ff2+3,w
  8539  003B' 0605'              	xorwf	___fleq@ff1+3,w
  8540  003C' 1D03               	skipz
  8541  003D' 2800'              	goto	u4725
  8542  003E' 0808'              	movf	___fleq@ff2+2,w
  8543  003F' 0604'              	xorwf	___fleq@ff1+2,w
  8544  0040' 1D03               	skipz
  8545  0041' 2800'              	goto	u4725
  8546  0042' 0807'              	movf	___fleq@ff2+1,w
  8547  0043' 0603'              	xorwf	___fleq@ff1+1,w
  8548  0044' 1D03               	skipz
  8549  0045' 2800'              	goto	u4725
  8550  0046' 0806'              	movf	___fleq@ff2,w
  8551  0047' 0602'              	xorwf	___fleq@ff1,w
  8552  0048'                    u4725:
  8553  0048' 1903               	skipnz
  8554  0049' 2800'              	goto	u4721
  8555  004A' 2800'              	goto	u4720
  8556  004B'                    u4721:
  8557  004B' 2800'              	goto	l3238
  8558  004C'                    u4720:
  8559  004C'                    l3236:
  8560  004C' 1003               	clrc
  8561  004D' 2800'              	goto	l587
  8562  004E'                    l3238:
  8563  004E' 1403               	setc
  8564  004F'                    l587:
  8565  004F' 0008               	return
  8566  0050'                    __end_of___fleq:
  8567                           
  8568                           	psect	text23
  8569  0000'                    __ptext23:	
  8570 ;; *************** function _USART_Rx *****************
  8571 ;; Defined at:
  8572 ;;		line 25 in file "Lab_2/USART.c"
  8573 ;; Parameters:    Size  Location     Type
  8574 ;;		None
  8575 ;; Auto vars:     Size  Location     Type
  8576 ;;		None
  8577 ;; Return value:  Size  Location     Type
  8578 ;;                  1    wreg      unsigned char 
  8579 ;; Registers used:
  8580 ;;		wreg
  8581 ;; Tracked objects:
  8582 ;;		On entry : 0/0
  8583 ;;		On exit  : 0/0
  8584 ;;		Unchanged: 0/0
  8585 ;; Data sizes:     COMMON   BANK0   BANK1   BANK3   BANK2
  8586 ;;      Params:         0       0       0       0       0
  8587 ;;      Locals:         0       0       0       0       0
  8588 ;;      Temps:          0       0       0       0       0
  8589 ;;      Totals:         0       0       0       0       0
  8590 ;;Total ram usage:        0 bytes
  8591 ;; Hardware stack levels used:    1
  8592 ;; Hardware stack levels required when called:    1
  8593 ;; This function calls:
  8594 ;;		Nothing
  8595 ;; This function is called by:
  8596 ;;		_main
  8597 ;; This function uses a non-reentrant model
  8598 ;;
  8599                           
  8600                           
  8601                           ;psect for function _USART_Rx
  8602  0000'                    _USART_Rx:
  8603  0000'                    l3730:	
  8604                           ;incstack = 0
  8605                           ; Regs used in _USART_Rx: [wreg]
  8606                           
  8607                           
  8608                           ;Lab_2/USART.c: 26:     return RCREG;
  8609  0000' 1283               	bcf	3,5	;RP0=0, select bank0
  8610  0001' 1303               	bcf	3,6	;RP1=0, select bank0
  8611  0002' 081A               	movf	26,w	;volatile
  8612  0003'                    l194:
  8613  0003' 0008               	return
  8614  0004'                    __end_of_USART_Rx:
  8615                           
  8616                           	psect	text24
  8617  0000'                    __ptext24:	
  8618 ;; *************** function _USART_Init *****************
  8619 ;; Defined at:
  8620 ;;		line 4 in file "Lab_2/USART.c"
  8621 ;; Parameters:    Size  Location     Type
  8622 ;;		None
  8623 ;; Auto vars:     Size  Location     Type
  8624 ;;		None
  8625 ;; Return value:  Size  Location     Type
  8626 ;;                  1    wreg      void 
  8627 ;; Registers used:
  8628 ;;		wreg, status,2
  8629 ;; Tracked objects:
  8630 ;;		On entry : 0/0
  8631 ;;		On exit  : 0/0
  8632 ;;		Unchanged: 0/0
  8633 ;; Data sizes:     COMMON   BANK0   BANK1   BANK3   BANK2
  8634 ;;      Params:         0       0       0       0       0
  8635 ;;      Locals:         0       0       0       0       0
  8636 ;;      Temps:          0       0       0       0       0
  8637 ;;      Totals:         0       0       0       0       0
  8638 ;;Total ram usage:        0 bytes
  8639 ;; Hardware stack levels used:    1
  8640 ;; Hardware stack levels required when called:    1
  8641 ;; This function calls:
  8642 ;;		Nothing
  8643 ;; This function is called by:
  8644 ;;		_main
  8645 ;; This function uses a non-reentrant model
  8646 ;;
  8647                           
  8648                           
  8649                           ;psect for function _USART_Init
  8650  0000'                    _USART_Init:
  8651  0000'                    l3428:	
  8652                           ;incstack = 0
  8653                           ; Regs used in _USART_Init: [wreg+status,2]
  8654                           
  8655                           
  8656                           ;Lab_2/USART.c: 6:     TXSTAbits.SYNC = 0;
  8657  0000' 1683               	bsf	3,5	;RP0=1, select bank1
  8658  0001' 1303               	bcf	3,6	;RP1=0, select bank1
  8659  0002' 1218               	bcf	24,4	;volatile
  8660                           
  8661                           ;Lab_2/USART.c: 7:     TXSTAbits.BRGH = 1;
  8662  0003' 1518               	bsf	24,2	;volatile
  8663                           
  8664                           ;Lab_2/USART.c: 8:     BAUDCTLbits.BRG16 = 1;
  8665  0004' 1683               	bsf	3,5	;RP0=1, select bank3
  8666  0005' 1703               	bsf	3,6	;RP1=1, select bank3
  8667  0006' 1587               	bsf	7,3	;volatile
  8668  0007'                    l3430:
  8669                           
  8670                           ;Lab_2/USART.c: 10:     SPBRG = 207;
  8671  0007' 30CF               	movlw	207
  8672  0008' 1683               	bsf	3,5	;RP0=1, select bank1
  8673  0009' 1303               	bcf	3,6	;RP1=0, select bank1
  8674  000A' 0099               	movwf	25	;volatile
  8675  000B'                    l3432:
  8676                           
  8677                           ;Lab_2/USART.c: 11:     SPBRGH = 0;
  8678  000B' 019A               	clrf	26	;volatile
  8679  000C'                    l3434:
  8680                           
  8681                           ;Lab_2/USART.c: 13:     RCSTAbits.SPEN = 1;
  8682  000C' 1283               	bcf	3,5	;RP0=0, select bank0
  8683  000D' 1303               	bcf	3,6	;RP1=0, select bank0
  8684  000E' 1798               	bsf	24,7	;volatile
  8685  000F'                    l3436:
  8686                           
  8687                           ;Lab_2/USART.c: 14:     RCSTAbits.RX9 = 0;
  8688  000F' 1318               	bcf	24,6	;volatile
  8689  0010'                    l3438:
  8690                           
  8691                           ;Lab_2/USART.c: 15:     RCSTAbits.CREN = 1;
  8692  0010' 1618               	bsf	24,4	;volatile
  8693  0011'                    l3440:
  8694                           
  8695                           ;Lab_2/USART.c: 16:     TXSTAbits.TXEN = 1;
  8696  0011' 1683               	bsf	3,5	;RP0=1, select bank1
  8697  0012' 1303               	bcf	3,6	;RP1=0, select bank1
  8698  0013' 1698               	bsf	24,5	;volatile
  8699  0014'                    l185:
  8700  0014' 0008               	return
  8701  0015'                    __end_of_USART_Init:
  8702                           
  8703                           	psect	text25
  8704  0000'                    __ptext25:	
  8705 ;; *************** function _USART_Cadena *****************
  8706 ;; Defined at:
  8707 ;;		line 29 in file "Lab_2/USART.c"
  8708 ;; Parameters:    Size  Location     Type
  8709 ;;  str             2    3[COMMON] PTR unsigned char 
  8710 ;;		 -> STR_8(17), STR_7(15), STR_6(30), STR_5(31), 
  8711 ;;		 -> valor2(6), valor1(6), 
  8712 ;; Auto vars:     Size  Location     Type
  8713 ;;		None
  8714 ;; Return value:  Size  Location     Type
  8715 ;;                  1    wreg      void 
  8716 ;; Registers used:
  8717 ;;		wreg, fsr0l, fsr0h, status,2, status,0, btemp+1, pclath, cstack
  8718 ;; Tracked objects:
  8719 ;;		On entry : 0/0
  8720 ;;		On exit  : 0/0
  8721 ;;		Unchanged: 0/0
  8722 ;; Data sizes:     COMMON   BANK0   BANK1   BANK3   BANK2
  8723 ;;      Params:         2       0       0       0       0
  8724 ;;      Locals:         0       0       0       0       0
  8725 ;;      Temps:          0       0       0       0       0
  8726 ;;      Totals:         2       0       0       0       0
  8727 ;;Total ram usage:        2 bytes
  8728 ;; Hardware stack levels used:    1
  8729 ;; Hardware stack levels required when called:    2
  8730 ;; This function calls:
  8731 ;;		_USART_Tx
  8732 ;; This function is called by:
  8733 ;;		_main
  8734 ;; This function uses a non-reentrant model
  8735 ;;
  8736                           
  8737                           
  8738                           ;psect for function _USART_Cadena
  8739  0000'                    _USART_Cadena:
  8740  0000'                    l3722:	
  8741                           ;incstack = 0
  8742                           ; Regs used in _USART_Cadena: [wreg-fsr0h+status,2+status,0+btemp+1+pclath+cstack]
  8743                           
  8744                           
  8745                           ;Lab_2/USART.c: 30:     while(*str != '\0'){
  8746  0000' 2800'              	goto	l3728
  8747  0001'                    l3724:
  8748                           
  8749                           ;Lab_2/USART.c: 31:         USART_Tx(*str);
  8750  0001' 0804'              	movf	USART_Cadena@str+1,w
  8751  0002' 00FF               	movwf	btemp+1
  8752  0003' 0803'              	movf	USART_Cadena@str,w
  8753  0004' 0084               	movwf	4
  8754  0005' 120A' 118A' 2000' 120A' 118A' 	fcall	stringtab
  8755  000A' 120A' 118A' 2000' 120A' 118A' 	fcall	_USART_Tx
  8756  000F'                    l3726:
  8757                           
  8758                           ;Lab_2/USART.c: 32:         str++;
  8759  000F' 3001               	movlw	1
  8760  0010' 0783'              	addwf	USART_Cadena@str,f
  8761  0011' 1803               	skipnc
  8762  0012' 0A84'              	incf	USART_Cadena@str+1,f
  8763  0013' 3000               	movlw	0
  8764  0014' 0784'              	addwf	USART_Cadena@str+1,f
  8765  0015'                    l3728:
  8766                           
  8767                           ;Lab_2/USART.c: 30:     while(*str != '\0'){
  8768  0015' 0804'              	movf	USART_Cadena@str+1,w
  8769  0016' 1283               	bcf	3,5	;RP0=0, select bank0
  8770  0017' 1303               	bcf	3,6	;RP1=0, select bank0
  8771  0018' 00FF               	movwf	btemp+1
  8772  0019' 0803'              	movf	USART_Cadena@str,w
  8773  001A' 0084               	movwf	4
  8774  001B' 120A' 118A' 2000' 120A' 118A' 	fcall	stringtab
  8775  0020' 3A00               	xorlw	0
  8776  0021' 1D03               	skipz
  8777  0022' 2800'              	goto	u5601
  8778  0023' 2800'              	goto	u5600
  8779  0024'                    u5601:
  8780  0024' 2800'              	goto	l3724
  8781  0025'                    u5600:
  8782  0025'                    l200:
  8783  0025' 0008               	return
  8784  0026'                    __end_of_USART_Cadena:
  8785                           
  8786                           	psect	text26
  8787  0000'                    __ptext26:	
  8788 ;; *************** function _USART_Tx *****************
  8789 ;; Defined at:
  8790 ;;		line 20 in file "Lab_2/USART.c"
  8791 ;; Parameters:    Size  Location     Type
  8792 ;;  data            1    wreg     unsigned char 
  8793 ;; Auto vars:     Size  Location     Type
  8794 ;;  data            1    2[COMMON] unsigned char 
  8795 ;; Return value:  Size  Location     Type
  8796 ;;                  1    wreg      void 
  8797 ;; Registers used:
  8798 ;;		wreg
  8799 ;; Tracked objects:
  8800 ;;		On entry : 0/0
  8801 ;;		On exit  : 0/0
  8802 ;;		Unchanged: 0/0
  8803 ;; Data sizes:     COMMON   BANK0   BANK1   BANK3   BANK2
  8804 ;;      Params:         0       0       0       0       0
  8805 ;;      Locals:         1       0       0       0       0
  8806 ;;      Temps:          0       0       0       0       0
  8807 ;;      Totals:         1       0       0       0       0
  8808 ;;Total ram usage:        1 bytes
  8809 ;; Hardware stack levels used:    1
  8810 ;; Hardware stack levels required when called:    1
  8811 ;; This function calls:
  8812 ;;		Nothing
  8813 ;; This function is called by:
  8814 ;;		_USART_Cadena
  8815 ;;		_USART_volt
  8816 ;; This function uses a non-reentrant model
  8817 ;;
  8818                           
  8819                           
  8820                           ;psect for function _USART_Tx
  8821  0000'                    _USART_Tx:
  8822                           
  8823                           ;incstack = 0
  8824                           ; Regs used in _USART_Tx: [wreg]
  8825                           ;USART_Tx@data stored from wreg
  8826  0000' 0082'              	movwf	USART_Tx@data
  8827  0001'                    l3014:
  8828  0001'                    l188:	
  8829                           ;Lab_2/USART.c: 21:     while(TXSTAbits.TRMT == 0);
  8830                           
  8831  0001' 1683               	bsf	3,5	;RP0=1, select bank1
  8832  0002' 1303               	bcf	3,6	;RP1=0, select bank1
  8833  0003' 1C98               	btfss	24,1	;volatile
  8834  0004' 2800'              	goto	u4051
  8835  0005' 2800'              	goto	u4050
  8836  0006'                    u4051:
  8837  0006' 2800'              	goto	l188
  8838  0007'                    u4050:
  8839  0007'                    l3016:
  8840                           
  8841                           ;Lab_2/USART.c: 22:     TXREG = data;
  8842  0007' 0802'              	movf	USART_Tx@data,w
  8843  0008' 1283               	bcf	3,5	;RP0=0, select bank0
  8844  0009' 1303               	bcf	3,6	;RP1=0, select bank0
  8845  000A' 0099               	movwf	25	;volatile
  8846  000B'                    l191:
  8847  000B' 0008               	return
  8848  000C'                    __end_of_USART_Tx:
  8849                           
  8850                           	psect	text27
  8851  0000'                    __ptext27:	
  8852 ;; *************** function _LCD_Init8 *****************
  8853 ;; Defined at:
  8854 ;;		line 7 in file "Lab_2/LCD_16_2.c"
  8855 ;; Parameters:    Size  Location     Type
  8856 ;;		None
  8857 ;; Auto vars:     Size  Location     Type
  8858 ;;		None
  8859 ;; Return value:  Size  Location     Type
  8860 ;;                  1    wreg      void 
  8861 ;; Registers used:
  8862 ;;		wreg, status,2, status,0, pclath, cstack
  8863 ;; Tracked objects:
  8864 ;;		On entry : 0/0
  8865 ;;		On exit  : 0/0
  8866 ;;		Unchanged: 0/0
  8867 ;; Data sizes:     COMMON   BANK0   BANK1   BANK3   BANK2
  8868 ;;      Params:         0       0       0       0       0
  8869 ;;      Locals:         0       0       0       0       0
  8870 ;;      Temps:          2       0       0       0       0
  8871 ;;      Totals:         2       0       0       0       0
  8872 ;;Total ram usage:        2 bytes
  8873 ;; Hardware stack levels used:    1
  8874 ;; Hardware stack levels required when called:    2
  8875 ;; This function calls:
  8876 ;;		_LCD_8_comando
  8877 ;; This function is called by:
  8878 ;;		_main
  8879 ;; This function uses a non-reentrant model
  8880 ;;
  8881                           
  8882                           
  8883                           ;psect for function _LCD_Init8
  8884  0000'                    _LCD_Init8:
  8885  0000'                    l3376:	
  8886                           ;incstack = 0
  8887                           ; Regs used in _LCD_Init8: [wreg+status,2+status,0+pclath+cstack]
  8888                           
  8889                           
  8890                           ;Lab_2/LCD_16_2.c: 8:     PORTD = PORTD & 0x00;
  8891  0000' 1283               	bcf	3,5	;RP0=0, select bank0
  8892  0001' 1303               	bcf	3,6	;RP1=0, select bank0
  8893  0002' 0188               	clrf	8	;volatile
  8894                           
  8895                           ;Lab_2/LCD_16_2.c: 9:     TRISD = 0x00;
  8896  0003' 1683               	bsf	3,5	;RP0=1, select bank1
  8897  0004' 1303               	bcf	3,6	;RP1=0, select bank1
  8898  0005' 0188               	clrf	8	;volatile
  8899  0006'                    l3378:
  8900                           
  8901                           ;Lab_2/LCD_16_2.c: 10:     TRISCbits.TRISC0 = 0;
  8902  0006' 1007               	bcf	7,0	;volatile
  8903  0007'                    l3380:
  8904                           
  8905                           ;Lab_2/LCD_16_2.c: 11:     TRISCbits.TRISC1 = 0;
  8906  0007' 1087               	bcf	7,1	;volatile
  8907  0008'                    l3382:
  8908                           
  8909                           ;Lab_2/LCD_16_2.c: 12:     TRISCbits.TRISC2 = 0;
  8910  0008' 1107               	bcf	7,2	;volatile
  8911  0009'                    l3384:
  8912                           
  8913                           ;Lab_2/LCD_16_2.c: 13:     PORTCbits.RC0 = 0;
  8914  0009' 1283               	bcf	3,5	;RP0=0, select bank0
  8915  000A' 1303               	bcf	3,6	;RP1=0, select bank0
  8916  000B' 1007               	bcf	7,0	;volatile
  8917  000C'                    l3386:
  8918                           
  8919                           ;Lab_2/LCD_16_2.c: 14:     PORTCbits.RC1 = 0;
  8920  000C' 1087               	bcf	7,1	;volatile
  8921  000D'                    l3388:
  8922                           
  8923                           ;Lab_2/LCD_16_2.c: 15:     PORTCbits.RC2 = 0;
  8924  000D' 1107               	bcf	7,2	;volatile
  8925  000E'                    l3390:
  8926                           
  8927                           ;Lab_2/LCD_16_2.c: 17:     _delay((unsigned long)((16)*(8000000/4000.0)));
  8928  000E' 302A               	movlw	42
  8929  000F' 0085'              	movwf	??_LCD_Init8+1
  8930  0010' 308D               	movlw	141
  8931  0011' 0084'              	movwf	??_LCD_Init8
  8932  0012'                    u7247:
  8933  0012' 0B84'              	decfsz	??_LCD_Init8,f
  8934  0013' 2800'              	goto	u7247
  8935  0014' 0B85'              	decfsz	??_LCD_Init8+1,f
  8936  0015' 2800'              	goto	u7247
  8937  0016' 2800'              	nop2
  8938  0017'                    l3392:
  8939                           
  8940                           ;Lab_2/LCD_16_2.c: 19:     LCD_8_comando(0b00110000);
  8941  0017' 3030               	movlw	48
  8942  0018' 120A' 118A' 2000' 120A' 118A' 	fcall	_LCD_8_comando
  8943  001D'                    l3394:
  8944                           
  8945                           ;Lab_2/LCD_16_2.c: 20:     _delay((unsigned long)((5)*(8000000/4000.0)));
  8946  001D' 300D               	movlw	13
  8947  001E' 0085'              	movwf	??_LCD_Init8+1
  8948  001F' 30FB               	movlw	251
  8949  0020' 0084'              	movwf	??_LCD_Init8
  8950  0021'                    u7257:
  8951  0021' 0B84'              	decfsz	??_LCD_Init8,f
  8952  0022' 2800'              	goto	u7257
  8953  0023' 0B85'              	decfsz	??_LCD_Init8+1,f
  8954  0024' 2800'              	goto	u7257
  8955  0025' 2800'              	nop2
  8956  0026'                    l3396:
  8957                           
  8958                           ;Lab_2/LCD_16_2.c: 22:     LCD_8_comando(0b00110000);
  8959  0026' 3030               	movlw	48
  8960  0027' 120A' 118A' 2000' 120A' 118A' 	fcall	_LCD_8_comando
  8961  002C'                    l3398:
  8962                           
  8963                           ;Lab_2/LCD_16_2.c: 23:     _delay((unsigned long)((100)*(8000000/4000000.0)));
  8964  002C' 3042               	movlw	66
  8965  002D' 0084'              	movwf	??_LCD_Init8
  8966  002E'                    u7267:
  8967  002E' 0B84'              	decfsz	??_LCD_Init8,f
  8968  002F' 2800'              	goto	u7267
  8969  0030' 0000               	nop
  8970  0031'                    l3400:
  8971                           
  8972                           ;Lab_2/LCD_16_2.c: 25:     LCD_8_comando(0b00110000);
  8973  0031' 3030               	movlw	48
  8974  0032' 120A' 118A' 2000' 120A' 118A' 	fcall	_LCD_8_comando
  8975  0037'                    l3402:
  8976                           
  8977                           ;Lab_2/LCD_16_2.c: 26:     _delay((unsigned long)((100)*(8000000/4000000.0)));
  8978  0037' 3042               	movlw	66
  8979  0038' 0084'              	movwf	??_LCD_Init8
  8980  0039'                    u7277:
  8981  0039' 0B84'              	decfsz	??_LCD_Init8,f
  8982  003A' 2800'              	goto	u7277
  8983  003B' 0000               	nop
  8984  003C'                    l3404:
  8985                           
  8986                           ;Lab_2/LCD_16_2.c: 30:     LCD_8_comando(0b00111000);
  8987  003C' 3038               	movlw	56
  8988  003D' 120A' 118A' 2000' 120A' 118A' 	fcall	_LCD_8_comando
  8989  0042'                    l3406:
  8990                           
  8991                           ;Lab_2/LCD_16_2.c: 31:     _delay((unsigned long)((100)*(8000000/4000000.0)));
  8992  0042' 3042               	movlw	66
  8993  0043' 0084'              	movwf	??_LCD_Init8
  8994  0044'                    u7287:
  8995  0044' 0B84'              	decfsz	??_LCD_Init8,f
  8996  0045' 2800'              	goto	u7287
  8997  0046' 0000               	nop
  8998  0047'                    l3408:
  8999                           
  9000                           ;Lab_2/LCD_16_2.c: 33:     LCD_8_comando(0b00001000);
  9001  0047' 3008               	movlw	8
  9002  0048' 120A' 118A' 2000' 120A' 118A' 	fcall	_LCD_8_comando
  9003  004D'                    l3410:
  9004                           
  9005                           ;Lab_2/LCD_16_2.c: 34:     _delay((unsigned long)((100)*(8000000/4000000.0)));
  9006  004D' 3042               	movlw	66
  9007  004E' 0084'              	movwf	??_LCD_Init8
  9008  004F'                    u7297:
  9009  004F' 0B84'              	decfsz	??_LCD_Init8,f
  9010  0050' 2800'              	goto	u7297
  9011  0051' 0000               	nop
  9012  0052'                    l3412:
  9013                           
  9014                           ;Lab_2/LCD_16_2.c: 36:     LCD_8_comando(0b00000001);
  9015  0052' 3001               	movlw	1
  9016  0053' 120A' 118A' 2000' 120A' 118A' 	fcall	_LCD_8_comando
  9017  0058'                    l3414:
  9018                           
  9019                           ;Lab_2/LCD_16_2.c: 37:     _delay((unsigned long)((100)*(8000000/4000000.0)));
  9020  0058' 3042               	movlw	66
  9021  0059' 0084'              	movwf	??_LCD_Init8
  9022  005A'                    u7307:
  9023  005A' 0B84'              	decfsz	??_LCD_Init8,f
  9024  005B' 2800'              	goto	u7307
  9025  005C' 0000               	nop
  9026  005D'                    l3416:
  9027                           
  9028                           ;Lab_2/LCD_16_2.c: 39:     LCD_8_comando(0b00000100);
  9029  005D' 3004               	movlw	4
  9030  005E' 120A' 118A' 2000' 120A' 118A' 	fcall	_LCD_8_comando
  9031  0063'                    l3418:
  9032                           
  9033                           ;Lab_2/LCD_16_2.c: 40:     _delay((unsigned long)((100)*(8000000/4000000.0)));
  9034  0063' 3042               	movlw	66
  9035  0064' 0084'              	movwf	??_LCD_Init8
  9036  0065'                    u7317:
  9037  0065' 0B84'              	decfsz	??_LCD_Init8,f
  9038  0066' 2800'              	goto	u7317
  9039  0067' 0000               	nop
  9040  0068'                    l3420:
  9041                           
  9042                           ;Lab_2/LCD_16_2.c: 42:     _delay((unsigned long)((100)*(8000000/4000000.0)));
  9043  0068' 3042               	movlw	66
  9044  0069' 0084'              	movwf	??_LCD_Init8
  9045  006A'                    u7327:
  9046  006A' 0B84'              	decfsz	??_LCD_Init8,f
  9047  006B' 2800'              	goto	u7327
  9048  006C' 0000               	nop
  9049  006D'                    l3422:
  9050                           
  9051                           ;Lab_2/LCD_16_2.c: 43:     LCD_8_comando(0x06);
  9052  006D' 3006               	movlw	6
  9053  006E' 120A' 118A' 2000' 120A' 118A' 	fcall	_LCD_8_comando
  9054  0073'                    l3424:
  9055                           
  9056                           ;Lab_2/LCD_16_2.c: 44:     LCD_8_comando(0x0C);
  9057  0073' 300C               	movlw	12
  9058  0074' 120A' 118A' 2000' 120A' 118A' 	fcall	_LCD_8_comando
  9059  0079'                    l131:
  9060  0079' 0008               	return
  9061  007A'                    __end_of_LCD_Init8:
  9062                           
  9063                           	psect	text28
  9064  0000'                    __ptext28:	
  9065 ;; *************** function _LCD_8XY *****************
  9066 ;; Defined at:
  9067 ;;		line 60 in file "Lab_2/LCD_16_2.c"
  9068 ;; Parameters:    Size  Location     Type
  9069 ;;  x               1    wreg     unsigned char 
  9070 ;;  y               1    4[COMMON] unsigned char 
  9071 ;; Auto vars:     Size  Location     Type
  9072 ;;  x               1    5[COMMON] unsigned char 
  9073 ;; Return value:  Size  Location     Type
  9074 ;;                  1    wreg      void 
  9075 ;; Registers used:
  9076 ;;		wreg, status,2, status,0, pclath, cstack
  9077 ;; Tracked objects:
  9078 ;;		On entry : 0/0
  9079 ;;		On exit  : 0/0
  9080 ;;		Unchanged: 0/0
  9081 ;; Data sizes:     COMMON   BANK0   BANK1   BANK3   BANK2
  9082 ;;      Params:         1       0       0       0       0
  9083 ;;      Locals:         1       0       0       0       0
  9084 ;;      Temps:          0       0       0       0       0
  9085 ;;      Totals:         2       0       0       0       0
  9086 ;;Total ram usage:        2 bytes
  9087 ;; Hardware stack levels used:    1
  9088 ;; Hardware stack levels required when called:    2
  9089 ;; This function calls:
  9090 ;;		_LCD_8_comando
  9091 ;; This function is called by:
  9092 ;;		_main
  9093 ;; This function uses a non-reentrant model
  9094 ;;
  9095                           
  9096                           
  9097                           ;psect for function _LCD_8XY
  9098  0000'                    _LCD_8XY:
  9099                           
  9100                           ;incstack = 0
  9101                           ; Regs used in _LCD_8XY: [wreg+status,2+status,0+pclath+cstack]
  9102                           ;LCD_8XY@x stored from wreg
  9103  0000' 0085'              	movwf	LCD_8XY@x
  9104  0001'                    l3706:
  9105                           
  9106                           ;Lab_2/LCD_16_2.c: 61:     if(x>0){
  9107  0001' 0805'              	movf	LCD_8XY@x,w
  9108  0002' 1903               	btfsc	3,2
  9109  0003' 2800'              	goto	u5581
  9110  0004' 2800'              	goto	u5580
  9111  0005'                    u5581:
  9112  0005' 2800'              	goto	l3710
  9113  0006'                    u5580:
  9114  0006'                    l3708:
  9115                           
  9116                           ;Lab_2/LCD_16_2.c: 62:         LCD_8_comando(0xC0 + y);
  9117  0006' 0804'              	movf	LCD_8XY@y,w
  9118  0007' 3EC0               	addlw	192
  9119  0008' 120A' 118A' 2000' 120A' 118A' 	fcall	_LCD_8_comando
  9120                           
  9121                           ;Lab_2/LCD_16_2.c: 63:     }
  9122  000D' 2800'              	goto	l139
  9123  000E'                    l3710:
  9124                           
  9125                           ;Lab_2/LCD_16_2.c: 65:         LCD_8_comando(0x80 + y);
  9126  000E' 0804'              	movf	LCD_8XY@y,w
  9127  000F' 3E80               	addlw	128
  9128  0010' 120A' 118A' 2000' 120A' 118A' 	fcall	_LCD_8_comando
  9129  0015'                    l139:
  9130  0015' 0008               	return
  9131  0016'                    __end_of_LCD_8XY:
  9132                           
  9133                           	psect	text29
  9134  0000'                    __ptext29:	
  9135 ;; *************** function _LCD_8_comando *****************
  9136 ;; Defined at:
  9137 ;;		line 48 in file "Lab_2/LCD_16_2.c"
  9138 ;; Parameters:    Size  Location     Type
  9139 ;;  dato            1    wreg     unsigned char 
  9140 ;; Auto vars:     Size  Location     Type
  9141 ;;  dato            1    3[COMMON] unsigned char 
  9142 ;; Return value:  Size  Location     Type
  9143 ;;                  1    wreg      void 
  9144 ;; Registers used:
  9145 ;;		wreg
  9146 ;; Tracked objects:
  9147 ;;		On entry : 0/0
  9148 ;;		On exit  : 0/0
  9149 ;;		Unchanged: 0/0
  9150 ;; Data sizes:     COMMON   BANK0   BANK1   BANK3   BANK2
  9151 ;;      Params:         0       0       0       0       0
  9152 ;;      Locals:         1       0       0       0       0
  9153 ;;      Temps:          1       0       0       0       0
  9154 ;;      Totals:         2       0       0       0       0
  9155 ;;Total ram usage:        2 bytes
  9156 ;; Hardware stack levels used:    1
  9157 ;; Hardware stack levels required when called:    1
  9158 ;; This function calls:
  9159 ;;		Nothing
  9160 ;; This function is called by:
  9161 ;;		_LCD_Init8
  9162 ;;		_LCD_8XY
  9163 ;; This function uses a non-reentrant model
  9164 ;;
  9165                           
  9166                           
  9167                           ;psect for function _LCD_8_comando
  9168  0000'                    _LCD_8_comando:
  9169                           
  9170                           ;incstack = 0
  9171                           ; Regs used in _LCD_8_comando: [wreg]
  9172                           ;LCD_8_comando@dato stored from wreg
  9173  0000' 0083'              	movwf	LCD_8_comando@dato
  9174  0001'                    l2990:
  9175                           
  9176                           ;Lab_2/LCD_16_2.c: 49:     PORTD = dato;
  9177  0001' 0803'              	movf	LCD_8_comando@dato,w
  9178  0002' 1283               	bcf	3,5	;RP0=0, select bank0
  9179  0003' 1303               	bcf	3,6	;RP1=0, select bank0
  9180  0004' 0088               	movwf	8	;volatile
  9181  0005'                    l2992:
  9182                           
  9183                           ;Lab_2/LCD_16_2.c: 50:     PORTCbits.RC0 = 0;
  9184  0005' 1007               	bcf	7,0	;volatile
  9185  0006'                    l2994:
  9186                           
  9187                           ;Lab_2/LCD_16_2.c: 51:     PORTCbits.RC1 = 0;
  9188  0006' 1087               	bcf	7,1	;volatile
  9189                           
  9190                           ;Lab_2/LCD_16_2.c: 52:     _delay((unsigned long)((10)*(8000000/4000000.0)));
  9191  0007' 3006               	movlw	6
  9192  0008' 0082'              	movwf	??_LCD_8_comando
  9193  0009'                    u7337:
  9194  0009' 0B82'              	decfsz	??_LCD_8_comando,f
  9195  000A' 2800'              	goto	u7337
  9196  000B' 0000               	nop
  9197  000C'                    l2996:
  9198                           
  9199                           ;Lab_2/LCD_16_2.c: 53:     PORTCbits.RC2 = 1;
  9200  000C' 1283               	bcf	3,5	;RP0=0, select bank0
  9201  000D' 1303               	bcf	3,6	;RP1=0, select bank0
  9202  000E' 1507               	bsf	7,2	;volatile
  9203                           
  9204                           ;Lab_2/LCD_16_2.c: 54:     _delay((unsigned long)((10)*(8000000/4000000.0)));
  9205  000F' 3006               	movlw	6
  9206  0010' 0082'              	movwf	??_LCD_8_comando
  9207  0011'                    u7347:
  9208  0011' 0B82'              	decfsz	??_LCD_8_comando,f
  9209  0012' 2800'              	goto	u7347
  9210  0013' 0000               	nop
  9211  0014'                    l2998:
  9212                           
  9213                           ;Lab_2/LCD_16_2.c: 55:     PORTCbits.RC2 = 0;
  9214  0014' 1283               	bcf	3,5	;RP0=0, select bank0
  9215  0015' 1303               	bcf	3,6	;RP1=0, select bank0
  9216  0016' 1107               	bcf	7,2	;volatile
  9217  0017'                    l134:
  9218  0017' 0008               	return
  9219  0018'                    __end_of_LCD_8_comando:
  9220                           
  9221                           	psect	text30
  9222  0000'                    __ptext30:	
  9223 ;; *************** function _LCD_8Cadena *****************
  9224 ;; Defined at:
  9225 ;;		line 69 in file "Lab_2/LCD_16_2.c"
  9226 ;; Parameters:    Size  Location     Type
  9227 ;;  dato            2    4[COMMON] PTR const unsigned char 
  9228 ;;		 -> STR_4(16), valor3(6), valor2(6), valor1(6), 
  9229 ;; Auto vars:     Size  Location     Type
  9230 ;;		None
  9231 ;; Return value:  Size  Location     Type
  9232 ;;                  1    wreg      void 
  9233 ;; Registers used:
  9234 ;;		wreg, fsr0l, fsr0h, status,2, status,0, btemp+1, pclath, cstack
  9235 ;; Tracked objects:
  9236 ;;		On entry : 0/0
  9237 ;;		On exit  : 0/0
  9238 ;;		Unchanged: 0/0
  9239 ;; Data sizes:     COMMON   BANK0   BANK1   BANK3   BANK2
  9240 ;;      Params:         2       0       0       0       0
  9241 ;;      Locals:         0       0       0       0       0
  9242 ;;      Temps:          1       0       0       0       0
  9243 ;;      Totals:         3       0       0       0       0
  9244 ;;Total ram usage:        3 bytes
  9245 ;; Hardware stack levels used:    1
  9246 ;; Hardware stack levels required when called:    2
  9247 ;; This function calls:
  9248 ;;		_LCD_8Data
  9249 ;; This function is called by:
  9250 ;;		_main
  9251 ;; This function uses a non-reentrant model
  9252 ;;
  9253                           
  9254                           
  9255                           ;psect for function _LCD_8Cadena
  9256  0000'                    _LCD_8Cadena:
  9257  0000'                    l3712:	
  9258                           ;incstack = 0
  9259                           ; Regs used in _LCD_8Cadena: [wreg-fsr0h+status,2+status,0+btemp+1+pclath+cstack]
  9260                           
  9261                           
  9262                           ;Lab_2/LCD_16_2.c: 70:     while(*dato){
  9263  0000' 2800'              	goto	l3720
  9264  0001'                    l3714:
  9265                           
  9266                           ;Lab_2/LCD_16_2.c: 71:         _delay((unsigned long)((100)*(8000000/4000000.0)));
  9267  0001' 3042               	movlw	66
  9268  0002' 0086'              	movwf	??_LCD_8Cadena
  9269  0003'                    u7357:
  9270  0003' 0B86'              	decfsz	??_LCD_8Cadena,f
  9271  0004' 2800'              	goto	u7357
  9272  0005' 0000               	nop
  9273  0006'                    l3716:
  9274                           
  9275                           ;Lab_2/LCD_16_2.c: 72:         LCD_8Data(*dato);
  9276  0006' 0805'              	movf	LCD_8Cadena@dato+1,w
  9277  0007' 1283               	bcf	3,5	;RP0=0, select bank0
  9278  0008' 1303               	bcf	3,6	;RP1=0, select bank0
  9279  0009' 00FF               	movwf	btemp+1
  9280  000A' 0804'              	movf	LCD_8Cadena@dato,w
  9281  000B' 0084               	movwf	4
  9282  000C' 120A' 118A' 2000' 120A' 118A' 	fcall	stringtab
  9283  0011' 120A' 118A' 2000' 120A' 118A' 	fcall	_LCD_8Data
  9284  0016'                    l3718:
  9285                           
  9286                           ;Lab_2/LCD_16_2.c: 73:         dato++;
  9287  0016' 3001               	movlw	1
  9288  0017' 0784'              	addwf	LCD_8Cadena@dato,f
  9289  0018' 1803               	skipnc
  9290  0019' 0A85'              	incf	LCD_8Cadena@dato+1,f
  9291  001A' 3000               	movlw	0
  9292  001B' 0785'              	addwf	LCD_8Cadena@dato+1,f
  9293  001C'                    l3720:
  9294                           
  9295                           ;Lab_2/LCD_16_2.c: 70:     while(*dato){
  9296  001C' 0805'              	movf	LCD_8Cadena@dato+1,w
  9297  001D' 1283               	bcf	3,5	;RP0=0, select bank0
  9298  001E' 1303               	bcf	3,6	;RP1=0, select bank0
  9299  001F' 00FF               	movwf	btemp+1
  9300  0020' 0804'              	movf	LCD_8Cadena@dato,w
  9301  0021' 0084               	movwf	4
  9302  0022' 120A' 118A' 2000' 120A' 118A' 	fcall	stringtab
  9303  0027' 3A00               	xorlw	0
  9304  0028' 1D03               	skipz
  9305  0029' 2800'              	goto	u5591
  9306  002A' 2800'              	goto	u5590
  9307  002B'                    u5591:
  9308  002B' 2800'              	goto	l3714
  9309  002C'                    u5590:
  9310  002C'                    l145:
  9311  002C' 0008               	return
  9312  002D'                    __end_of_LCD_8Cadena:
  9313                           
  9314                           	psect	text31
  9315  0000'                    __ptext31:	
  9316 ;; *************** function _LCD_8Data *****************
  9317 ;; Defined at:
  9318 ;;		line 77 in file "Lab_2/LCD_16_2.c"
  9319 ;; Parameters:    Size  Location     Type
  9320 ;;  data            1    wreg     unsigned char 
  9321 ;; Auto vars:     Size  Location     Type
  9322 ;;  data            1    3[COMMON] unsigned char 
  9323 ;; Return value:  Size  Location     Type
  9324 ;;                  1    wreg      void 
  9325 ;; Registers used:
  9326 ;;		wreg
  9327 ;; Tracked objects:
  9328 ;;		On entry : 0/0
  9329 ;;		On exit  : 0/0
  9330 ;;		Unchanged: 0/0
  9331 ;; Data sizes:     COMMON   BANK0   BANK1   BANK3   BANK2
  9332 ;;      Params:         0       0       0       0       0
  9333 ;;      Locals:         1       0       0       0       0
  9334 ;;      Temps:          1       0       0       0       0
  9335 ;;      Totals:         2       0       0       0       0
  9336 ;;Total ram usage:        2 bytes
  9337 ;; Hardware stack levels used:    1
  9338 ;; Hardware stack levels required when called:    1
  9339 ;; This function calls:
  9340 ;;		Nothing
  9341 ;; This function is called by:
  9342 ;;		_LCD_8Cadena
  9343 ;; This function uses a non-reentrant model
  9344 ;;
  9345                           
  9346                           
  9347                           ;psect for function _LCD_8Data
  9348  0000'                    _LCD_8Data:
  9349                           
  9350                           ;incstack = 0
  9351                           ; Regs used in _LCD_8Data: [wreg]
  9352                           ;LCD_8Data@data stored from wreg
  9353  0000' 0083'              	movwf	LCD_8Data@data
  9354  0001'                    l3002:
  9355                           
  9356                           ;Lab_2/LCD_16_2.c: 78:     _delay((unsigned long)((100)*(8000000/4000000.0)));
  9357  0001' 3042               	movlw	66
  9358  0002' 0082'              	movwf	??_LCD_8Data
  9359  0003'                    u7367:
  9360  0003' 0B82'              	decfsz	??_LCD_8Data,f
  9361  0004' 2800'              	goto	u7367
  9362  0005' 0000               	nop
  9363                           
  9364                           ;Lab_2/LCD_16_2.c: 80:     PORTD = data;
  9365  0006' 0803'              	movf	LCD_8Data@data,w
  9366  0007' 1283               	bcf	3,5	;RP0=0, select bank0
  9367  0008' 1303               	bcf	3,6	;RP1=0, select bank0
  9368  0009' 0088               	movwf	8	;volatile
  9369  000A'                    l3004:
  9370                           
  9371                           ;Lab_2/LCD_16_2.c: 82:     PORTCbits.RC1 = 0;
  9372  000A' 1087               	bcf	7,1	;volatile
  9373  000B'                    l3006:
  9374                           
  9375                           ;Lab_2/LCD_16_2.c: 83:     PORTCbits.RC0 = 1;
  9376  000B' 1407               	bsf	7,0	;volatile
  9377                           
  9378                           ;Lab_2/LCD_16_2.c: 84:     _delay((unsigned long)((10)*(8000000/4000000.0)));
  9379  000C' 3006               	movlw	6
  9380  000D' 0082'              	movwf	??_LCD_8Data
  9381  000E'                    u7377:
  9382  000E' 0B82'              	decfsz	??_LCD_8Data,f
  9383  000F' 2800'              	goto	u7377
  9384  0010' 0000               	nop
  9385  0011'                    l3008:
  9386                           
  9387                           ;Lab_2/LCD_16_2.c: 85:     PORTCbits.RC2 = 1;
  9388  0011' 1283               	bcf	3,5	;RP0=0, select bank0
  9389  0012' 1303               	bcf	3,6	;RP1=0, select bank0
  9390  0013' 1507               	bsf	7,2	;volatile
  9391                           
  9392                           ;Lab_2/LCD_16_2.c: 86:     _delay((unsigned long)((10)*(8000000/4000000.0)));
  9393  0014' 3006               	movlw	6
  9394  0015' 0082'              	movwf	??_LCD_8Data
  9395  0016'                    u7387:
  9396  0016' 0B82'              	decfsz	??_LCD_8Data,f
  9397  0017' 2800'              	goto	u7387
  9398  0018' 0000               	nop
  9399  0019'                    l3010:
  9400                           
  9401                           ;Lab_2/LCD_16_2.c: 87:     PORTCbits.RC2 = 0;
  9402  0019' 1283               	bcf	3,5	;RP0=0, select bank0
  9403  001A' 1303               	bcf	3,6	;RP1=0, select bank0
  9404  001B' 1107               	bcf	7,2	;volatile
  9405  001C'                    l148:
  9406  001C' 0008               	return
  9407  001D'                    __end_of_LCD_8Data:
  9408                           
  9409                           	psect	text32
  9410  0000'                    __ptext32:	
  9411 ;; *************** function _isr *****************
  9412 ;; Defined at:
  9413 ;;		line 61 in file "Lab_2/Lab_2.c"
  9414 ;; Parameters:    Size  Location     Type
  9415 ;;		None
  9416 ;; Auto vars:     Size  Location     Type
  9417 ;;		None
  9418 ;; Return value:  Size  Location     Type
  9419 ;;                  1    wreg      void 
  9420 ;; Registers used:
  9421 ;;		None
  9422 ;; Tracked objects:
  9423 ;;		On entry : 0/0
  9424 ;;		On exit  : 0/0
  9425 ;;		Unchanged: 0/0
  9426 ;; Data sizes:     COMMON   BANK0   BANK1   BANK3   BANK2
  9427 ;;      Params:         0       0       0       0       0
  9428 ;;      Locals:         0       0       0       0       0
  9429 ;;      Temps:          2       0       0       0       0
  9430 ;;      Totals:         2       0       0       0       0
  9431 ;;Total ram usage:        2 bytes
  9432 ;; Hardware stack levels used:    1
  9433 ;; This function calls:
  9434 ;;		Nothing
  9435 ;; This function is called by:
  9436 ;;		Interrupt level 1
  9437 ;; This function uses a non-reentrant model
  9438 ;;
  9439                           
  9440                           
  9441                           ;psect for function _isr
  9442  0000'                    _isr:
  9443  0000'                    i1l91:
  9444  0000' 0801'              	movf	??_isr+1,w
  9445  0001' 008A               	movwf	10
  9446  0002' 0E00'              	swapf	??_isr,w
  9447  0003' 0083               	movwf	3
  9448  0004' 0EFE               	swapf	btemp,f
  9449  0005' 0E7E               	swapf	btemp,w
  9450  0006' 0009               	retfie
  9451  0007'                    __end_of_isr:
  9452  007E                     btemp	set	126	;btemp
  9453  007E                     wtemp0	set	126
  9454                           
  9455                           	psect	intentry
  9456  0000'                    __pintentry:	
  9457                           ;incstack = 0
  9458                           ; Regs used in _isr: []
  9459                           
  9460  0000'                    interrupt_function:
  9461  007E                     saved_w	set	btemp
  9462  0000' 00FE               	movwf	btemp
  9463  0001' 0E03               	swapf	3,w
  9464  0002' 0080'              	movwf	??_isr
  9465  0003' 080A               	movf	10,w
  9466  0004' 0081'              	movwf	??_isr+1
  9467  0005' 120A' 118A' 2800'  	ljmp	_isr
  9468                           
  9469                           	psect	config
  9470                           
  9471                           ;Config register CONFIG1 @ 0x2007
  9472                           ;	Oscillator Selection bits
  9473                           ;	FOSC = INTRC_NOCLKOUT, INTOSCIO oscillator: I/O function on RA6/OSC2/CLKOUT pin, I/O f
      +                          unction on RA7/OSC1/CLKIN
  9474                           ;	Watchdog Timer Enable bit
  9475                           ;	WDTE = OFF, WDT disabled and can be enabled by SWDTEN bit of the WDTCON register
  9476                           ;	Power-up Timer Enable bit
  9477                           ;	PWRTE = OFF, PWRT disabled
  9478                           ;	RE3/MCLR pin function select bit
  9479                           ;	MCLRE = OFF, RE3/MCLR pin function is digital input, MCLR internally tied to VDD
  9480                           ;	Code Protection bit
  9481                           ;	CP = OFF, Program memory code protection is disabled
  9482                           ;	Data Code Protection bit
  9483                           ;	CPD = OFF, Data memory code protection is disabled
  9484                           ;	Brown Out Reset Selection bits
  9485                           ;	BOREN = OFF, BOR disabled
  9486                           ;	Internal External Switchover bit
  9487                           ;	IESO = OFF, Internal/External Switchover mode is disabled
  9488                           ;	Fail-Safe Clock Monitor Enabled bit
  9489                           ;	FCMEN = OFF, Fail-Safe Clock Monitor is disabled
  9490                           ;	Low Voltage Programming Enable bit
  9491                           ;	LVP = OFF, RB3 pin has digital I/O, HV on MCLR must be used for programming
  9492                           ;	In-Circuit Debugger Mode bit
  9493                           ;	DEBUG = 0x1, unprogrammed default
  9494  2007                     	org	8199
  9495  2007  20D4               	dw	8404
  9496                           
  9497                           ;Config register CONFIG2 @ 0x2008
  9498                           ;	Brown-out Reset Selection bit
  9499                           ;	BOR4V = BOR40V, Brown-out Reset set to 4.0V
  9500                           ;	Flash Program Memory Self Write Enable bits
  9501                           ;	WRT = OFF, Write protection off
  9502  2008                     	org	8200
  9503  2008  3FFF               	dw	16383
  9504                           
  9505                           	psect	text1_split_1
  9506  0000'                    l4274:
  9507                           
  9508                           ;C:\Program Files\Microchip\xc8\v2.31\pic\sources\c90\common\doprnt.c: 652:    prec = 0;
  9509  0000' 1683               	bsf	3,5	;RP0=1, select bank1
  9510  0001' 1303               	bcf	3,6	;RP1=0, select bank1
  9511  0002' 0180'              	clrf	sprintf@prec^(0+128)
  9512  0003' 0180'              	clrf	(sprintf@prec+1)^(0+128)
  9513  0004'                    l4276:
  9514                           
  9515                           ;C:\Program Files\Microchip\xc8\v2.31\pic\sources\c90\common\doprnt.c: 654:    flag |= 0
      +                          x1000;
  9516  0004' 1601'              	bsf	(sprintf@flag^(0+128)+1),4
  9517  0005' 2800'              	goto	l4280
  9518  0006'                    l334:	
  9519                           ;C:\Program Files\Microchip\xc8\v2.31\pic\sources\c90\common\doprnt.c: 688:   case 'f':
  9520                           
  9521                           
  9522                           ;C:\Program Files\Microchip\xc8\v2.31\pic\sources\c90\common\doprnt.c: 689:    flag |= 0
      +                          x400;
  9523  0006' 1683               	bsf	3,5	;RP0=1, select bank1
  9524  0007' 1303               	bcf	3,6	;RP1=0, select bank1
  9525  0008' 1501'              	bsf	(sprintf@flag^(0+128)+1),2
  9526                           
  9527                           ;C:\Program Files\Microchip\xc8\v2.31\pic\sources\c90\common\doprnt.c: 690:    break;
  9528  0009' 2800'              	goto	l4282
  9529  000A'                    l4280:
  9530  000A' 1683               	bsf	3,5	;RP0=1, select bank1
  9531  000B' 1303               	bcf	3,6	;RP1=0, select bank1
  9532  000C' 0800'              	movf	(sprintf@f+1)^(0+128),w
  9533  000D' 1283               	bcf	3,5	;RP0=0, select bank0
  9534  000E' 1303               	bcf	3,6	;RP1=0, select bank0
  9535  000F' 00CB'              	movwf	??_sprintf+1
  9536  0010' 1683               	bsf	3,5	;RP0=1, select bank1
  9537  0011' 1303               	bcf	3,6	;RP1=0, select bank1
  9538  0012' 0800'              	movf	sprintf@f^(0+128),w
  9539  0013' 1283               	bcf	3,5	;RP0=0, select bank0
  9540  0014' 1303               	bcf	3,6	;RP1=0, select bank0
  9541  0015' 00CA'              	movwf	??_sprintf
  9542  0016' 1683               	bsf	3,5	;RP0=1, select bank1
  9543  0017' 1303               	bcf	3,6	;RP1=0, select bank1
  9544  0018' 0A80'              	incf	sprintf@f^(0+128),f
  9545  0019' 1903               	skipnz
  9546  001A' 0A80'              	incf	(sprintf@f+1)^(0+128),f
  9547  001B' 1283               	bcf	3,5	;RP0=0, select bank0
  9548  001C' 1303               	bcf	3,6	;RP1=0, select bank0
  9549  001D' 084B'              	movf	??_sprintf+1,w
  9550  001E' 00FF               	movwf	btemp+1
  9551  001F' 084A'              	movf	??_sprintf,w
  9552  0020' 0084               	movwf	4
  9553  0021' 120A' 118A' 2000' 120A' 118A' 	fcall	stringtab
  9554  0026' 1683               	bsf	3,5	;RP0=1, select bank1
  9555  0027' 1303               	bcf	3,6	;RP1=0, select bank1
  9556  0028' 0080'              	movwf	sprintf@c^(0+128)
  9557  0029' 1283               	bcf	3,5	;RP0=0, select bank0
  9558  002A' 1303               	bcf	3,6	;RP1=0, select bank0
  9559  002B' 00CC'              	movwf	??_sprintf+2
  9560  002C' 01CD'              	clrf	??_sprintf+3
  9561                           
  9562                           ; Switch on 2 bytes has been partitioned into a top level switch of size 1, and 1 sub-sw
      +                          itches
  9563                           ; Switch size 1, requested type "simple"
  9564                           ; Number of cases is 1, Range of values is 0 to 0
  9565                           ; switch strategies available:
  9566                           ; Name         Instructions Cycles
  9567                           ; simple_byte            4     3 (average)
  9568                           ; direct_byte           11     8 (fixed)
  9569                           ; jumptable            260     6 (fixed)
  9570                           ;	Chosen strategy is simple_byte
  9571  002D' 084D'              	movf	??_sprintf+3,w
  9572  002E' 3A00               	xorlw	0	; case 0
  9573  002F' 1903               	skipnz
  9574  0030' 2800'              	goto	l4646
  9575  0031' 2800'              	goto	l4490
  9576  0032'                    l4646:
  9577                           
  9578                           ; Switch size 1, requested type "simple"
  9579                           ; Number of cases is 2, Range of values is 0 to 102
  9580                           ; switch strategies available:
  9581                           ; Name         Instructions Cycles
  9582                           ; simple_byte            7     4 (average)
  9583                           ; jumptable            260     6 (fixed)
  9584                           ;	Chosen strategy is simple_byte
  9585  0032' 084C'              	movf	??_sprintf+2,w
  9586  0033' 3A00               	xorlw	0	; case 0
  9587  0034' 1903               	skipnz
  9588  0035' 2800'              	goto	l4492
  9589  0036' 3A66               	xorlw	102	; case 102
  9590  0037' 1903               	skipnz
  9591  0038' 2800'              	goto	l334
  9592  0039' 2800'              	goto	l4490
  9593  003A'                    l4282:
  9594                           
  9595                           ;C:\Program Files\Microchip\xc8\v2.31\pic\sources\c90\common\doprnt.c: 851:   if(flag & 
      +                          (0x700)) {
  9596  003A' 3000               	movlw	0
  9597  003B' 0500'              	andwf	sprintf@flag^(0+128),w
  9598  003C' 1283               	bcf	3,5	;RP0=0, select bank0
  9599  003D' 1303               	bcf	3,6	;RP1=0, select bank0
  9600  003E' 00CA'              	movwf	??_sprintf
  9601  003F' 3007               	movlw	7
  9602  0040' 1683               	bsf	3,5	;RP0=1, select bank1
  9603  0041' 1303               	bcf	3,6	;RP1=0, select bank1
  9604  0042' 0500'              	andwf	(sprintf@flag+1)^(0+128),w
  9605  0043' 1283               	bcf	3,5	;RP0=0, select bank0
  9606  0044' 1303               	bcf	3,6	;RP1=0, select bank0
  9607  0045' 00CB'              	movwf	??_sprintf+1
  9608  0046' 084A'              	movf	??_sprintf,w
  9609  0047' 044B'              	iorwf	??_sprintf+1,w
  9610  0048' 1903               	btfsc	3,2
  9611  0049' 2800'              	goto	u6721
  9612  004A' 2800'              	goto	u6720
  9613  004B'                    u6721:
  9614  004B' 2800'              	goto	l4444
  9615  004C'                    u6720:
  9616  004C'                    l4284:
  9617                           
  9618                           ;C:\Program Files\Microchip\xc8\v2.31\pic\sources\c90\common\doprnt.c: 853:    if(flag &
      +                           0x1000)
  9619  004C' 1683               	bsf	3,5	;RP0=1, select bank1
  9620  004D' 1303               	bcf	3,6	;RP1=0, select bank1
  9621  004E' 1E00'              	btfss	(sprintf@flag+1)^(0+128),4
  9622  004F' 2800'              	goto	u6731
  9623  0050' 2800'              	goto	u6730
  9624  0051'                    u6731:
  9625  0051' 2800'              	goto	l4288
  9626  0052'                    u6730:
  9627  0052'                    l4286:
  9628                           
  9629                           ;C:\Program Files\Microchip\xc8\v2.31\pic\sources\c90\common\doprnt.c: 855:     prec = 6
      +                          ;
  9630  0052' 3006               	movlw	6
  9631  0053' 0080'              	movwf	sprintf@prec^(0+128)
  9632  0054' 3000               	movlw	0
  9633  0055' 0081'              	movwf	(sprintf@prec^(0+128)+1)
  9634  0056'                    l4288:
  9635                           
  9636                           ;C:\Program Files\Microchip\xc8\v2.31\pic\sources\c90\common\doprnt.c: 856:    fval = (*
      +                          (double *)__va_arg((*(double **)ap), (double)0));
  9637  0056' 0800'              	movf	sprintf@ap^(0+128),w
  9638  0057' 0084               	movwf	4
  9639  0058' 1383               	bcf	3,7	;select IRP bank0
  9640  0059' 0800               	movf	0,w
  9641  005A' 0080'              	movwf	sprintf@fval^(0+128)
  9642  005B' 0A84               	incf	4,f
  9643  005C' 0800               	movf	0,w
  9644  005D' 0080'              	movwf	(sprintf@fval+1)^(0+128)
  9645  005E' 0A84               	incf	4,f
  9646  005F' 0800               	movf	0,w
  9647  0060' 0080'              	movwf	(sprintf@fval+2)^(0+128)
  9648  0061' 0A84               	incf	4,f
  9649  0062' 0800               	movf	0,w
  9650  0063' 0080'              	movwf	(sprintf@fval+3)^(0+128)
  9651  0064'                    l4290:
  9652  0064' 3004               	movlw	4
  9653  0065' 1283               	bcf	3,5	;RP0=0, select bank0
  9654  0066' 1303               	bcf	3,6	;RP1=0, select bank0
  9655  0067' 00CA'              	movwf	??_sprintf
  9656  0068' 084A'              	movf	??_sprintf,w
  9657  0069' 1683               	bsf	3,5	;RP0=1, select bank1
  9658  006A' 1303               	bcf	3,6	;RP1=0, select bank1
  9659  006B' 0780'              	addwf	sprintf@ap^(0+128),f
  9660  006C'                    l4292:
  9661                           
  9662                           ;C:\Program Files\Microchip\xc8\v2.31\pic\sources\c90\common\doprnt.c: 857:    if(fval <
      +                           0.0) {
  9663  006C' 0800'              	movf	(sprintf@fval+3)^(0+128),w
  9664  006D' 0085'              	movwf	___flge@ff1+3
  9665  006E' 0800'              	movf	(sprintf@fval+2)^(0+128),w
  9666  006F' 0084'              	movwf	___flge@ff1+2
  9667  0070' 0800'              	movf	(sprintf@fval+1)^(0+128),w
  9668  0071' 0083'              	movwf	___flge@ff1+1
  9669  0072' 0800'              	movf	sprintf@fval^(0+128),w
  9670  0073' 0082'              	movwf	___flge@ff1
  9671  0074' 3000               	movlw	0
  9672  0075' 0089'              	movwf	___flge@ff2+3
  9673  0076' 3000               	movlw	0
  9674  0077' 0088'              	movwf	___flge@ff2+2
  9675  0078' 3000               	movlw	0
  9676  0079' 0087'              	movwf	___flge@ff2+1
  9677  007A' 3000               	movlw	0
  9678  007B' 0086'              	movwf	___flge@ff2
  9679  007C' 120A' 118A' 2000' 120A' 118A' 	fcall	___flge
  9680  0081' 1803               	btfsc	3,0
  9681  0082' 2800'              	goto	u6741
  9682  0083' 2800'              	goto	u6740
  9683  0084'                    u6741:
  9684  0084' 2800'              	goto	l4298
  9685  0085'                    u6740:
  9686  0085'                    l4294:
  9687                           
  9688                           ;C:\Program Files\Microchip\xc8\v2.31\pic\sources\c90\common\doprnt.c: 858:     fval = -
      +                          fval;
  9689  0085' 1683               	bsf	3,5	;RP0=1, select bank1
  9690  0086' 1303               	bcf	3,6	;RP1=0, select bank1
  9691  0087' 0800'              	movf	(sprintf@fval+3)^(0+128),w
  9692  0088' 0085'              	movwf	___flneg@f1+3
  9693  0089' 0800'              	movf	(sprintf@fval+2)^(0+128),w
  9694  008A' 0084'              	movwf	___flneg@f1+2
  9695  008B' 0800'              	movf	(sprintf@fval+1)^(0+128),w
  9696  008C' 0083'              	movwf	___flneg@f1+1
  9697  008D' 0800'              	movf	sprintf@fval^(0+128),w
  9698  008E' 0082'              	movwf	___flneg@f1
  9699  008F' 120A' 118A' 2000' 120A' 118A' 	fcall	___flneg
  9700  0094' 0805'              	movf	?___flneg+3,w
  9701  0095' 1683               	bsf	3,5	;RP0=1, select bank1
  9702  0096' 1303               	bcf	3,6	;RP1=0, select bank1
  9703  0097' 0080'              	movwf	(sprintf@fval+3)^(0+128)
  9704  0098' 0804'              	movf	?___flneg+2,w
  9705  0099' 0080'              	movwf	(sprintf@fval+2)^(0+128)
  9706  009A' 0803'              	movf	?___flneg+1,w
  9707  009B' 0080'              	movwf	(sprintf@fval+1)^(0+128)
  9708  009C' 0802'              	movf	?___flneg,w
  9709  009D' 0080'              	movwf	sprintf@fval^(0+128)
  9710  009E'                    l4296:
  9711                           
  9712                           ;C:\Program Files\Microchip\xc8\v2.31\pic\sources\c90\common\doprnt.c: 859:     flag |= 
      +                          0x03;
  9713  009E' 3003               	movlw	3
  9714  009F' 0480'              	iorwf	sprintf@flag^(0+128),f
  9715  00A0' 3000               	movlw	0
  9716  00A1' 0480'              	iorwf	(sprintf@flag+1)^(0+128),f
  9717  00A2'                    l4298:
  9718                           
  9719                           ;C:\Program Files\Microchip\xc8\v2.31\pic\sources\c90\common\doprnt.c: 861:    eexp = 0;
  9720  00A2' 1683               	bsf	3,5	;RP0=1, select bank1
  9721  00A3' 1303               	bcf	3,6	;RP1=0, select bank1
  9722  00A4' 0180'              	clrf	sprintf@eexp^(0+128)
  9723  00A5' 0180'              	clrf	(sprintf@eexp+1)^(0+128)
  9724  00A6'                    l4300:
  9725                           
  9726                           ;C:\Program Files\Microchip\xc8\v2.31\pic\sources\c90\common\doprnt.c: 862:    if( fval!
      +                          =0) {
  9727  00A6' 0800'              	movf	(sprintf@fval+3)^(0+128),w
  9728  00A7' 0085'              	movwf	___fleq@ff1+3
  9729  00A8' 0800'              	movf	(sprintf@fval+2)^(0+128),w
  9730  00A9' 0084'              	movwf	___fleq@ff1+2
  9731  00AA' 0800'              	movf	(sprintf@fval+1)^(0+128),w
  9732  00AB' 0083'              	movwf	___fleq@ff1+1
  9733  00AC' 0800'              	movf	sprintf@fval^(0+128),w
  9734  00AD' 0082'              	movwf	___fleq@ff1
  9735  00AE' 3000               	movlw	0
  9736  00AF' 0089'              	movwf	___fleq@ff2+3
  9737  00B0' 3000               	movlw	0
  9738  00B1' 0088'              	movwf	___fleq@ff2+2
  9739  00B2' 3000               	movlw	0
  9740  00B3' 0087'              	movwf	___fleq@ff2+1
  9741  00B4' 3000               	movlw	0
  9742  00B5' 0086'              	movwf	___fleq@ff2
  9743  00B6' 120A' 118A' 2000' 120A' 118A' 	fcall	___fleq
  9744  00BB' 1803               	btfsc	3,0
  9745  00BC' 2800'              	goto	u6751
  9746  00BD' 2800'              	goto	u6750
  9747  00BE'                    u6751:
  9748  00BE' 2800'              	goto	l4326
  9749  00BF'                    u6750:
  9750  00BF'                    l4302:
  9751                           
  9752                           ;C:\Program Files\Microchip\xc8\v2.31\pic\sources\c90\common\doprnt.c: 863:     (void)(*
      +                          (&eexp) = (unsigned char)((*(unsigned long *)&fval >> 23) & 255) - 126);
  9753  00BF' 1003               	clrc
  9754  00C0' 1683               	bsf	3,5	;RP0=1, select bank1
  9755  00C1' 1303               	bcf	3,6	;RP1=0, select bank1
  9756  00C2' 0D00'              	rlf	(sprintf@fval+2)^(0+128),w
  9757  00C3' 0D00'              	rlf	(sprintf@fval+3)^(0+128),w
  9758  00C4' 3E82               	addlw	130
  9759  00C5' 0080'              	movwf	sprintf@eexp^(0+128)
  9760  00C6' 30FF               	movlw	255
  9761  00C7' 1803               	skipnc
  9762  00C8' 3000               	movlw	0
  9763  00C9' 0081'              	movwf	(sprintf@eexp^(0+128)+1)
  9764  00CA'                    l4304:
  9765                           
  9766                           ;C:\Program Files\Microchip\xc8\v2.31\pic\sources\c90\common\doprnt.c: 864:     eexp--;
  9767  00CA' 30FF               	movlw	255
  9768  00CB' 0780'              	addwf	sprintf@eexp^(0+128),f
  9769  00CC' 1803               	skipnc
  9770  00CD' 0A80'              	incf	(sprintf@eexp+1)^(0+128),f
  9771  00CE' 30FF               	movlw	255
  9772  00CF' 0780'              	addwf	(sprintf@eexp+1)^(0+128),f
  9773  00D0'                    l4306:
  9774                           
  9775                           ;C:\Program Files\Microchip\xc8\v2.31\pic\sources\c90\common\doprnt.c: 865:     eexp *= 
      +                          3;
  9776  00D0' 3003               	movlw	3
  9777  00D1' 0082'              	movwf	___wmul@multiplier
  9778  00D2' 3000               	movlw	0
  9779  00D3' 0083'              	movwf	___wmul@multiplier+1
  9780  00D4' 0800'              	movf	(sprintf@eexp+1)^(0+128),w
  9781  00D5' 0085'              	movwf	___wmul@multiplicand+1
  9782  00D6' 0800'              	movf	sprintf@eexp^(0+128),w
  9783  00D7' 0084'              	movwf	___wmul@multiplicand
  9784  00D8' 120A' 118A' 2000' 120A' 118A' 	fcall	___wmul
  9785  00DD' 0803'              	movf	?___wmul+1,w
  9786  00DE' 1683               	bsf	3,5	;RP0=1, select bank1
  9787  00DF' 1303               	bcf	3,6	;RP1=0, select bank1
  9788  00E0' 0080'              	movwf	(sprintf@eexp+1)^(0+128)
  9789  00E1' 0802'              	movf	?___wmul,w
  9790  00E2' 0080'              	movwf	sprintf@eexp^(0+128)
  9791  00E3'                    l4308:
  9792                           
  9793                           ;C:\Program Files\Microchip\xc8\v2.31\pic\sources\c90\common\doprnt.c: 866:     eexp /= 
      +                          10;
  9794  00E3' 300A               	movlw	10
  9795  00E4' 1283               	bcf	3,5	;RP0=0, select bank0
  9796  00E5' 1303               	bcf	3,6	;RP1=0, select bank0
  9797  00E6' 0080'              	movwf	___awdiv@divisor
  9798  00E7' 3000               	movlw	0
  9799  00E8' 0081'              	movwf	___awdiv@divisor+1
  9800  00E9' 1683               	bsf	3,5	;RP0=1, select bank1
  9801  00EA' 1303               	bcf	3,6	;RP1=0, select bank1
  9802  00EB' 0800'              	movf	(sprintf@eexp+1)^(0+128),w
  9803  00EC' 1283               	bcf	3,5	;RP0=0, select bank0
  9804  00ED' 1303               	bcf	3,6	;RP1=0, select bank0
  9805  00EE' 0083'              	movwf	___awdiv@dividend+1
  9806  00EF' 1683               	bsf	3,5	;RP0=1, select bank1
  9807  00F0' 1303               	bcf	3,6	;RP1=0, select bank1
  9808  00F1' 0800'              	movf	sprintf@eexp^(0+128),w
  9809  00F2' 1283               	bcf	3,5	;RP0=0, select bank0
  9810  00F3' 1303               	bcf	3,6	;RP1=0, select bank0
  9811  00F4' 0082'              	movwf	___awdiv@dividend
  9812  00F5' 120A' 118A' 2000' 120A' 118A' 	fcall	___awdiv
  9813  00FA' 1283               	bcf	3,5	;RP0=0, select bank0
  9814  00FB' 1303               	bcf	3,6	;RP1=0, select bank0
  9815  00FC' 0801'              	movf	?___awdiv+1,w
  9816  00FD' 1683               	bsf	3,5	;RP0=1, select bank1
  9817  00FE' 1303               	bcf	3,6	;RP1=0, select bank1
  9818  00FF' 0080'              	movwf	(sprintf@eexp+1)^(0+128)
  9819  0100' 1283               	bcf	3,5	;RP0=0, select bank0
  9820  0101' 1303               	bcf	3,6	;RP1=0, select bank0
  9821  0102' 0800'              	movf	?___awdiv,w
  9822  0103' 1683               	bsf	3,5	;RP0=1, select bank1
  9823  0104' 1303               	bcf	3,6	;RP1=0, select bank1
  9824  0105' 0080'              	movwf	sprintf@eexp^(0+128)
  9825  0106'                    l4310:
  9826                           
  9827                           ;C:\Program Files\Microchip\xc8\v2.31\pic\sources\c90\common\doprnt.c: 867:     if(eexp 
      +                          < 0)
  9828  0106' 1F80'              	btfss	(sprintf@eexp+1)^(0+128),7
  9829  0107' 2800'              	goto	u6761
  9830  0108' 2800'              	goto	u6760
  9831  0109'                    u6761:
  9832  0109' 2800'              	goto	l4314
  9833  010A'                    u6760:
  9834  010A'                    l4312:
  9835                           
  9836                           ;C:\Program Files\Microchip\xc8\v2.31\pic\sources\c90\common\doprnt.c: 868:      eexp--;
  9837  010A' 30FF               	movlw	255
  9838  010B' 0780'              	addwf	sprintf@eexp^(0+128),f
  9839  010C' 1803               	skipnc
  9840  010D' 0A80'              	incf	(sprintf@eexp+1)^(0+128),f
  9841  010E' 30FF               	movlw	255
  9842  010F' 0780'              	addwf	(sprintf@eexp+1)^(0+128),f
  9843  0110'                    l4314:
  9844                           
  9845                           ;C:\Program Files\Microchip\xc8\v2.31\pic\sources\c90\common\doprnt.c: 872:     tmpval.i
      +                          nteg = scale(-eexp);
  9846  0110' 0300'              	decf	sprintf@eexp^(0+128),w
  9847  0111' 3AFF               	xorlw	255
  9848  0112' 120A' 118A' 2000' 120A' 118A' 	fcall	_scale
  9849  0117' 1283               	bcf	3,5	;RP0=0, select bank0
  9850  0118' 1303               	bcf	3,6	;RP1=0, select bank0
  9851  0119' 0825'              	movf	?_scale+3,w
  9852  011A' 1683               	bsf	3,5	;RP0=1, select bank1
  9853  011B' 1303               	bcf	3,6	;RP1=0, select bank1
  9854  011C' 0080'              	movwf	(sprintf@tmpval+3)^(0+128)
  9855  011D' 1283               	bcf	3,5	;RP0=0, select bank0
  9856  011E' 1303               	bcf	3,6	;RP1=0, select bank0
  9857  011F' 0824'              	movf	?_scale+2,w
  9858  0120' 1683               	bsf	3,5	;RP0=1, select bank1
  9859  0121' 1303               	bcf	3,6	;RP1=0, select bank1
  9860  0122' 0080'              	movwf	(sprintf@tmpval+2)^(0+128)
  9861  0123' 1283               	bcf	3,5	;RP0=0, select bank0
  9862  0124' 1303               	bcf	3,6	;RP1=0, select bank0
  9863  0125' 0823'              	movf	?_scale+1,w
  9864  0126' 1683               	bsf	3,5	;RP0=1, select bank1
  9865  0127' 1303               	bcf	3,6	;RP1=0, select bank1
  9866  0128' 0080'              	movwf	(sprintf@tmpval+1)^(0+128)
  9867  0129' 1283               	bcf	3,5	;RP0=0, select bank0
  9868  012A' 1303               	bcf	3,6	;RP1=0, select bank0
  9869  012B' 0822'              	movf	?_scale,w
  9870  012C' 1683               	bsf	3,5	;RP0=1, select bank1
  9871  012D' 1303               	bcf	3,6	;RP1=0, select bank1
  9872  012E' 0080'              	movwf	sprintf@tmpval^(0+128)
  9873  012F'                    l4316:
  9874                           
  9875                           ;C:\Program Files\Microchip\xc8\v2.31\pic\sources\c90\common\doprnt.c: 873:     tmpval.i
      +                          nteg *= fval;
  9876  012F' 0800'              	movf	(sprintf@fval+3)^(0+128),w
  9877  0130' 1283               	bcf	3,5	;RP0=0, select bank0
  9878  0131' 1303               	bcf	3,6	;RP1=0, select bank0
  9879  0132' 008B'              	movwf	___flmul@b+3
  9880  0133' 1683               	bsf	3,5	;RP0=1, select bank1
  9881  0134' 1303               	bcf	3,6	;RP1=0, select bank1
  9882  0135' 0800'              	movf	(sprintf@fval+2)^(0+128),w
  9883  0136' 1283               	bcf	3,5	;RP0=0, select bank0
  9884  0137' 1303               	bcf	3,6	;RP1=0, select bank0
  9885  0138' 008A'              	movwf	___flmul@b+2
  9886  0139' 1683               	bsf	3,5	;RP0=1, select bank1
  9887  013A' 1303               	bcf	3,6	;RP1=0, select bank1
  9888  013B' 0800'              	movf	(sprintf@fval+1)^(0+128),w
  9889  013C' 1283               	bcf	3,5	;RP0=0, select bank0
  9890  013D' 1303               	bcf	3,6	;RP1=0, select bank0
  9891  013E' 0089'              	movwf	___flmul@b+1
  9892  013F' 1683               	bsf	3,5	;RP0=1, select bank1
  9893  0140' 1303               	bcf	3,6	;RP1=0, select bank1
  9894  0141' 0800'              	movf	sprintf@fval^(0+128),w
  9895  0142' 1283               	bcf	3,5	;RP0=0, select bank0
  9896  0143' 1303               	bcf	3,6	;RP1=0, select bank0
  9897  0144' 0088'              	movwf	___flmul@b
  9898  0145' 1683               	bsf	3,5	;RP0=1, select bank1
  9899  0146' 1303               	bcf	3,6	;RP1=0, select bank1
  9900  0147' 0800'              	movf	(sprintf@tmpval+3)^(0+128),w
  9901  0148' 1283               	bcf	3,5	;RP0=0, select bank0
  9902  0149' 1303               	bcf	3,6	;RP1=0, select bank0
  9903  014A' 008F'              	movwf	___flmul@a+3
  9904  014B' 1683               	bsf	3,5	;RP0=1, select bank1
  9905  014C' 1303               	bcf	3,6	;RP1=0, select bank1
  9906  014D' 0800'              	movf	(sprintf@tmpval+2)^(0+128),w
  9907  014E' 1283               	bcf	3,5	;RP0=0, select bank0
  9908  014F' 1303               	bcf	3,6	;RP1=0, select bank0
  9909  0150' 008E'              	movwf	___flmul@a+2
  9910  0151' 1683               	bsf	3,5	;RP0=1, select bank1
  9911  0152' 1303               	bcf	3,6	;RP1=0, select bank1
  9912  0153' 0800'              	movf	(sprintf@tmpval+1)^(0+128),w
  9913  0154' 1283               	bcf	3,5	;RP0=0, select bank0
  9914  0155' 1303               	bcf	3,6	;RP1=0, select bank0
  9915  0156' 008D'              	movwf	___flmul@a+1
  9916  0157' 1683               	bsf	3,5	;RP0=1, select bank1
  9917  0158' 1303               	bcf	3,6	;RP1=0, select bank1
  9918  0159' 0800'              	movf	sprintf@tmpval^(0+128),w
  9919  015A' 1283               	bcf	3,5	;RP0=0, select bank0
  9920  015B' 1303               	bcf	3,6	;RP1=0, select bank0
  9921  015C' 008C'              	movwf	___flmul@a
  9922  015D' 120A' 118A' 2000' 120A' 118A' 	fcall	___flmul
  9923  0162' 1283               	bcf	3,5	;RP0=0, select bank0
  9924  0163' 1303               	bcf	3,6	;RP1=0, select bank0
  9925  0164' 080B'              	movf	?___flmul+3,w
  9926  0165' 1683               	bsf	3,5	;RP0=1, select bank1
  9927  0166' 1303               	bcf	3,6	;RP1=0, select bank1
  9928  0167' 0080'              	movwf	(sprintf@tmpval+3)^(0+128)
  9929  0168' 1283               	bcf	3,5	;RP0=0, select bank0
  9930  0169' 1303               	bcf	3,6	;RP1=0, select bank0
  9931  016A' 080A'              	movf	?___flmul+2,w
  9932  016B' 1683               	bsf	3,5	;RP0=1, select bank1
  9933  016C' 1303               	bcf	3,6	;RP1=0, select bank1
  9934  016D' 0080'              	movwf	(sprintf@tmpval+2)^(0+128)
  9935  016E' 1283               	bcf	3,5	;RP0=0, select bank0
  9936  016F' 1303               	bcf	3,6	;RP1=0, select bank0
  9937  0170' 0809'              	movf	?___flmul+1,w
  9938  0171' 1683               	bsf	3,5	;RP0=1, select bank1
  9939  0172' 1303               	bcf	3,6	;RP1=0, select bank1
  9940  0173' 0080'              	movwf	(sprintf@tmpval+1)^(0+128)
  9941  0174' 1283               	bcf	3,5	;RP0=0, select bank0
  9942  0175' 1303               	bcf	3,6	;RP1=0, select bank0
  9943  0176' 0808'              	movf	?___flmul,w
  9944  0177' 1683               	bsf	3,5	;RP0=1, select bank1
  9945  0178' 1303               	bcf	3,6	;RP1=0, select bank1
  9946  0179' 0080'              	movwf	sprintf@tmpval^(0+128)
  9947  017A'                    l4318:
  9948                           
  9949                           ;C:\Program Files\Microchip\xc8\v2.31\pic\sources\c90\common\doprnt.c: 874:     if(tmpva
      +                          l.integ < 1.0)
  9950  017A' 0800'              	movf	(sprintf@tmpval+3)^(0+128),w
  9951  017B' 0085'              	movwf	___flge@ff1+3
  9952  017C' 0800'              	movf	(sprintf@tmpval+2)^(0+128),w
  9953  017D' 0084'              	movwf	___flge@ff1+2
  9954  017E' 0800'              	movf	(sprintf@tmpval+1)^(0+128),w
  9955  017F' 0083'              	movwf	___flge@ff1+1
  9956  0180' 0800'              	movf	sprintf@tmpval^(0+128),w
  9957  0181' 0082'              	movwf	___flge@ff1
  9958  0182' 303F               	movlw	63
  9959  0183' 0089'              	movwf	___flge@ff2+3
  9960  0184' 3080               	movlw	128
  9961  0185' 0088'              	movwf	___flge@ff2+2
  9962  0186' 3000               	movlw	0
  9963  0187' 0087'              	movwf	___flge@ff2+1
  9964  0188' 3000               	movlw	0
  9965  0189' 0086'              	movwf	___flge@ff2
  9966  018A' 120A' 118A' 2000' 120A' 118A' 	fcall	___flge
  9967  018F' 1803               	btfsc	3,0
  9968  0190' 2800'              	goto	u6771
  9969  0191' 2800'              	goto	u6770
  9970  0192'                    u6771:
  9971  0192' 2800'              	goto	l4322
  9972  0193'                    u6770:
  9973  0193'                    l4320:
  9974                           
  9975                           ;C:\Program Files\Microchip\xc8\v2.31\pic\sources\c90\common\doprnt.c: 875:      eexp--;
  9976  0193' 30FF               	movlw	255
  9977  0194' 1683               	bsf	3,5	;RP0=1, select bank1
  9978  0195' 1303               	bcf	3,6	;RP1=0, select bank1
  9979  0196' 0780'              	addwf	sprintf@eexp^(0+128),f
  9980  0197' 1803               	skipnc
  9981  0198' 0A80'              	incf	(sprintf@eexp+1)^(0+128),f
  9982  0199' 30FF               	movlw	255
  9983  019A' 0780'              	addwf	(sprintf@eexp+1)^(0+128),f
  9984  019B' 2800'              	goto	l4326
  9985  019C'                    l4322:
  9986  019C' 1683               	bsf	3,5	;RP0=1, select bank1
  9987  019D' 1303               	bcf	3,6	;RP1=0, select bank1
  9988  019E' 0800'              	movf	(sprintf@tmpval+3)^(0+128),w
  9989  019F' 0085'              	movwf	___flge@ff1+3
  9990  01A0' 0800'              	movf	(sprintf@tmpval+2)^(0+128),w
  9991  01A1' 0084'              	movwf	___flge@ff1+2
  9992  01A2' 0800'              	movf	(sprintf@tmpval+1)^(0+128),w
  9993  01A3' 0083'              	movwf	___flge@ff1+1
  9994  01A4' 0800'              	movf	sprintf@tmpval^(0+128),w
  9995  01A5' 0082'              	movwf	___flge@ff1
  9996  01A6' 3041               	movlw	65
  9997  01A7' 0089'              	movwf	___flge@ff2+3
  9998  01A8' 3020               	movlw	32
  9999  01A9' 0088'              	movwf	___flge@ff2+2
 10000  01AA' 3000               	movlw	0
 10001  01AB' 0087'              	movwf	___flge@ff2+1
 10002  01AC' 3000               	movlw	0
 10003  01AD' 0086'              	movwf	___flge@ff2
 10004  01AE' 120A' 118A' 2000' 120A' 118A' 	fcall	___flge
 10005  01B3' 1C03               	btfss	3,0
 10006  01B4' 2800'              	goto	u6781
 10007  01B5' 2800'              	goto	u6780
 10008  01B6'                    u6781:
 10009  01B6' 2800'              	goto	l4326
 10010  01B7'                    u6780:
 10011  01B7'                    l4324:
 10012                           
 10013                           ;C:\Program Files\Microchip\xc8\v2.31\pic\sources\c90\common\doprnt.c: 877:      eexp++;
 10014  01B7' 3001               	movlw	1
 10015  01B8' 1683               	bsf	3,5	;RP0=1, select bank1
 10016  01B9' 1303               	bcf	3,6	;RP1=0, select bank1
 10017  01BA' 0780'              	addwf	sprintf@eexp^(0+128),f
 10018  01BB' 1803               	skipnc
 10019  01BC' 0A80'              	incf	(sprintf@eexp+1)^(0+128),f
 10020  01BD' 3000               	movlw	0
 10021  01BE' 0780'              	addwf	(sprintf@eexp+1)^(0+128),f
 10022  01BF'                    l4326:
 10023                           
 10024                           ;C:\Program Files\Microchip\xc8\v2.31\pic\sources\c90\common\doprnt.c: 1138:      if(pre
      +                          c <= 12)
 10025  01BF' 1683               	bsf	3,5	;RP0=1, select bank1
 10026  01C0' 1303               	bcf	3,6	;RP1=0, select bank1
 10027  01C1' 0800'              	movf	(sprintf@prec+1)^(0+128),w
 10028  01C2' 3A80               	xorlw	128
 10029  01C3' 00FF               	movwf	btemp+1
 10030  01C4' 3080               	movlw	128
 10031  01C5' 027F               	subwf	btemp+1,w
 10032  01C6' 1D03               	skipz
 10033  01C7' 2800'              	goto	u6795
 10034  01C8' 300D               	movlw	13
 10035  01C9' 0200'              	subwf	sprintf@prec^(0+128),w
 10036  01CA'                    u6795:
 10037  01CA' 1803               	skipnc
 10038  01CB' 2800'              	goto	u6791
 10039  01CC' 2800'              	goto	u6790
 10040  01CD'                    u6791:
 10041  01CD' 2800'              	goto	l4330
 10042  01CE'                    u6790:
 10043  01CE'                    l4328:
 10044                           
 10045                           ;C:\Program Files\Microchip\xc8\v2.31\pic\sources\c90\common\doprnt.c: 1139:       fval 
      +                          += fround((unsigned int)prec);
 10046  01CE' 1683               	bsf	3,5	;RP0=1, select bank1
 10047  01CF' 1303               	bcf	3,6	;RP1=0, select bank1
 10048  01D0' 0800'              	movf	sprintf@prec^(0+128),w
 10049  01D1' 120A' 118A' 2000' 120A' 118A' 	fcall	_fround
 10050  01D6' 1283               	bcf	3,5	;RP0=0, select bank0
 10051  01D7' 1303               	bcf	3,6	;RP1=0, select bank0
 10052  01D8' 0825'              	movf	?_fround+3,w
 10053  01D9' 00B9'              	movwf	___fladd@b+3
 10054  01DA' 0824'              	movf	?_fround+2,w
 10055  01DB' 00B8'              	movwf	___fladd@b+2
 10056  01DC' 0823'              	movf	?_fround+1,w
 10057  01DD' 00B7'              	movwf	___fladd@b+1
 10058  01DE' 0822'              	movf	?_fround,w
 10059  01DF' 00B6'              	movwf	___fladd@b
 10060  01E0' 1683               	bsf	3,5	;RP0=1, select bank1
 10061  01E1' 1303               	bcf	3,6	;RP1=0, select bank1
 10062  01E2' 0800'              	movf	(sprintf@fval+3)^(0+128),w
 10063  01E3' 1283               	bcf	3,5	;RP0=0, select bank0
 10064  01E4' 1303               	bcf	3,6	;RP1=0, select bank0
 10065  01E5' 00BD'              	movwf	___fladd@a+3
 10066  01E6' 1683               	bsf	3,5	;RP0=1, select bank1
 10067  01E7' 1303               	bcf	3,6	;RP1=0, select bank1
 10068  01E8' 0800'              	movf	(sprintf@fval+2)^(0+128),w
 10069  01E9' 1283               	bcf	3,5	;RP0=0, select bank0
 10070  01EA' 1303               	bcf	3,6	;RP1=0, select bank0
 10071  01EB' 00BC'              	movwf	___fladd@a+2
 10072  01EC' 1683               	bsf	3,5	;RP0=1, select bank1
 10073  01ED' 1303               	bcf	3,6	;RP1=0, select bank1
 10074  01EE' 0800'              	movf	(sprintf@fval+1)^(0+128),w
 10075  01EF' 1283               	bcf	3,5	;RP0=0, select bank0
 10076  01F0' 1303               	bcf	3,6	;RP1=0, select bank0
 10077  01F1' 00BB'              	movwf	___fladd@a+1
 10078  01F2' 1683               	bsf	3,5	;RP0=1, select bank1
 10079  01F3' 1303               	bcf	3,6	;RP1=0, select bank1
 10080  01F4' 0800'              	movf	sprintf@fval^(0+128),w
 10081  01F5' 1283               	bcf	3,5	;RP0=0, select bank0
 10082  01F6' 1303               	bcf	3,6	;RP1=0, select bank0
 10083  01F7' 00BA'              	movwf	___fladd@a
 10084  01F8' 120A' 118A' 2000' 120A' 118A' 	fcall	___fladd
 10085  01FD' 1283               	bcf	3,5	;RP0=0, select bank0
 10086  01FE' 1303               	bcf	3,6	;RP1=0, select bank0
 10087  01FF' 0839'              	movf	?___fladd+3,w
 10088  0200' 1683               	bsf	3,5	;RP0=1, select bank1
 10089  0201' 1303               	bcf	3,6	;RP1=0, select bank1
 10090  0202' 0080'              	movwf	(sprintf@fval+3)^(0+128)
 10091  0203' 1283               	bcf	3,5	;RP0=0, select bank0
 10092  0204' 1303               	bcf	3,6	;RP1=0, select bank0
 10093  0205' 0838'              	movf	?___fladd+2,w
 10094  0206' 1683               	bsf	3,5	;RP0=1, select bank1
 10095  0207' 1303               	bcf	3,6	;RP1=0, select bank1
 10096  0208' 0080'              	movwf	(sprintf@fval+2)^(0+128)
 10097  0209' 1283               	bcf	3,5	;RP0=0, select bank0
 10098  020A' 1303               	bcf	3,6	;RP1=0, select bank0
 10099  020B' 0837'              	movf	?___fladd+1,w
 10100  020C' 1683               	bsf	3,5	;RP0=1, select bank1
 10101  020D' 1303               	bcf	3,6	;RP1=0, select bank1
 10102  020E' 0080'              	movwf	(sprintf@fval+1)^(0+128)
 10103  020F' 1283               	bcf	3,5	;RP0=0, select bank0
 10104  0210' 1303               	bcf	3,6	;RP1=0, select bank0
 10105  0211' 0836'              	movf	?___fladd,w
 10106  0212' 1683               	bsf	3,5	;RP0=1, select bank1
 10107  0213' 1303               	bcf	3,6	;RP1=0, select bank1
 10108  0214' 0080'              	movwf	sprintf@fval^(0+128)
 10109  0215'                    l4330:
 10110                           
 10111                           ;C:\Program Files\Microchip\xc8\v2.31\pic\sources\c90\common\doprnt.c: 1142:     if((eex
      +                          p > 9)||(fval != 0 && (unsigned long)fval == 0 && eexp > 1)) {
 10112  0215' 1683               	bsf	3,5	;RP0=1, select bank1
 10113  0216' 1303               	bcf	3,6	;RP1=0, select bank1
 10114  0217' 0800'              	movf	(sprintf@eexp+1)^(0+128),w
 10115  0218' 3A80               	xorlw	128
 10116  0219' 00FF               	movwf	btemp+1
 10117  021A' 3080               	movlw	128
 10118  021B' 027F               	subwf	btemp+1,w
 10119  021C' 1D03               	skipz
 10120  021D' 2800'              	goto	u6805
 10121  021E' 300A               	movlw	10
 10122  021F' 0200'              	subwf	sprintf@eexp^(0+128),w
 10123  0220'                    u6805:
 10124  0220' 1803               	skipnc
 10125  0221' 2800'              	goto	u6801
 10126  0222' 2800'              	goto	u6800
 10127  0223'                    u6801:
 10128  0223' 2800'              	goto	l4338
 10129  0224'                    u6800:
 10130  0224'                    l4332:
 10131  0224' 1683               	bsf	3,5	;RP0=1, select bank1
 10132  0225' 1303               	bcf	3,6	;RP1=0, select bank1
 10133  0226' 0800'              	movf	(sprintf@fval+3)^(0+128),w
 10134  0227' 0085'              	movwf	___fleq@ff1+3
 10135  0228' 0800'              	movf	(sprintf@fval+2)^(0+128),w
 10136  0229' 0084'              	movwf	___fleq@ff1+2
 10137  022A' 0800'              	movf	(sprintf@fval+1)^(0+128),w
 10138  022B' 0083'              	movwf	___fleq@ff1+1
 10139  022C' 0800'              	movf	sprintf@fval^(0+128),w
 10140  022D' 0082'              	movwf	___fleq@ff1
 10141  022E' 3000               	movlw	0
 10142  022F' 0089'              	movwf	___fleq@ff2+3
 10143  0230' 3000               	movlw	0
 10144  0231' 0088'              	movwf	___fleq@ff2+2
 10145  0232' 3000               	movlw	0
 10146  0233' 0087'              	movwf	___fleq@ff2+1
 10147  0234' 3000               	movlw	0
 10148  0235' 0086'              	movwf	___fleq@ff2
 10149  0236' 120A' 118A' 2000' 120A' 118A' 	fcall	___fleq
 10150  023B' 1803               	btfsc	3,0
 10151  023C' 2800'              	goto	u6811
 10152  023D' 2800'              	goto	u6810
 10153  023E'                    u6811:
 10154  023E' 2800'              	goto	l4352
 10155  023F'                    u6810:
 10156  023F'                    l4334:
 10157  023F' 1683               	bsf	3,5	;RP0=1, select bank1
 10158  0240' 1303               	bcf	3,6	;RP1=0, select bank1
 10159  0241' 0800'              	movf	(sprintf@fval+3)^(0+128),w
 10160  0242' 1283               	bcf	3,5	;RP0=0, select bank0
 10161  0243' 1303               	bcf	3,6	;RP1=0, select bank0
 10162  0244' 00B8'              	movwf	___fltol@f1+3
 10163  0245' 1683               	bsf	3,5	;RP0=1, select bank1
 10164  0246' 1303               	bcf	3,6	;RP1=0, select bank1
 10165  0247' 0800'              	movf	(sprintf@fval+2)^(0+128),w
 10166  0248' 1283               	bcf	3,5	;RP0=0, select bank0
 10167  0249' 1303               	bcf	3,6	;RP1=0, select bank0
 10168  024A' 00B7'              	movwf	___fltol@f1+2
 10169  024B' 1683               	bsf	3,5	;RP0=1, select bank1
 10170  024C' 1303               	bcf	3,6	;RP1=0, select bank1
 10171  024D' 0800'              	movf	(sprintf@fval+1)^(0+128),w
 10172  024E' 1283               	bcf	3,5	;RP0=0, select bank0
 10173  024F' 1303               	bcf	3,6	;RP1=0, select bank0
 10174  0250' 00B6'              	movwf	___fltol@f1+1
 10175  0251' 1683               	bsf	3,5	;RP0=1, select bank1
 10176  0252' 1303               	bcf	3,6	;RP1=0, select bank1
 10177  0253' 0800'              	movf	sprintf@fval^(0+128),w
 10178  0254' 1283               	bcf	3,5	;RP0=0, select bank0
 10179  0255' 1303               	bcf	3,6	;RP1=0, select bank0
 10180  0256' 00B5'              	movwf	___fltol@f1
 10181  0257' 120A' 118A' 2000' 120A' 118A' 	fcall	___fltol
 10182  025C' 1283               	bcf	3,5	;RP0=0, select bank0
 10183  025D' 1303               	bcf	3,6	;RP1=0, select bank0
 10184  025E' 0838'              	movf	?___fltol+3,w
 10185  025F' 0437'              	iorwf	?___fltol+2,w
 10186  0260' 0436'              	iorwf	?___fltol+1,w
 10187  0261' 0435'              	iorwf	?___fltol,w
 10188  0262' 1D03               	skipz
 10189  0263' 2800'              	goto	u6821
 10190  0264' 2800'              	goto	u6820
 10191  0265'                    u6821:
 10192  0265' 2800'              	goto	l4352
 10193  0266'                    u6820:
 10194  0266'                    l4336:
 10195  0266' 1683               	bsf	3,5	;RP0=1, select bank1
 10196  0267' 1303               	bcf	3,6	;RP1=0, select bank1
 10197  0268' 0800'              	movf	(sprintf@eexp+1)^(0+128),w
 10198  0269' 3A80               	xorlw	128
 10199  026A' 00FF               	movwf	btemp+1
 10200  026B' 3080               	movlw	128
 10201  026C' 027F               	subwf	btemp+1,w
 10202  026D' 1D03               	skipz
 10203  026E' 2800'              	goto	u6835
 10204  026F' 3002               	movlw	2
 10205  0270' 0200'              	subwf	sprintf@eexp^(0+128),w
 10206  0271'                    u6835:
 10207  0271' 1C03               	skipc
 10208  0272' 2800'              	goto	u6831
 10209  0273' 2800'              	goto	u6830
 10210  0274'                    u6831:
 10211  0274' 2800'              	goto	l4352
 10212  0275'                    u6830:
 10213  0275'                    l4338:
 10214                           
 10215                           ;C:\Program Files\Microchip\xc8\v2.31\pic\sources\c90\common\doprnt.c: 1146:      if(tmp
      +                          val.integ < 4.294967296){
 10216  0275' 1683               	bsf	3,5	;RP0=1, select bank1
 10217  0276' 1303               	bcf	3,6	;RP1=0, select bank1
 10218  0277' 0800'              	movf	(sprintf@tmpval+3)^(0+128),w
 10219  0278' 0085'              	movwf	___flge@ff1+3
 10220  0279' 0800'              	movf	(sprintf@tmpval+2)^(0+128),w
 10221  027A' 0084'              	movwf	___flge@ff1+2
 10222  027B' 0800'              	movf	(sprintf@tmpval+1)^(0+128),w
 10223  027C' 0083'              	movwf	___flge@ff1+1
 10224  027D' 0800'              	movf	sprintf@tmpval^(0+128),w
 10225  027E' 0082'              	movwf	___flge@ff1
 10226  027F' 3040               	movlw	64
 10227  0280' 0089'              	movwf	___flge@ff2+3
 10228  0281' 3089               	movlw	137
 10229  0282' 0088'              	movwf	___flge@ff2+2
 10230  0283' 3070               	movlw	112
 10231  0284' 0087'              	movwf	___flge@ff2+1
 10232  0285' 305F               	movlw	95
 10233  0286' 0086'              	movwf	___flge@ff2
 10234  0287' 120A' 118A' 2000' 120A' 118A' 	fcall	___flge
 10235  028C' 1803               	btfsc	3,0
 10236  028D' 2800'              	goto	u6841
 10237  028E' 2800'              	goto	u6840
 10238  028F'                    u6841:
 10239  028F' 2800'              	goto	l4342
 10240  0290'                    u6840:
 10241  0290'                    l4340:
 10242                           
 10243                           ;C:\Program Files\Microchip\xc8\v2.31\pic\sources\c90\common\doprnt.c: 1147:       eexp 
      +                          -= (sizeof dpowers/sizeof dpowers[0])-1;
 10244  0290' 30F7               	movlw	247
 10245  0291' 1683               	bsf	3,5	;RP0=1, select bank1
 10246  0292' 1303               	bcf	3,6	;RP1=0, select bank1
 10247  0293' 0780'              	addwf	sprintf@eexp^(0+128),f
 10248  0294' 1803               	skipnc
 10249  0295' 0A80'              	incf	(sprintf@eexp+1)^(0+128),f
 10250  0296' 30FF               	movlw	255
 10251  0297' 0780'              	addwf	(sprintf@eexp+1)^(0+128),f
 10252                           
 10253                           ;C:\Program Files\Microchip\xc8\v2.31\pic\sources\c90\common\doprnt.c: 1148:      }else{
 10254  0298' 2800'              	goto	l4344
 10255  0299'                    l4342:
 10256                           
 10257                           ;C:\Program Files\Microchip\xc8\v2.31\pic\sources\c90\common\doprnt.c: 1149:       eexp 
      +                          -= (sizeof dpowers/sizeof dpowers[0])-2;
 10258  0299' 30F8               	movlw	248
 10259  029A' 1683               	bsf	3,5	;RP0=1, select bank1
 10260  029B' 1303               	bcf	3,6	;RP1=0, select bank1
 10261  029C' 0780'              	addwf	sprintf@eexp^(0+128),f
 10262  029D' 1803               	skipnc
 10263  029E' 0A80'              	incf	(sprintf@eexp+1)^(0+128),f
 10264  029F' 30FF               	movlw	255
 10265  02A0' 0780'              	addwf	(sprintf@eexp+1)^(0+128),f
 10266  02A1'                    l4344:
 10267                           
 10268                           ;C:\Program Files\Microchip\xc8\v2.31\pic\sources\c90\common\doprnt.c: 1152:      val = 
      +                          ((sizeof(double)== 3) ? _tdiv_to_l_(fval,tmpval.integ) : _div_to_l_(fval,tmpval.integ));
 10269  02A1' 0800'              	movf	sprintf@eexp^(0+128),w
 10270  02A2' 120A' 118A' 2000' 120A' 118A' 	fcall	_scale
 10271  02A7' 1283               	bcf	3,5	;RP0=0, select bank0
 10272  02A8' 1303               	bcf	3,6	;RP1=0, select bank0
 10273  02A9' 0825'              	movf	?_scale+3,w
 10274  02AA' 1683               	bsf	3,5	;RP0=1, select bank1
 10275  02AB' 1303               	bcf	3,6	;RP1=0, select bank1
 10276  02AC' 0080'              	movwf	(sprintf@tmpval+3)^(0+128)
 10277  02AD' 1283               	bcf	3,5	;RP0=0, select bank0
 10278  02AE' 1303               	bcf	3,6	;RP1=0, select bank0
 10279  02AF' 0824'              	movf	?_scale+2,w
 10280  02B0' 1683               	bsf	3,5	;RP0=1, select bank1
 10281  02B1' 1303               	bcf	3,6	;RP1=0, select bank1
 10282  02B2' 0080'              	movwf	(sprintf@tmpval+2)^(0+128)
 10283  02B3' 1283               	bcf	3,5	;RP0=0, select bank0
 10284  02B4' 1303               	bcf	3,6	;RP1=0, select bank0
 10285  02B5' 0823'              	movf	?_scale+1,w
 10286  02B6' 1683               	bsf	3,5	;RP0=1, select bank1
 10287  02B7' 1303               	bcf	3,6	;RP1=0, select bank1
 10288  02B8' 0080'              	movwf	(sprintf@tmpval+1)^(0+128)
 10289  02B9' 1283               	bcf	3,5	;RP0=0, select bank0
 10290  02BA' 1303               	bcf	3,6	;RP1=0, select bank0
 10291  02BB' 0822'              	movf	?_scale,w
 10292  02BC' 1683               	bsf	3,5	;RP0=1, select bank1
 10293  02BD' 1303               	bcf	3,6	;RP1=0, select bank1
 10294  02BE' 0080'              	movwf	sprintf@tmpval^(0+128)
 10295  02BF'                    l4346:
 10296  02BF' 0800'              	movf	(sprintf@fval+3)^(0+128),w
 10297  02C0' 0085'              	movwf	__div_to_l_@f1+3
 10298  02C1' 0800'              	movf	(sprintf@fval+2)^(0+128),w
 10299  02C2' 0084'              	movwf	__div_to_l_@f1+2
 10300  02C3' 0800'              	movf	(sprintf@fval+1)^(0+128),w
 10301  02C4' 0083'              	movwf	__div_to_l_@f1+1
 10302  02C5' 0800'              	movf	sprintf@fval^(0+128),w
 10303  02C6' 0082'              	movwf	__div_to_l_@f1
 10304  02C7' 0800'              	movf	(sprintf@tmpval+3)^(0+128),w
 10305  02C8' 0089'              	movwf	__div_to_l_@f2+3
 10306  02C9' 0800'              	movf	(sprintf@tmpval+2)^(0+128),w
 10307  02CA' 0088'              	movwf	__div_to_l_@f2+2
 10308  02CB' 0800'              	movf	(sprintf@tmpval+1)^(0+128),w
 10309  02CC' 0087'              	movwf	__div_to_l_@f2+1
 10310  02CD' 0800'              	movf	sprintf@tmpval^(0+128),w
 10311  02CE' 0086'              	movwf	__div_to_l_@f2
 10312  02CF' 120A' 118A' 2000' 120A' 118A' 	fcall	__div_to_l_
 10313  02D4' 0805'              	movf	?__div_to_l_+3,w
 10314  02D5' 1683               	bsf	3,5	;RP0=1, select bank1
 10315  02D6' 1303               	bcf	3,6	;RP1=0, select bank1
 10316  02D7' 0080'              	movwf	(sprintf@val+3)^(0+128)
 10317  02D8' 0804'              	movf	?__div_to_l_+2,w
 10318  02D9' 0080'              	movwf	(sprintf@val+2)^(0+128)
 10319  02DA' 0803'              	movf	?__div_to_l_+1,w
 10320  02DB' 0080'              	movwf	(sprintf@val+1)^(0+128)
 10321  02DC' 0802'              	movf	?__div_to_l_,w
 10322  02DD' 0080'              	movwf	sprintf@val^(0+128)
 10323  02DE'                    l4350:
 10324                           
 10325                           ;C:\Program Files\Microchip\xc8\v2.31\pic\sources\c90\common\doprnt.c: 1155:      fval =
      +                           0.0;
 10326  02DE' 3000               	movlw	0
 10327  02DF' 0080'              	movwf	(sprintf@fval+3)^(0+128)
 10328  02E0' 3000               	movlw	0
 10329  02E1' 0080'              	movwf	(sprintf@fval+2)^(0+128)
 10330  02E2' 3000               	movlw	0
 10331  02E3' 0080'              	movwf	(sprintf@fval+1)^(0+128)
 10332  02E4' 3000               	movlw	0
 10333  02E5' 0080'              	movwf	sprintf@fval^(0+128)
 10334                           
 10335                           ;C:\Program Files\Microchip\xc8\v2.31\pic\sources\c90\common\doprnt.c: 1156:     } else 
      +                          {
 10336  02E6' 2800'              	goto	l4358
 10337  02E7'                    l4352:
 10338                           
 10339                           ;C:\Program Files\Microchip\xc8\v2.31\pic\sources\c90\common\doprnt.c: 1157:      val = 
      +                          (unsigned long)fval;
 10340  02E7' 1683               	bsf	3,5	;RP0=1, select bank1
 10341  02E8' 1303               	bcf	3,6	;RP1=0, select bank1
 10342  02E9' 0800'              	movf	(sprintf@fval+3)^(0+128),w
 10343  02EA' 1283               	bcf	3,5	;RP0=0, select bank0
 10344  02EB' 1303               	bcf	3,6	;RP1=0, select bank0
 10345  02EC' 00B8'              	movwf	___fltol@f1+3
 10346  02ED' 1683               	bsf	3,5	;RP0=1, select bank1
 10347  02EE' 1303               	bcf	3,6	;RP1=0, select bank1
 10348  02EF' 0800'              	movf	(sprintf@fval+2)^(0+128),w
 10349  02F0' 1283               	bcf	3,5	;RP0=0, select bank0
 10350  02F1' 1303               	bcf	3,6	;RP1=0, select bank0
 10351  02F2' 00B7'              	movwf	___fltol@f1+2
 10352  02F3' 1683               	bsf	3,5	;RP0=1, select bank1
 10353  02F4' 1303               	bcf	3,6	;RP1=0, select bank1
 10354  02F5' 0800'              	movf	(sprintf@fval+1)^(0+128),w
 10355  02F6' 1283               	bcf	3,5	;RP0=0, select bank0
 10356  02F7' 1303               	bcf	3,6	;RP1=0, select bank0
 10357  02F8' 00B6'              	movwf	___fltol@f1+1
 10358  02F9' 1683               	bsf	3,5	;RP0=1, select bank1
 10359  02FA' 1303               	bcf	3,6	;RP1=0, select bank1
 10360  02FB' 0800'              	movf	sprintf@fval^(0+128),w
 10361  02FC' 1283               	bcf	3,5	;RP0=0, select bank0
 10362  02FD' 1303               	bcf	3,6	;RP1=0, select bank0
 10363  02FE' 00B5'              	movwf	___fltol@f1
 10364  02FF' 120A' 118A' 2000' 120A' 118A' 	fcall	___fltol
 10365  0304' 1283               	bcf	3,5	;RP0=0, select bank0
 10366  0305' 1303               	bcf	3,6	;RP1=0, select bank0
 10367  0306' 0838'              	movf	?___fltol+3,w
 10368  0307' 1683               	bsf	3,5	;RP0=1, select bank1
 10369  0308' 1303               	bcf	3,6	;RP1=0, select bank1
 10370  0309' 0080'              	movwf	(sprintf@val+3)^(0+128)
 10371  030A' 1283               	bcf	3,5	;RP0=0, select bank0
 10372  030B' 1303               	bcf	3,6	;RP1=0, select bank0
 10373  030C' 0837'              	movf	?___fltol+2,w
 10374  030D' 1683               	bsf	3,5	;RP0=1, select bank1
 10375  030E' 1303               	bcf	3,6	;RP1=0, select bank1
 10376  030F' 0080'              	movwf	(sprintf@val+2)^(0+128)
 10377  0310' 1283               	bcf	3,5	;RP0=0, select bank0
 10378  0311' 1303               	bcf	3,6	;RP1=0, select bank0
 10379  0312' 0836'              	movf	?___fltol+1,w
 10380  0313' 1683               	bsf	3,5	;RP0=1, select bank1
 10381  0314' 1303               	bcf	3,6	;RP1=0, select bank1
 10382  0315' 0080'              	movwf	(sprintf@val+1)^(0+128)
 10383  0316' 1283               	bcf	3,5	;RP0=0, select bank0
 10384  0317' 1303               	bcf	3,6	;RP1=0, select bank0
 10385  0318' 0835'              	movf	?___fltol,w
 10386  0319' 1683               	bsf	3,5	;RP0=1, select bank1
 10387  031A' 1303               	bcf	3,6	;RP1=0, select bank1
 10388  031B' 0080'              	movwf	sprintf@val^(0+128)
 10389  031C'                    l4354:
 10390                           
 10391                           ;C:\Program Files\Microchip\xc8\v2.31\pic\sources\c90\common\doprnt.c: 1158:      fval -
      +                          = (double)val;
 10392  031C' 0800'              	movf	(sprintf@val+3)^(0+128),w
 10393  031D' 0085'              	movwf	___xxtofl@val+3
 10394  031E' 0800'              	movf	(sprintf@val+2)^(0+128),w
 10395  031F' 0084'              	movwf	___xxtofl@val+2
 10396  0320' 0800'              	movf	(sprintf@val+1)^(0+128),w
 10397  0321' 0083'              	movwf	___xxtofl@val+1
 10398  0322' 0800'              	movf	sprintf@val^(0+128),w
 10399  0323' 0082'              	movwf	___xxtofl@val
 10400  0324' 3000               	movlw	0
 10401  0325' 120A' 118A' 2000' 120A' 118A' 	fcall	___xxtofl
 10402  032A' 0805'              	movf	?___xxtofl+3,w
 10403  032B' 1683               	bsf	3,5	;RP0=1, select bank1
 10404  032C' 1303               	bcf	3,6	;RP1=0, select bank1
 10405  032D' 0080'              	movwf	(___flsub@a+3)^(0+128)
 10406  032E' 0804'              	movf	?___xxtofl+2,w
 10407  032F' 0080'              	movwf	(___flsub@a+2)^(0+128)
 10408  0330' 0803'              	movf	?___xxtofl+1,w
 10409  0331' 0080'              	movwf	(___flsub@a+1)^(0+128)
 10410  0332' 0802'              	movf	?___xxtofl,w
 10411  0333' 0080'              	movwf	___flsub@a^(0+128)
 10412  0334' 0800'              	movf	(sprintf@fval+3)^(0+128),w
 10413  0335' 0080'              	movwf	(___flsub@b+3)^(0+128)
 10414  0336' 0800'              	movf	(sprintf@fval+2)^(0+128),w
 10415  0337' 0080'              	movwf	(___flsub@b+2)^(0+128)
 10416  0338' 0800'              	movf	(sprintf@fval+1)^(0+128),w
 10417  0339' 0080'              	movwf	(___flsub@b+1)^(0+128)
 10418  033A' 0800'              	movf	sprintf@fval^(0+128),w
 10419  033B' 0080'              	movwf	___flsub@b^(0+128)
 10420  033C' 120A' 118A' 2000' 120A' 118A' 	fcall	___flsub
 10421  0341' 1683               	bsf	3,5	;RP0=1, select bank1
 10422  0342' 1303               	bcf	3,6	;RP1=0, select bank1
 10423  0343' 0800'              	movf	(?___flsub+3)^(0+128),w
 10424  0344' 0080'              	movwf	(sprintf@fval+3)^(0+128)
 10425  0345' 0800'              	movf	(?___flsub+2)^(0+128),w
 10426  0346' 0080'              	movwf	(sprintf@fval+2)^(0+128)
 10427  0347' 0800'              	movf	(?___flsub+1)^(0+128),w
 10428  0348' 0080'              	movwf	(sprintf@fval+1)^(0+128)
 10429  0349' 0800'              	movf	?___flsub^(0+128),w
 10430  034A' 0080'              	movwf	sprintf@fval^(0+128)
 10431  034B'                    l4356:
 10432                           
 10433                           ;C:\Program Files\Microchip\xc8\v2.31\pic\sources\c90\common\doprnt.c: 1159:      eexp =
      +                           0;
 10434  034B' 0180'              	clrf	sprintf@eexp^(0+128)
 10435  034C' 0180'              	clrf	(sprintf@eexp+1)^(0+128)
 10436  034D'                    l4358:
 10437                           
 10438                           ;C:\Program Files\Microchip\xc8\v2.31\pic\sources\c90\common\doprnt.c: 1162:     for(c =
      +                           1 ; c != (sizeof dpowers/sizeof dpowers[0]) ; c++)
 10439  034D' 0180'              	clrf	sprintf@c^(0+128)
 10440  034E' 0A80'              	incf	sprintf@c^(0+128),f
 10441  034F'                    l4364:
 10442                           
 10443                           ;C:\Program Files\Microchip\xc8\v2.31\pic\sources\c90\common\doprnt.c: 1163:      if(val
      +                           < dpowers[c])
 10444  034F' 0800'              	movf	sprintf@c^(0+128),w
 10445  0350' 1283               	bcf	3,5	;RP0=0, select bank0
 10446  0351' 1303               	bcf	3,6	;RP1=0, select bank0
 10447  0352' 00CA'              	movwf	??_sprintf
 10448  0353' 3001               	movlw	1
 10449  0354'                    u6855:
 10450  0354' 1003               	clrc
 10451  0355' 0DCA'              	rlf	??_sprintf,f
 10452  0356' 3EFF               	addlw	-1
 10453  0357' 1D03               	skipz
 10454  0358' 2800'              	goto	u6855
 10455  0359' 1003               	clrc
 10456  035A' 0D4A'              	rlf	??_sprintf,w
 10457  035B' 3E00'              	addlw	low (_dpowers| (0+32768))
 10458  035C' 0084               	movwf	4
 10459  035D' 3000'              	movlw	high (_dpowers| (0+32768))
 10460  035E' 1803               	skipnc
 10461  035F' 3E01               	addlw	1
 10462  0360' 00FF               	movwf	btemp+1
 10463  0361' 120A' 118A' 2000' 120A' 118A' 	fcall	stringtab
 10464  0366' 00CB'              	movwf	??_sprintf+1
 10465  0367' 120A' 118A' 2000' 120A' 118A' 	fcall	stringtab
 10466  036C' 00CC'              	movwf	??_sprintf+2
 10467  036D' 120A' 118A' 2000' 120A' 118A' 	fcall	stringtab
 10468  0372' 00CD'              	movwf	??_sprintf+3
 10469  0373' 120A' 118A' 2000' 120A' 118A' 	fcall	stringtab
 10470  0378' 00CE'              	movwf	??_sprintf+4
 10471  0379' 084E'              	movf	??_sprintf+4,w
 10472  037A' 1683               	bsf	3,5	;RP0=1, select bank1
 10473  037B' 1303               	bcf	3,6	;RP1=0, select bank1
 10474  037C' 0200'              	subwf	(sprintf@val+3)^(0+128),w
 10475  037D' 1D03               	skipz
 10476  037E' 2800'              	goto	u6865
 10477  037F' 1283               	bcf	3,5	;RP0=0, select bank0
 10478  0380' 1303               	bcf	3,6	;RP1=0, select bank0
 10479  0381' 084D'              	movf	??_sprintf+3,w
 10480  0382' 1683               	bsf	3,5	;RP0=1, select bank1
 10481  0383' 1303               	bcf	3,6	;RP1=0, select bank1
 10482  0384' 0200'              	subwf	(sprintf@val+2)^(0+128),w
 10483  0385' 1D03               	skipz
 10484  0386' 2800'              	goto	u6865
 10485  0387' 1283               	bcf	3,5	;RP0=0, select bank0
 10486  0388' 1303               	bcf	3,6	;RP1=0, select bank0
 10487  0389' 084C'              	movf	??_sprintf+2,w
 10488  038A' 1683               	bsf	3,5	;RP0=1, select bank1
 10489  038B' 1303               	bcf	3,6	;RP1=0, select bank1
 10490  038C' 0200'              	subwf	(sprintf@val+1)^(0+128),w
 10491  038D' 1D03               	skipz
 10492  038E' 2800'              	goto	u6865
 10493  038F' 1283               	bcf	3,5	;RP0=0, select bank0
 10494  0390' 1303               	bcf	3,6	;RP1=0, select bank0
 10495  0391' 084B'              	movf	??_sprintf+1,w
 10496  0392' 1683               	bsf	3,5	;RP0=1, select bank1
 10497  0393' 1303               	bcf	3,6	;RP1=0, select bank1
 10498  0394' 0200'              	subwf	sprintf@val^(0+128),w
 10499  0395'                    u6865:
 10500  0395' 1803               	skipnc
 10501  0396' 2800'              	goto	u6861
 10502  0397' 2800'              	goto	u6860
 10503  0398'                    u6861:
 10504  0398' 2800'              	goto	l4368
 10505  0399'                    u6860:
 10506  0399' 2800'              	goto	l4370
 10507  039A'                    l4368:
 10508  039A' 3001               	movlw	1
 10509  039B' 1283               	bcf	3,5	;RP0=0, select bank0
 10510  039C' 1303               	bcf	3,6	;RP1=0, select bank0
 10511  039D' 00CA'              	movwf	??_sprintf
 10512  039E' 084A'              	movf	??_sprintf,w
 10513  039F' 1683               	bsf	3,5	;RP0=1, select bank1
 10514  03A0' 1303               	bcf	3,6	;RP1=0, select bank1
 10515  03A1' 0780'              	addwf	sprintf@c^(0+128),f
 10516  03A2' 300A               	movlw	10
 10517  03A3' 0600'              	xorwf	sprintf@c^(0+128),w
 10518  03A4' 1D03               	btfss	3,2
 10519  03A5' 2800'              	goto	u6871
 10520  03A6' 2800'              	goto	u6870
 10521  03A7'                    u6871:
 10522  03A7' 2800'              	goto	l4364
 10523  03A8'                    u6870:
 10524  03A8'                    l4370:
 10525                           
 10526                           ;C:\Program Files\Microchip\xc8\v2.31\pic\sources\c90\common\doprnt.c: 1168:     width -
      +                          = prec + c + eexp;
 10527  03A8' 0800'              	movf	sprintf@c^(0+128),w
 10528  03A9' 0700'              	addwf	sprintf@prec^(0+128),w
 10529  03AA' 1283               	bcf	3,5	;RP0=0, select bank0
 10530  03AB' 1303               	bcf	3,6	;RP1=0, select bank0
 10531  03AC' 00CA'              	movwf	??_sprintf
 10532  03AD' 1683               	bsf	3,5	;RP0=1, select bank1
 10533  03AE' 1303               	bcf	3,6	;RP1=0, select bank1
 10534  03AF' 0800'              	movf	(sprintf@prec+1)^(0+128),w
 10535  03B0' 1803               	skipnc
 10536  03B1' 0A00'              	incf	(sprintf@prec+1)^(0+128),w
 10537  03B2' 1283               	bcf	3,5	;RP0=0, select bank0
 10538  03B3' 1303               	bcf	3,6	;RP1=0, select bank0
 10539  03B4' 00CB'              	movwf	??_sprintf+1
 10540  03B5' 1683               	bsf	3,5	;RP0=1, select bank1
 10541  03B6' 1303               	bcf	3,6	;RP1=0, select bank1
 10542  03B7' 0800'              	movf	sprintf@eexp^(0+128),w
 10543  03B8' 1283               	bcf	3,5	;RP0=0, select bank0
 10544  03B9' 1303               	bcf	3,6	;RP1=0, select bank0
 10545  03BA' 074A'              	addwf	??_sprintf,w
 10546  03BB' 00CC'              	movwf	??_sprintf+2
 10547  03BC' 1683               	bsf	3,5	;RP0=1, select bank1
 10548  03BD' 1303               	bcf	3,6	;RP1=0, select bank1
 10549  03BE' 0800'              	movf	(sprintf@eexp+1)^(0+128),w
 10550  03BF' 1803               	skipnc
 10551  03C0' 0A00'              	incf	(sprintf@eexp+1)^(0+128),w
 10552  03C1' 1283               	bcf	3,5	;RP0=0, select bank0
 10553  03C2' 1303               	bcf	3,6	;RP1=0, select bank0
 10554  03C3' 074B'              	addwf	??_sprintf+1,w
 10555  03C4' 00CD'              	movwf	??_sprintf+3
 10556  03C5' 084C'              	movf	??_sprintf+2,w
 10557  03C6' 1683               	bsf	3,5	;RP0=1, select bank1
 10558  03C7' 1303               	bcf	3,6	;RP1=0, select bank1
 10559  03C8' 0280'              	subwf	sprintf@width^(0+128),f
 10560  03C9' 1283               	bcf	3,5	;RP0=0, select bank0
 10561  03CA' 1303               	bcf	3,6	;RP1=0, select bank0
 10562  03CB' 084D'              	movf	??_sprintf+3,w
 10563  03CC' 1683               	bsf	3,5	;RP0=1, select bank1
 10564  03CD' 1303               	bcf	3,6	;RP1=0, select bank1
 10565  03CE' 1C03               	skipc
 10566  03CF' 0380'              	decf	(sprintf@width+1)^(0+128),f
 10567  03D0' 0280'              	subwf	(sprintf@width+1)^(0+128),f
 10568                           
 10569                           ;C:\Program Files\Microchip\xc8\v2.31\pic\sources\c90\common\doprnt.c: 1169:     if(
 10570  03D1' 0800'              	movf	sprintf@prec^(0+128),w
 10571  03D2' 0400'              	iorwf	(sprintf@prec+1)^(0+128),w
 10572  03D3' 1903               	btfsc	3,2
 10573  03D4' 2800'              	goto	u6881
 10574  03D5' 2800'              	goto	u6880
 10575  03D6'                    u6881:
 10576  03D6' 2800'              	goto	l4374
 10577  03D7'                    u6880:
 10578  03D7'                    l4372:
 10579                           
 10580                           ;C:\Program Files\Microchip\xc8\v2.31\pic\sources\c90\common\doprnt.c: 1174:      width-
      +                          -;
 10581  03D7' 30FF               	movlw	255
 10582  03D8' 0780'              	addwf	sprintf@width^(0+128),f
 10583  03D9' 1803               	skipnc
 10584  03DA' 0A80'              	incf	(sprintf@width+1)^(0+128),f
 10585  03DB' 30FF               	movlw	255
 10586  03DC' 0780'              	addwf	(sprintf@width+1)^(0+128),f
 10587  03DD'                    l4374:
 10588                           
 10589                           ;C:\Program Files\Microchip\xc8\v2.31\pic\sources\c90\common\doprnt.c: 1175:     if(flag
      +                           & 0x03)
 10590  03DD' 3003               	movlw	3
 10591  03DE' 0500'              	andwf	sprintf@flag^(0+128),w
 10592  03DF' 1283               	bcf	3,5	;RP0=0, select bank0
 10593  03E0' 1303               	bcf	3,6	;RP1=0, select bank0
 10594  03E1' 00CA'              	movwf	??_sprintf
 10595  03E2' 3000               	movlw	0
 10596  03E3' 1683               	bsf	3,5	;RP0=1, select bank1
 10597  03E4' 1303               	bcf	3,6	;RP1=0, select bank1
 10598  03E5' 0500'              	andwf	(sprintf@flag+1)^(0+128),w
 10599  03E6' 1283               	bcf	3,5	;RP0=0, select bank0
 10600  03E7' 1303               	bcf	3,6	;RP1=0, select bank0
 10601  03E8' 00CB'              	movwf	??_sprintf+1
 10602  03E9' 084A'              	movf	??_sprintf,w
 10603  03EA' 044B'              	iorwf	??_sprintf+1,w
 10604  03EB' 1903               	btfsc	3,2
 10605  03EC' 2800'              	goto	u6891
 10606  03ED' 2800'              	goto	u6890
 10607  03EE'                    u6891:
 10608  03EE' 2800'              	goto	l4384
 10609  03EF'                    u6890:
 10610  03EF'                    l4376:
 10611                           
 10612                           ;C:\Program Files\Microchip\xc8\v2.31\pic\sources\c90\common\doprnt.c: 1176:      width-
      +                          -;
 10613  03EF' 30FF               	movlw	255
 10614  03F0' 1683               	bsf	3,5	;RP0=1, select bank1
 10615  03F1' 1303               	bcf	3,6	;RP1=0, select bank1
 10616  03F2' 0780'              	addwf	sprintf@width^(0+128),f
 10617  03F3' 1803               	skipnc
 10618  03F4' 0A80'              	incf	(sprintf@width+1)^(0+128),f
 10619  03F5' 30FF               	movlw	255
 10620  03F6' 0780'              	addwf	(sprintf@width+1)^(0+128),f
 10621  03F7' 2800'              	goto	l4384
 10622  03F8'                    l4378:
 10623                           
 10624                           ;C:\Program Files\Microchip\xc8\v2.31\pic\sources\c90\common\doprnt.c: 1207:       ((*sp
      +                          ++ = (' ')));
 10625  03F8' 3020               	movlw	32
 10626  03F9' 1283               	bcf	3,5	;RP0=0, select bank0
 10627  03FA' 1303               	bcf	3,6	;RP1=0, select bank0
 10628  03FB' 00CA'              	movwf	??_sprintf
 10629  03FC' 1683               	bsf	3,5	;RP0=1, select bank1
 10630  03FD' 1303               	bcf	3,6	;RP1=0, select bank1
 10631  03FE' 0800'              	movf	sprintf@sp^(0+128),w
 10632  03FF' 0084               	movwf	4
 10633  0400' 1783               	bsf	3,7
 10634  0401' 1C00'              	btfss	(sprintf@sp+1)^(0+128),0
 10635  0402' 1383               	bcf	3,7
 10636  0403' 1283               	bcf	3,5	;RP0=0, select bank0
 10637  0404' 1303               	bcf	3,6	;RP1=0, select bank0
 10638  0405' 084A'              	movf	??_sprintf,w
 10639  0406' 0080               	movwf	0
 10640  0407'                    l4380:
 10641  0407' 3001               	movlw	1
 10642  0408' 1683               	bsf	3,5	;RP0=1, select bank1
 10643  0409' 1303               	bcf	3,6	;RP1=0, select bank1
 10644  040A' 0780'              	addwf	sprintf@sp^(0+128),f
 10645  040B' 1803               	skipnc
 10646  040C' 0A80'              	incf	(sprintf@sp+1)^(0+128),f
 10647  040D' 3000               	movlw	0
 10648  040E' 0780'              	addwf	(sprintf@sp+1)^(0+128),f
 10649  040F' 2800'              	goto	l4376
 10650  0410'                    l4384:
 10651                           
 10652                           ;C:\Program Files\Microchip\xc8\v2.31\pic\sources\c90\common\doprnt.c: 1206:      while(
      +                          width > 0) {
 10653  0410' 1683               	bsf	3,5	;RP0=1, select bank1
 10654  0411' 1303               	bcf	3,6	;RP1=0, select bank1
 10655  0412' 0800'              	movf	(sprintf@width+1)^(0+128),w
 10656  0413' 3A80               	xorlw	128
 10657  0414' 00FF               	movwf	btemp+1
 10658  0415' 3080               	movlw	128
 10659  0416' 027F               	subwf	btemp+1,w
 10660  0417' 1D03               	skipz
 10661  0418' 2800'              	goto	u6905
 10662  0419' 3001               	movlw	1
 10663  041A' 0200'              	subwf	sprintf@width^(0+128),w
 10664  041B'                    u6905:
 10665  041B' 1803               	skipnc
 10666  041C' 2800'              	goto	u6901
 10667  041D' 2800'              	goto	u6900
 10668  041E'                    u6901:
 10669  041E' 2800'              	goto	l4378
 10670  041F'                    u6900:
 10671  041F'                    l4386:
 10672                           
 10673                           ;C:\Program Files\Microchip\xc8\v2.31\pic\sources\c90\common\doprnt.c: 1214:     if(flag
      +                           & 0x03)
 10674  041F' 3003               	movlw	3
 10675  0420' 1683               	bsf	3,5	;RP0=1, select bank1
 10676  0421' 1303               	bcf	3,6	;RP1=0, select bank1
 10677  0422' 0500'              	andwf	sprintf@flag^(0+128),w
 10678  0423' 1283               	bcf	3,5	;RP0=0, select bank0
 10679  0424' 1303               	bcf	3,6	;RP1=0, select bank0
 10680  0425' 00CA'              	movwf	??_sprintf
 10681  0426' 3000               	movlw	0
 10682  0427' 1683               	bsf	3,5	;RP0=1, select bank1
 10683  0428' 1303               	bcf	3,6	;RP1=0, select bank1
 10684  0429' 0500'              	andwf	(sprintf@flag+1)^(0+128),w
 10685  042A' 1283               	bcf	3,5	;RP0=0, select bank0
 10686  042B' 1303               	bcf	3,6	;RP1=0, select bank0
 10687  042C' 00CB'              	movwf	??_sprintf+1
 10688  042D' 084A'              	movf	??_sprintf,w
 10689  042E' 044B'              	iorwf	??_sprintf+1,w
 10690  042F' 1903               	btfsc	3,2
 10691  0430' 2800'              	goto	u6911
 10692  0431' 2800'              	goto	u6910
 10693  0432'                    u6911:
 10694  0432' 2800'              	goto	l4400
 10695  0433'                    u6910:
 10696  0433'                    l4388:
 10697                           
 10698                           ;C:\Program Files\Microchip\xc8\v2.31\pic\sources\c90\common\doprnt.c: 1216:      ((*sp+
      +                          + = ('-')));
 10699  0433' 302D               	movlw	45
 10700  0434' 00CA'              	movwf	??_sprintf
 10701  0435' 1683               	bsf	3,5	;RP0=1, select bank1
 10702  0436' 1303               	bcf	3,6	;RP1=0, select bank1
 10703  0437' 0800'              	movf	sprintf@sp^(0+128),w
 10704  0438' 0084               	movwf	4
 10705  0439' 1783               	bsf	3,7
 10706  043A' 1C00'              	btfss	(sprintf@sp+1)^(0+128),0
 10707  043B' 1383               	bcf	3,7
 10708  043C' 1283               	bcf	3,5	;RP0=0, select bank0
 10709  043D' 1303               	bcf	3,6	;RP1=0, select bank0
 10710  043E' 084A'              	movf	??_sprintf,w
 10711  043F' 0080               	movwf	0
 10712  0440'                    l4390:
 10713  0440' 3001               	movlw	1
 10714  0441' 1683               	bsf	3,5	;RP0=1, select bank1
 10715  0442' 1303               	bcf	3,6	;RP1=0, select bank1
 10716  0443' 0780'              	addwf	sprintf@sp^(0+128),f
 10717  0444' 1803               	skipnc
 10718  0445' 0A80'              	incf	(sprintf@sp+1)^(0+128),f
 10719  0446' 3000               	movlw	0
 10720  0447' 0780'              	addwf	(sprintf@sp+1)^(0+128),f
 10721  0448' 2800'              	goto	l4400
 10722  0449'                    l4392:
 10723                           
 10724                           ;C:\Program Files\Microchip\xc8\v2.31\pic\sources\c90\common\doprnt.c: 1226:     {;C:\Pr
      +                          ogram Files\Microchip\xc8\v2.31\pic\sources\c90\common\doprnt.c: 1227:      tmpval.vd = 
      +                          val/dpowers[c];
 10725  0449' 0800'              	movf	sprintf@c^(0+128),w
 10726  044A' 1283               	bcf	3,5	;RP0=0, select bank0
 10727  044B' 1303               	bcf	3,6	;RP1=0, select bank0
 10728  044C' 00CA'              	movwf	??_sprintf
 10729  044D' 3001               	movlw	1
 10730  044E'                    u6925:
 10731  044E' 1003               	clrc
 10732  044F' 0DCA'              	rlf	??_sprintf,f
 10733  0450' 3EFF               	addlw	-1
 10734  0451' 1D03               	skipz
 10735  0452' 2800'              	goto	u6925
 10736  0453' 1003               	clrc
 10737  0454' 0D4A'              	rlf	??_sprintf,w
 10738  0455' 3E00'              	addlw	low (_dpowers| (0+32768))
 10739  0456' 0084               	movwf	4
 10740  0457' 3000'              	movlw	high (_dpowers| (0+32768))
 10741  0458' 1803               	skipnc
 10742  0459' 3E01               	addlw	1
 10743  045A' 00FF               	movwf	btemp+1
 10744  045B' 120A' 118A' 2000' 120A' 118A' 	fcall	stringtab
 10745  0460' 0082'              	movwf	___lldiv@divisor
 10746  0461' 120A' 118A' 2000' 120A' 118A' 	fcall	stringtab
 10747  0466' 0083'              	movwf	___lldiv@divisor+1
 10748  0467' 120A' 118A' 2000' 120A' 118A' 	fcall	stringtab
 10749  046C' 0084'              	movwf	___lldiv@divisor+2
 10750  046D' 120A' 118A' 2000' 120A' 118A' 	fcall	stringtab
 10751  0472' 0085'              	movwf	___lldiv@divisor+3
 10752  0473' 1683               	bsf	3,5	;RP0=1, select bank1
 10753  0474' 1303               	bcf	3,6	;RP1=0, select bank1
 10754  0475' 0800'              	movf	(sprintf@val+3)^(0+128),w
 10755  0476' 0089'              	movwf	___lldiv@dividend+3
 10756  0477' 0800'              	movf	(sprintf@val+2)^(0+128),w
 10757  0478' 0088'              	movwf	___lldiv@dividend+2
 10758  0479' 0800'              	movf	(sprintf@val+1)^(0+128),w
 10759  047A' 0087'              	movwf	___lldiv@dividend+1
 10760  047B' 0800'              	movf	sprintf@val^(0+128),w
 10761  047C' 0086'              	movwf	___lldiv@dividend
 10762  047D' 120A' 118A' 2000' 120A' 118A' 	fcall	___lldiv
 10763  0482' 0805'              	movf	?___lldiv+3,w
 10764  0483' 1683               	bsf	3,5	;RP0=1, select bank1
 10765  0484' 1303               	bcf	3,6	;RP1=0, select bank1
 10766  0485' 0080'              	movwf	(sprintf@tmpval+3)^(0+128)
 10767  0486' 0804'              	movf	?___lldiv+2,w
 10768  0487' 0080'              	movwf	(sprintf@tmpval+2)^(0+128)
 10769  0488' 0803'              	movf	?___lldiv+1,w
 10770  0489' 0080'              	movwf	(sprintf@tmpval+1)^(0+128)
 10771  048A' 0802'              	movf	?___lldiv,w
 10772  048B' 0080'              	movwf	sprintf@tmpval^(0+128)
 10773  048C'                    l4394:
 10774                           
 10775                           ;C:\Program Files\Microchip\xc8\v2.31\pic\sources\c90\common\doprnt.c: 1228:      tmpval
      +                          .vd %= 10;
 10776  048C' 3000               	movlw	0
 10777  048D' 0085'              	movwf	___llmod@divisor+3
 10778  048E' 3000               	movlw	0
 10779  048F' 0084'              	movwf	___llmod@divisor+2
 10780  0490' 3000               	movlw	0
 10781  0491' 0083'              	movwf	___llmod@divisor+1
 10782  0492' 300A               	movlw	10
 10783  0493' 0082'              	movwf	___llmod@divisor
 10784  0494' 0800'              	movf	(sprintf@tmpval+3)^(0+128),w
 10785  0495' 0089'              	movwf	___llmod@dividend+3
 10786  0496' 0800'              	movf	(sprintf@tmpval+2)^(0+128),w
 10787  0497' 0088'              	movwf	___llmod@dividend+2
 10788  0498' 0800'              	movf	(sprintf@tmpval+1)^(0+128),w
 10789  0499' 0087'              	movwf	___llmod@dividend+1
 10790  049A' 0800'              	movf	sprintf@tmpval^(0+128),w
 10791  049B' 0086'              	movwf	___llmod@dividend
 10792  049C' 120A' 118A' 2000' 120A' 118A' 	fcall	___llmod
 10793  04A1' 0805'              	movf	?___llmod+3,w
 10794  04A2' 1683               	bsf	3,5	;RP0=1, select bank1
 10795  04A3' 1303               	bcf	3,6	;RP1=0, select bank1
 10796  04A4' 0080'              	movwf	(sprintf@tmpval+3)^(0+128)
 10797  04A5' 0804'              	movf	?___llmod+2,w
 10798  04A6' 0080'              	movwf	(sprintf@tmpval+2)^(0+128)
 10799  04A7' 0803'              	movf	?___llmod+1,w
 10800  04A8' 0080'              	movwf	(sprintf@tmpval+1)^(0+128)
 10801  04A9' 0802'              	movf	?___llmod,w
 10802  04AA' 0080'              	movwf	sprintf@tmpval^(0+128)
 10803  04AB'                    l4396:
 10804                           
 10805                           ;C:\Program Files\Microchip\xc8\v2.31\pic\sources\c90\common\doprnt.c: 1229:      ((*sp+
      +                          + = ('0' + tmpval.vd)));
 10806  04AB' 0800'              	movf	sprintf@tmpval^(0+128),w
 10807  04AC' 3E30               	addlw	48
 10808  04AD' 1283               	bcf	3,5	;RP0=0, select bank0
 10809  04AE' 1303               	bcf	3,6	;RP1=0, select bank0
 10810  04AF' 00CA'              	movwf	??_sprintf
 10811  04B0' 1683               	bsf	3,5	;RP0=1, select bank1
 10812  04B1' 1303               	bcf	3,6	;RP1=0, select bank1
 10813  04B2' 0800'              	movf	sprintf@sp^(0+128),w
 10814  04B3' 0084               	movwf	4
 10815  04B4' 1783               	bsf	3,7
 10816  04B5' 1C00'              	btfss	(sprintf@sp+1)^(0+128),0
 10817  04B6' 1383               	bcf	3,7
 10818  04B7' 1283               	bcf	3,5	;RP0=0, select bank0
 10819  04B8' 1303               	bcf	3,6	;RP1=0, select bank0
 10820  04B9' 084A'              	movf	??_sprintf,w
 10821  04BA' 0080               	movwf	0
 10822  04BB' 2800'              	goto	l4390
 10823  04BC'                    l4400:
 10824                           
 10825                           ;C:\Program Files\Microchip\xc8\v2.31\pic\sources\c90\common\doprnt.c: 1222:    while(c-
      +                          -) {
 10826  04BC' 3001               	movlw	1
 10827  04BD' 1683               	bsf	3,5	;RP0=1, select bank1
 10828  04BE' 1303               	bcf	3,6	;RP1=0, select bank1
 10829  04BF' 0280'              	subwf	sprintf@c^(0+128),f
 10830  04C0' 0A00'              	incf	sprintf@c^(0+128),w
 10831  04C1' 1D03               	btfss	3,2
 10832  04C2' 2800'              	goto	u6931
 10833  04C3' 2800'              	goto	u6930
 10834  04C4'                    u6931:
 10835  04C4' 2800'              	goto	l4392
 10836  04C5'                    u6930:
 10837  04C5' 2800'              	goto	l4408
 10838  04C6'                    l4402:
 10839                           
 10840                           ;C:\Program Files\Microchip\xc8\v2.31\pic\sources\c90\common\doprnt.c: 1234:     ((*sp++
      +                           = ('0')));
 10841  04C6' 3030               	movlw	48
 10842  04C7' 1283               	bcf	3,5	;RP0=0, select bank0
 10843  04C8' 1303               	bcf	3,6	;RP1=0, select bank0
 10844  04C9' 00CA'              	movwf	??_sprintf
 10845  04CA' 1683               	bsf	3,5	;RP0=1, select bank1
 10846  04CB' 1303               	bcf	3,6	;RP1=0, select bank1
 10847  04CC' 0800'              	movf	sprintf@sp^(0+128),w
 10848  04CD' 0084               	movwf	4
 10849  04CE' 1783               	bsf	3,7
 10850  04CF' 1C00'              	btfss	(sprintf@sp+1)^(0+128),0
 10851  04D0' 1383               	bcf	3,7
 10852  04D1' 1283               	bcf	3,5	;RP0=0, select bank0
 10853  04D2' 1303               	bcf	3,6	;RP1=0, select bank0
 10854  04D3' 084A'              	movf	??_sprintf,w
 10855  04D4' 0080               	movwf	0
 10856  04D5'                    l4404:
 10857  04D5' 3001               	movlw	1
 10858  04D6' 1683               	bsf	3,5	;RP0=1, select bank1
 10859  04D7' 1303               	bcf	3,6	;RP1=0, select bank1
 10860  04D8' 0780'              	addwf	sprintf@sp^(0+128),f
 10861  04D9' 1803               	skipnc
 10862  04DA' 0A80'              	incf	(sprintf@sp+1)^(0+128),f
 10863  04DB' 3000               	movlw	0
 10864  04DC' 0780'              	addwf	(sprintf@sp+1)^(0+128),f
 10865  04DD'                    l4406:
 10866                           
 10867                           ;C:\Program Files\Microchip\xc8\v2.31\pic\sources\c90\common\doprnt.c: 1235:     eexp--;
 10868  04DD' 30FF               	movlw	255
 10869  04DE' 0780'              	addwf	sprintf@eexp^(0+128),f
 10870  04DF' 1803               	skipnc
 10871  04E0' 0A80'              	incf	(sprintf@eexp+1)^(0+128),f
 10872  04E1' 30FF               	movlw	255
 10873  04E2' 0780'              	addwf	(sprintf@eexp+1)^(0+128),f
 10874  04E3'                    l4408:
 10875                           
 10876                           ;C:\Program Files\Microchip\xc8\v2.31\pic\sources\c90\common\doprnt.c: 1233:    while(ee
      +                          xp > 0) {
 10877  04E3' 0800'              	movf	(sprintf@eexp+1)^(0+128),w
 10878  04E4' 3A80               	xorlw	128
 10879  04E5' 00FF               	movwf	btemp+1
 10880  04E6' 3080               	movlw	128
 10881  04E7' 027F               	subwf	btemp+1,w
 10882  04E8' 1D03               	skipz
 10883  04E9' 2800'              	goto	u6945
 10884  04EA' 3001               	movlw	1
 10885  04EB' 0200'              	subwf	sprintf@eexp^(0+128),w
 10886  04EC'                    u6945:
 10887  04EC' 1803               	skipnc
 10888  04ED' 2800'              	goto	u6941
 10889  04EE' 2800'              	goto	u6940
 10890  04EF'                    u6941:
 10891  04EF' 2800'              	goto	l4402
 10892  04F0'                    u6940:
 10893  04F0'                    l4410:
 10894                           
 10895                           ;C:\Program Files\Microchip\xc8\v2.31\pic\sources\c90\common\doprnt.c: 1237:    if(prec 
      +                          > (int)((sizeof dpowers/sizeof dpowers[0])-2))
 10896  04F0' 1683               	bsf	3,5	;RP0=1, select bank1
 10897  04F1' 1303               	bcf	3,6	;RP1=0, select bank1
 10898  04F2' 0800'              	movf	(sprintf@prec+1)^(0+128),w
 10899  04F3' 3A80               	xorlw	128
 10900  04F4' 00FF               	movwf	btemp+1
 10901  04F5' 3080               	movlw	128
 10902  04F6' 027F               	subwf	btemp+1,w
 10903  04F7' 1D03               	skipz
 10904  04F8' 2800'              	goto	u6955
 10905  04F9' 3009               	movlw	9
 10906  04FA' 0200'              	subwf	sprintf@prec^(0+128),w
 10907  04FB'                    u6955:
 10908  04FB' 1C03               	skipc
 10909  04FC' 2800'              	goto	u6951
 10910  04FD' 2800'              	goto	u6950
 10911  04FE'                    u6951:
 10912  04FE' 2800'              	goto	l4414
 10913  04FF'                    u6950:
 10914  04FF'                    l4412:
 10915                           
 10916                           ;C:\Program Files\Microchip\xc8\v2.31\pic\sources\c90\common\doprnt.c: 1238:     c = (si
      +                          zeof dpowers/sizeof dpowers[0])-2;
 10917  04FF' 3008               	movlw	8
 10918  0500' 1283               	bcf	3,5	;RP0=0, select bank0
 10919  0501' 1303               	bcf	3,6	;RP1=0, select bank0
 10920  0502' 00CA'              	movwf	??_sprintf
 10921  0503' 084A'              	movf	??_sprintf,w
 10922  0504' 1683               	bsf	3,5	;RP0=1, select bank1
 10923  0505' 1303               	bcf	3,6	;RP1=0, select bank1
 10924  0506' 0080'              	movwf	sprintf@c^(0+128)
 10925  0507' 2800'              	goto	l372
 10926  0508'                    l4414:
 10927                           
 10928                           ;C:\Program Files\Microchip\xc8\v2.31\pic\sources\c90\common\doprnt.c: 1240:     c = (ch
      +                          ar)prec;
 10929  0508' 1683               	bsf	3,5	;RP0=1, select bank1
 10930  0509' 1303               	bcf	3,6	;RP1=0, select bank1
 10931  050A' 0800'              	movf	sprintf@prec^(0+128),w
 10932  050B' 1283               	bcf	3,5	;RP0=0, select bank0
 10933  050C' 1303               	bcf	3,6	;RP1=0, select bank0
 10934  050D' 00CA'              	movwf	??_sprintf
 10935  050E' 084A'              	movf	??_sprintf,w
 10936  050F' 1683               	bsf	3,5	;RP0=1, select bank1
 10937  0510' 1303               	bcf	3,6	;RP1=0, select bank1
 10938  0511' 0080'              	movwf	sprintf@c^(0+128)
 10939  0512'                    l372:
 10940                           
 10941                           ;C:\Program Files\Microchip\xc8\v2.31\pic\sources\c90\common\doprnt.c: 1241:    prec -= 
      +                          (int)c;
 10942  0512' 0800'              	movf	sprintf@c^(0+128),w
 10943  0513' 1283               	bcf	3,5	;RP0=0, select bank0
 10944  0514' 1303               	bcf	3,6	;RP1=0, select bank0
 10945  0515' 00CA'              	movwf	??_sprintf
 10946  0516' 01CB'              	clrf	??_sprintf+1
 10947  0517' 084A'              	movf	??_sprintf,w
 10948  0518' 1683               	bsf	3,5	;RP0=1, select bank1
 10949  0519' 1303               	bcf	3,6	;RP1=0, select bank1
 10950  051A' 0280'              	subwf	sprintf@prec^(0+128),f
 10951  051B' 1283               	bcf	3,5	;RP0=0, select bank0
 10952  051C' 1303               	bcf	3,6	;RP1=0, select bank0
 10953  051D' 084B'              	movf	??_sprintf+1,w
 10954  051E' 1683               	bsf	3,5	;RP0=1, select bank1
 10955  051F' 1303               	bcf	3,6	;RP1=0, select bank1
 10956  0520' 1C03               	skipc
 10957  0521' 0380'              	decf	(sprintf@prec+1)^(0+128),f
 10958  0522' 0280'              	subwf	(sprintf@prec+1)^(0+128),f
 10959  0523'                    l4416:
 10960                           
 10961                           ;C:\Program Files\Microchip\xc8\v2.31\pic\sources\c90\common\doprnt.c: 1245:    if(c)
 10962  0523' 0800'              	movf	sprintf@c^(0+128),w
 10963  0524' 1903               	btfsc	3,2
 10964  0525' 2800'              	goto	u6961
 10965  0526' 2800'              	goto	u6960
 10966  0527'                    u6961:
 10967  0527' 2800'              	goto	l4422
 10968  0528'                    u6960:
 10969  0528'                    l4418:
 10970                           
 10971                           ;C:\Program Files\Microchip\xc8\v2.31\pic\sources\c90\common\doprnt.c: 1247:     ((*sp++
      +                           = ('.')));
 10972  0528' 302E               	movlw	46
 10973  0529' 1283               	bcf	3,5	;RP0=0, select bank0
 10974  052A' 1303               	bcf	3,6	;RP1=0, select bank0
 10975  052B' 00CA'              	movwf	??_sprintf
 10976  052C' 1683               	bsf	3,5	;RP0=1, select bank1
 10977  052D' 1303               	bcf	3,6	;RP1=0, select bank1
 10978  052E' 0800'              	movf	sprintf@sp^(0+128),w
 10979  052F' 0084               	movwf	4
 10980  0530' 1783               	bsf	3,7
 10981  0531' 1C00'              	btfss	(sprintf@sp+1)^(0+128),0
 10982  0532' 1383               	bcf	3,7
 10983  0533' 1283               	bcf	3,5	;RP0=0, select bank0
 10984  0534' 1303               	bcf	3,6	;RP1=0, select bank0
 10985  0535' 084A'              	movf	??_sprintf,w
 10986  0536' 0080               	movwf	0
 10987  0537'                    l4420:
 10988  0537' 3001               	movlw	1
 10989  0538' 1683               	bsf	3,5	;RP0=1, select bank1
 10990  0539' 1303               	bcf	3,6	;RP1=0, select bank1
 10991  053A' 0780'              	addwf	sprintf@sp^(0+128),f
 10992  053B' 1803               	skipnc
 10993  053C' 0A80'              	incf	(sprintf@sp+1)^(0+128),f
 10994  053D' 3000               	movlw	0
 10995  053E' 0780'              	addwf	(sprintf@sp+1)^(0+128),f
 10996  053F'                    l4422:
 10997                           
 10998                           ;C:\Program Files\Microchip\xc8\v2.31\pic\sources\c90\common\doprnt.c: 1253:    val = (u
      +                          nsigned long)(fval * scale((signed char)c));
 10999  053F' 0800'              	movf	sprintf@c^(0+128),w
 11000  0540' 120A' 118A' 2000' 120A' 118A' 	fcall	_scale
 11001  0545' 1283               	bcf	3,5	;RP0=0, select bank0
 11002  0546' 1303               	bcf	3,6	;RP1=0, select bank0
 11003  0547' 0825'              	movf	?_scale+3,w
 11004  0548' 1683               	bsf	3,5	;RP0=1, select bank1
 11005  0549' 1303               	bcf	3,6	;RP1=0, select bank1
 11006  054A' 0080'              	movwf	(_sprintf$1192+3)^(0+128)
 11007  054B' 1283               	bcf	3,5	;RP0=0, select bank0
 11008  054C' 1303               	bcf	3,6	;RP1=0, select bank0
 11009  054D' 0824'              	movf	?_scale+2,w
 11010  054E' 1683               	bsf	3,5	;RP0=1, select bank1
 11011  054F' 1303               	bcf	3,6	;RP1=0, select bank1
 11012  0550' 0080'              	movwf	(_sprintf$1192+2)^(0+128)
 11013  0551' 1283               	bcf	3,5	;RP0=0, select bank0
 11014  0552' 1303               	bcf	3,6	;RP1=0, select bank0
 11015  0553' 0823'              	movf	?_scale+1,w
 11016  0554' 1683               	bsf	3,5	;RP0=1, select bank1
 11017  0555' 1303               	bcf	3,6	;RP1=0, select bank1
 11018  0556' 0080'              	movwf	(_sprintf$1192+1)^(0+128)
 11019  0557' 1283               	bcf	3,5	;RP0=0, select bank0
 11020  0558' 1303               	bcf	3,6	;RP1=0, select bank0
 11021  0559' 0822'              	movf	?_scale,w
 11022  055A' 1683               	bsf	3,5	;RP0=1, select bank1
 11023  055B' 1303               	bcf	3,6	;RP1=0, select bank1
 11024  055C' 0080'              	movwf	_sprintf$1192^(0+128)
 11025                           
 11026                           ;C:\Program Files\Microchip\xc8\v2.31\pic\sources\c90\common\doprnt.c: 1253:    val = (u
      +                          nsigned long)(fval * scale((signed char)c));
 11027  055D' 0800'              	movf	(_sprintf$1192+3)^(0+128),w
 11028  055E' 1283               	bcf	3,5	;RP0=0, select bank0
 11029  055F' 1303               	bcf	3,6	;RP1=0, select bank0
 11030  0560' 008F'              	movwf	___flmul@a+3
 11031  0561' 1683               	bsf	3,5	;RP0=1, select bank1
 11032  0562' 1303               	bcf	3,6	;RP1=0, select bank1
 11033  0563' 0800'              	movf	(_sprintf$1192+2)^(0+128),w
 11034  0564' 1283               	bcf	3,5	;RP0=0, select bank0
 11035  0565' 1303               	bcf	3,6	;RP1=0, select bank0
 11036  0566' 008E'              	movwf	___flmul@a+2
 11037  0567' 1683               	bsf	3,5	;RP0=1, select bank1
 11038  0568' 1303               	bcf	3,6	;RP1=0, select bank1
 11039  0569' 0800'              	movf	(_sprintf$1192+1)^(0+128),w
 11040  056A' 1283               	bcf	3,5	;RP0=0, select bank0
 11041  056B' 1303               	bcf	3,6	;RP1=0, select bank0
 11042  056C' 008D'              	movwf	___flmul@a+1
 11043  056D' 1683               	bsf	3,5	;RP0=1, select bank1
 11044  056E' 1303               	bcf	3,6	;RP1=0, select bank1
 11045  056F' 0800'              	movf	_sprintf$1192^(0+128),w
 11046  0570' 1283               	bcf	3,5	;RP0=0, select bank0
 11047  0571' 1303               	bcf	3,6	;RP1=0, select bank0
 11048  0572' 008C'              	movwf	___flmul@a
 11049  0573' 1683               	bsf	3,5	;RP0=1, select bank1
 11050  0574' 1303               	bcf	3,6	;RP1=0, select bank1
 11051  0575' 0800'              	movf	(sprintf@fval+3)^(0+128),w
 11052  0576' 1283               	bcf	3,5	;RP0=0, select bank0
 11053  0577' 1303               	bcf	3,6	;RP1=0, select bank0
 11054  0578' 008B'              	movwf	___flmul@b+3
 11055  0579' 1683               	bsf	3,5	;RP0=1, select bank1
 11056  057A' 1303               	bcf	3,6	;RP1=0, select bank1
 11057  057B' 0800'              	movf	(sprintf@fval+2)^(0+128),w
 11058  057C' 1283               	bcf	3,5	;RP0=0, select bank0
 11059  057D' 1303               	bcf	3,6	;RP1=0, select bank0
 11060  057E' 008A'              	movwf	___flmul@b+2
 11061  057F' 1683               	bsf	3,5	;RP0=1, select bank1
 11062  0580' 1303               	bcf	3,6	;RP1=0, select bank1
 11063  0581' 0800'              	movf	(sprintf@fval+1)^(0+128),w
 11064  0582' 1283               	bcf	3,5	;RP0=0, select bank0
 11065  0583' 1303               	bcf	3,6	;RP1=0, select bank0
 11066  0584' 0089'              	movwf	___flmul@b+1
 11067  0585' 1683               	bsf	3,5	;RP0=1, select bank1
 11068  0586' 1303               	bcf	3,6	;RP1=0, select bank1
 11069  0587' 0800'              	movf	sprintf@fval^(0+128),w
 11070  0588' 1283               	bcf	3,5	;RP0=0, select bank0
 11071  0589' 1303               	bcf	3,6	;RP1=0, select bank0
 11072  058A' 0088'              	movwf	___flmul@b
 11073  058B' 120A' 118A' 2000' 120A' 118A' 	fcall	___flmul
 11074  0590' 1283               	bcf	3,5	;RP0=0, select bank0
 11075  0591' 1303               	bcf	3,6	;RP1=0, select bank0
 11076  0592' 080B'              	movf	?___flmul+3,w
 11077  0593' 00B8'              	movwf	___fltol@f1+3
 11078  0594' 080A'              	movf	?___flmul+2,w
 11079  0595' 00B7'              	movwf	___fltol@f1+2
 11080  0596' 0809'              	movf	?___flmul+1,w
 11081  0597' 00B6'              	movwf	___fltol@f1+1
 11082  0598' 0808'              	movf	?___flmul,w
 11083  0599' 00B5'              	movwf	___fltol@f1
 11084  059A' 120A' 118A' 2000' 120A' 118A' 	fcall	___fltol
 11085  059F' 1283               	bcf	3,5	;RP0=0, select bank0
 11086  05A0' 1303               	bcf	3,6	;RP1=0, select bank0
 11087  05A1' 0838'              	movf	?___fltol+3,w
 11088  05A2' 1683               	bsf	3,5	;RP0=1, select bank1
 11089  05A3' 1303               	bcf	3,6	;RP1=0, select bank1
 11090  05A4' 0080'              	movwf	(sprintf@val+3)^(0+128)
 11091  05A5' 1283               	bcf	3,5	;RP0=0, select bank0
 11092  05A6' 1303               	bcf	3,6	;RP1=0, select bank0
 11093  05A7' 0837'              	movf	?___fltol+2,w
 11094  05A8' 1683               	bsf	3,5	;RP0=1, select bank1
 11095  05A9' 1303               	bcf	3,6	;RP1=0, select bank1
 11096  05AA' 0080'              	movwf	(sprintf@val+2)^(0+128)
 11097  05AB' 1283               	bcf	3,5	;RP0=0, select bank0
 11098  05AC' 1303               	bcf	3,6	;RP1=0, select bank0
 11099  05AD' 0836'              	movf	?___fltol+1,w
 11100  05AE' 1683               	bsf	3,5	;RP0=1, select bank1
 11101  05AF' 1303               	bcf	3,6	;RP1=0, select bank1
 11102  05B0' 0080'              	movwf	(sprintf@val+1)^(0+128)
 11103  05B1' 1283               	bcf	3,5	;RP0=0, select bank0
 11104  05B2' 1303               	bcf	3,6	;RP1=0, select bank0
 11105  05B3' 0835'              	movf	?___fltol,w
 11106  05B4' 1683               	bsf	3,5	;RP0=1, select bank1
 11107  05B5' 1303               	bcf	3,6	;RP1=0, select bank1
 11108  05B6' 0080'              	movwf	sprintf@val^(0+128)
 11109                           
 11110                           ;C:\Program Files\Microchip\xc8\v2.31\pic\sources\c90\common\doprnt.c: 1254:    while(c-
      +                          -) {
 11111  05B7' 2800'              	goto	l4434
 11112  05B8'                    l4424:
 11113                           
 11114                           ;C:\Program Files\Microchip\xc8\v2.31\pic\sources\c90\common\doprnt.c: 1255:     tmpval.
      +                          vd = val/dpowers[c];
 11115  05B8' 0800'              	movf	sprintf@c^(0+128),w
 11116  05B9' 1283               	bcf	3,5	;RP0=0, select bank0
 11117  05BA' 1303               	bcf	3,6	;RP1=0, select bank0
 11118  05BB' 00CA'              	movwf	??_sprintf
 11119  05BC' 3001               	movlw	1
 11120  05BD'                    u6975:
 11121  05BD' 1003               	clrc
 11122  05BE' 0DCA'              	rlf	??_sprintf,f
 11123  05BF' 3EFF               	addlw	-1
 11124  05C0' 1D03               	skipz
 11125  05C1' 2800'              	goto	u6975
 11126  05C2' 1003               	clrc
 11127  05C3' 0D4A'              	rlf	??_sprintf,w
 11128  05C4' 3E00'              	addlw	low (_dpowers| (0+32768))
 11129  05C5' 0084               	movwf	4
 11130  05C6' 3000'              	movlw	high (_dpowers| (0+32768))
 11131  05C7' 1803               	skipnc
 11132  05C8' 3E01               	addlw	1
 11133  05C9' 00FF               	movwf	btemp+1
 11134  05CA' 120A' 118A' 2000' 120A' 118A' 	fcall	stringtab
 11135  05CF' 0082'              	movwf	___lldiv@divisor
 11136  05D0' 120A' 118A' 2000' 120A' 118A' 	fcall	stringtab
 11137  05D5' 0083'              	movwf	___lldiv@divisor+1
 11138  05D6' 120A' 118A' 2000' 120A' 118A' 	fcall	stringtab
 11139  05DB' 0084'              	movwf	___lldiv@divisor+2
 11140  05DC' 120A' 118A' 2000' 120A' 118A' 	fcall	stringtab
 11141  05E1' 0085'              	movwf	___lldiv@divisor+3
 11142  05E2' 1683               	bsf	3,5	;RP0=1, select bank1
 11143  05E3' 1303               	bcf	3,6	;RP1=0, select bank1
 11144  05E4' 0800'              	movf	(sprintf@val+3)^(0+128),w
 11145  05E5' 0089'              	movwf	___lldiv@dividend+3
 11146  05E6' 0800'              	movf	(sprintf@val+2)^(0+128),w
 11147  05E7' 0088'              	movwf	___lldiv@dividend+2
 11148  05E8' 0800'              	movf	(sprintf@val+1)^(0+128),w
 11149  05E9' 0087'              	movwf	___lldiv@dividend+1
 11150  05EA' 0800'              	movf	sprintf@val^(0+128),w
 11151  05EB' 0086'              	movwf	___lldiv@dividend
 11152  05EC' 120A' 118A' 2000' 120A' 118A' 	fcall	___lldiv
 11153  05F1' 0805'              	movf	?___lldiv+3,w
 11154  05F2' 1683               	bsf	3,5	;RP0=1, select bank1
 11155  05F3' 1303               	bcf	3,6	;RP1=0, select bank1
 11156  05F4' 0080'              	movwf	(sprintf@tmpval+3)^(0+128)
 11157  05F5' 0804'              	movf	?___lldiv+2,w
 11158  05F6' 0080'              	movwf	(sprintf@tmpval+2)^(0+128)
 11159  05F7' 0803'              	movf	?___lldiv+1,w
 11160  05F8' 0080'              	movwf	(sprintf@tmpval+1)^(0+128)
 11161  05F9' 0802'              	movf	?___lldiv,w
 11162  05FA' 0080'              	movwf	sprintf@tmpval^(0+128)
 11163  05FB'                    l4426:
 11164                           
 11165                           ;C:\Program Files\Microchip\xc8\v2.31\pic\sources\c90\common\doprnt.c: 1256:     tmpval.
      +                          vd %= 10;
 11166  05FB' 3000               	movlw	0
 11167  05FC' 0085'              	movwf	___llmod@divisor+3
 11168  05FD' 3000               	movlw	0
 11169  05FE' 0084'              	movwf	___llmod@divisor+2
 11170  05FF' 3000               	movlw	0
 11171  0600' 0083'              	movwf	___llmod@divisor+1
 11172  0601' 300A               	movlw	10
 11173  0602' 0082'              	movwf	___llmod@divisor
 11174  0603' 0800'              	movf	(sprintf@tmpval+3)^(0+128),w
 11175  0604' 0089'              	movwf	___llmod@dividend+3
 11176  0605' 0800'              	movf	(sprintf@tmpval+2)^(0+128),w
 11177  0606' 0088'              	movwf	___llmod@dividend+2
 11178  0607' 0800'              	movf	(sprintf@tmpval+1)^(0+128),w
 11179  0608' 0087'              	movwf	___llmod@dividend+1
 11180  0609' 0800'              	movf	sprintf@tmpval^(0+128),w
 11181  060A' 0086'              	movwf	___llmod@dividend
 11182  060B' 120A' 118A' 2000' 120A' 118A' 	fcall	___llmod
 11183  0610' 0805'              	movf	?___llmod+3,w
 11184  0611' 1683               	bsf	3,5	;RP0=1, select bank1
 11185  0612' 1303               	bcf	3,6	;RP1=0, select bank1
 11186  0613' 0080'              	movwf	(sprintf@tmpval+3)^(0+128)
 11187  0614' 0804'              	movf	?___llmod+2,w
 11188  0615' 0080'              	movwf	(sprintf@tmpval+2)^(0+128)
 11189  0616' 0803'              	movf	?___llmod+1,w
 11190  0617' 0080'              	movwf	(sprintf@tmpval+1)^(0+128)
 11191  0618' 0802'              	movf	?___llmod,w
 11192  0619' 0080'              	movwf	sprintf@tmpval^(0+128)
 11193  061A'                    l4428:
 11194                           
 11195                           ;C:\Program Files\Microchip\xc8\v2.31\pic\sources\c90\common\doprnt.c: 1257:     ((*sp++
      +                           = ('0' + tmpval.vd)));
 11196  061A' 0800'              	movf	sprintf@tmpval^(0+128),w
 11197  061B' 3E30               	addlw	48
 11198  061C' 1283               	bcf	3,5	;RP0=0, select bank0
 11199  061D' 1303               	bcf	3,6	;RP1=0, select bank0
 11200  061E' 00CA'              	movwf	??_sprintf
 11201  061F' 1683               	bsf	3,5	;RP0=1, select bank1
 11202  0620' 1303               	bcf	3,6	;RP1=0, select bank1
 11203  0621' 0800'              	movf	sprintf@sp^(0+128),w
 11204  0622' 0084               	movwf	4
 11205  0623' 1783               	bsf	3,7
 11206  0624' 1C00'              	btfss	(sprintf@sp+1)^(0+128),0
 11207  0625' 1383               	bcf	3,7
 11208  0626' 1283               	bcf	3,5	;RP0=0, select bank0
 11209  0627' 1303               	bcf	3,6	;RP1=0, select bank0
 11210  0628' 084A'              	movf	??_sprintf,w
 11211  0629' 0080               	movwf	0
 11212  062A'                    l4430:
 11213  062A' 3001               	movlw	1
 11214  062B' 1683               	bsf	3,5	;RP0=1, select bank1
 11215  062C' 1303               	bcf	3,6	;RP1=0, select bank1
 11216  062D' 0780'              	addwf	sprintf@sp^(0+128),f
 11217  062E' 1803               	skipnc
 11218  062F' 0A80'              	incf	(sprintf@sp+1)^(0+128),f
 11219  0630' 3000               	movlw	0
 11220  0631' 0780'              	addwf	(sprintf@sp+1)^(0+128),f
 11221  0632'                    l4432:
 11222                           
 11223                           ;C:\Program Files\Microchip\xc8\v2.31\pic\sources\c90\common\doprnt.c: 1258:     val %= 
      +                          dpowers[c];
 11224  0632' 0800'              	movf	sprintf@c^(0+128),w
 11225  0633' 1283               	bcf	3,5	;RP0=0, select bank0
 11226  0634' 1303               	bcf	3,6	;RP1=0, select bank0
 11227  0635' 00CA'              	movwf	??_sprintf
 11228  0636' 3001               	movlw	1
 11229  0637'                    u6985:
 11230  0637' 1003               	clrc
 11231  0638' 0DCA'              	rlf	??_sprintf,f
 11232  0639' 3EFF               	addlw	-1
 11233  063A' 1D03               	skipz
 11234  063B' 2800'              	goto	u6985
 11235  063C' 1003               	clrc
 11236  063D' 0D4A'              	rlf	??_sprintf,w
 11237  063E' 3E00'              	addlw	low (_dpowers| (0+32768))
 11238  063F' 0084               	movwf	4
 11239  0640' 3000'              	movlw	high (_dpowers| (0+32768))
 11240  0641' 1803               	skipnc
 11241  0642' 3E01               	addlw	1
 11242  0643' 00FF               	movwf	btemp+1
 11243  0644' 120A' 118A' 2000' 120A' 118A' 	fcall	stringtab
 11244  0649' 0082'              	movwf	___llmod@divisor
 11245  064A' 120A' 118A' 2000' 120A' 118A' 	fcall	stringtab
 11246  064F' 0083'              	movwf	___llmod@divisor+1
 11247  0650' 120A' 118A' 2000' 120A' 118A' 	fcall	stringtab
 11248  0655' 0084'              	movwf	___llmod@divisor+2
 11249  0656' 120A' 118A' 2000' 120A' 118A' 	fcall	stringtab
 11250  065B' 0085'              	movwf	___llmod@divisor+3
 11251  065C' 1683               	bsf	3,5	;RP0=1, select bank1
 11252  065D' 1303               	bcf	3,6	;RP1=0, select bank1
 11253  065E' 0800'              	movf	(sprintf@val+3)^(0+128),w
 11254  065F' 0089'              	movwf	___llmod@dividend+3
 11255  0660' 0800'              	movf	(sprintf@val+2)^(0+128),w
 11256  0661' 0088'              	movwf	___llmod@dividend+2
 11257  0662' 0800'              	movf	(sprintf@val+1)^(0+128),w
 11258  0663' 0087'              	movwf	___llmod@dividend+1
 11259  0664' 0800'              	movf	sprintf@val^(0+128),w
 11260  0665' 0086'              	movwf	___llmod@dividend
 11261  0666' 120A' 118A' 2000' 120A' 118A' 	fcall	___llmod
 11262  066B' 0805'              	movf	?___llmod+3,w
 11263  066C' 1683               	bsf	3,5	;RP0=1, select bank1
 11264  066D' 1303               	bcf	3,6	;RP1=0, select bank1
 11265  066E' 0080'              	movwf	(sprintf@val+3)^(0+128)
 11266  066F' 0804'              	movf	?___llmod+2,w
 11267  0670' 0080'              	movwf	(sprintf@val+2)^(0+128)
 11268  0671' 0803'              	movf	?___llmod+1,w
 11269  0672' 0080'              	movwf	(sprintf@val+1)^(0+128)
 11270  0673' 0802'              	movf	?___llmod,w
 11271  0674' 0080'              	movwf	sprintf@val^(0+128)
 11272  0675'                    l4434:
 11273                           
 11274                           ;C:\Program Files\Microchip\xc8\v2.31\pic\sources\c90\common\doprnt.c: 1254:    while(c-
      +                          -) {
 11275  0675' 3001               	movlw	1
 11276  0676' 0280'              	subwf	sprintf@c^(0+128),f
 11277  0677' 0A00'              	incf	sprintf@c^(0+128),w
 11278  0678' 1D03               	btfss	3,2
 11279  0679' 2800'              	goto	u6991
 11280  067A' 2800'              	goto	u6990
 11281  067B'                    u6991:
 11282  067B' 2800'              	goto	l4424
 11283  067C'                    u6990:
 11284  067C' 2800'              	goto	l4442
 11285  067D'                    l4436:
 11286                           
 11287                           ;C:\Program Files\Microchip\xc8\v2.31\pic\sources\c90\common\doprnt.c: 1262:     ((*sp++
      +                           = ('0')));
 11288  067D' 3030               	movlw	48
 11289  067E' 1283               	bcf	3,5	;RP0=0, select bank0
 11290  067F' 1303               	bcf	3,6	;RP1=0, select bank0
 11291  0680' 00CA'              	movwf	??_sprintf
 11292  0681' 1683               	bsf	3,5	;RP0=1, select bank1
 11293  0682' 1303               	bcf	3,6	;RP1=0, select bank1
 11294  0683' 0800'              	movf	sprintf@sp^(0+128),w
 11295  0684' 0084               	movwf	4
 11296  0685' 1783               	bsf	3,7
 11297  0686' 1C00'              	btfss	(sprintf@sp+1)^(0+128),0
 11298  0687' 1383               	bcf	3,7
 11299  0688' 1283               	bcf	3,5	;RP0=0, select bank0
 11300  0689' 1303               	bcf	3,6	;RP1=0, select bank0
 11301  068A' 084A'              	movf	??_sprintf,w
 11302  068B' 0080               	movwf	0
 11303  068C'                    l4438:
 11304  068C' 3001               	movlw	1
 11305  068D' 1683               	bsf	3,5	;RP0=1, select bank1
 11306  068E' 1303               	bcf	3,6	;RP1=0, select bank1
 11307  068F' 0780'              	addwf	sprintf@sp^(0+128),f
 11308  0690' 1803               	skipnc
 11309  0691' 0A80'              	incf	(sprintf@sp+1)^(0+128),f
 11310  0692' 3000               	movlw	0
 11311  0693' 0780'              	addwf	(sprintf@sp+1)^(0+128),f
 11312  0694'                    l4440:
 11313                           
 11314                           ;C:\Program Files\Microchip\xc8\v2.31\pic\sources\c90\common\doprnt.c: 1263:     prec--;
 11315  0694' 30FF               	movlw	255
 11316  0695' 0780'              	addwf	sprintf@prec^(0+128),f
 11317  0696' 1803               	skipnc
 11318  0697' 0A80'              	incf	(sprintf@prec+1)^(0+128),f
 11319  0698' 30FF               	movlw	255
 11320  0699' 0780'              	addwf	(sprintf@prec+1)^(0+128),f
 11321  069A'                    l4442:
 11322                           
 11323                           ;C:\Program Files\Microchip\xc8\v2.31\pic\sources\c90\common\doprnt.c: 1261:    while(pr
      +                          ec) {
 11324  069A' 0800'              	movf	sprintf@prec^(0+128),w
 11325  069B' 0400'              	iorwf	(sprintf@prec+1)^(0+128),w
 11326  069C' 1D03               	btfss	3,2
 11327  069D' 2800'              	goto	u7001
 11328  069E' 2800'              	goto	u7000
 11329  069F'                    u7001:
 11330  069F' 2800'              	goto	l4436
 11331  06A0'                    u7000:
 11332  06A0' 2800'              	goto	l4490
 11333  06A1'                    l4444:
 11334                           
 11335                           ;C:\Program Files\Microchip\xc8\v2.31\pic\sources\c90\common\doprnt.c: 1316:   if(prec =
      +                          = 0 && val == 0)
 11336  06A1' 1683               	bsf	3,5	;RP0=1, select bank1
 11337  06A2' 1303               	bcf	3,6	;RP1=0, select bank1
 11338  06A3' 0800'              	movf	sprintf@prec^(0+128),w
 11339  06A4' 0400'              	iorwf	(sprintf@prec+1)^(0+128),w
 11340  06A5' 1D03               	btfss	3,2
 11341  06A6' 2800'              	goto	u7011
 11342  06A7' 2800'              	goto	u7010
 11343  06A8'                    u7011:
 11344  06A8' 2800'              	goto	l380
 11345  06A9'                    u7010:
 11346  06A9'                    l4446:
 11347  06A9' 0800'              	movf	(sprintf@val+3)^(0+128),w
 11348  06AA' 0400'              	iorwf	(sprintf@val+2)^(0+128),w
 11349  06AB' 0400'              	iorwf	(sprintf@val+1)^(0+128),w
 11350  06AC' 0400'              	iorwf	sprintf@val^(0+128),w
 11351  06AD' 1D03               	skipz
 11352  06AE' 2800'              	goto	u7021
 11353  06AF' 2800'              	goto	u7020
 11354  06B0'                    u7021:
 11355  06B0' 2800'              	goto	l380
 11356  06B1'                    u7020:
 11357  06B1'                    l4448:
 11358                           
 11359                           ;C:\Program Files\Microchip\xc8\v2.31\pic\sources\c90\common\doprnt.c: 1317:    prec++;
 11360  06B1' 3001               	movlw	1
 11361  06B2' 0780'              	addwf	sprintf@prec^(0+128),f
 11362  06B3' 1803               	skipnc
 11363  06B4' 0A80'              	incf	(sprintf@prec+1)^(0+128),f
 11364  06B5' 3000               	movlw	0
 11365  06B6' 0780'              	addwf	(sprintf@prec+1)^(0+128),f
 11366  06B7'                    l380:
 11367                           
 11368                           ;C:\Program Files\Microchip\xc8\v2.31\pic\sources\c90\common\doprnt.c: 1365:   if(c < pr
      +                          ec)
 11369  06B7' 0800'              	movf	(sprintf@prec+1)^(0+128),w
 11370  06B8' 3A80               	xorlw	128
 11371  06B9' 3C80               	sublw	128
 11372  06BA' 1D03               	skipz
 11373  06BB' 2800'              	goto	u7035
 11374  06BC' 0800'              	movf	sprintf@prec^(0+128),w
 11375  06BD' 0200'              	subwf	sprintf@c^(0+128),w
 11376  06BE'                    u7035:
 11377  06BE' 1803               	skipnc
 11378  06BF' 2800'              	goto	u7031
 11379  06C0' 2800'              	goto	u7030
 11380  06C1'                    u7031:
 11381  06C1' 2800'              	goto	l4452
 11382  06C2'                    u7030:
 11383  06C2'                    l4450:
 11384                           
 11385                           ;C:\Program Files\Microchip\xc8\v2.31\pic\sources\c90\common\doprnt.c: 1366:    c = (cha
      +                          r)prec;
 11386  06C2' 1683               	bsf	3,5	;RP0=1, select bank1
 11387  06C3' 1303               	bcf	3,6	;RP1=0, select bank1
 11388  06C4' 0800'              	movf	sprintf@prec^(0+128),w
 11389  06C5' 1283               	bcf	3,5	;RP0=0, select bank0
 11390  06C6' 1303               	bcf	3,6	;RP1=0, select bank0
 11391  06C7' 00CA'              	movwf	??_sprintf
 11392  06C8' 084A'              	movf	??_sprintf,w
 11393  06C9' 1683               	bsf	3,5	;RP0=1, select bank1
 11394  06CA' 1303               	bcf	3,6	;RP1=0, select bank1
 11395  06CB' 0080'              	movwf	sprintf@c^(0+128)
 11396  06CC' 2800'              	goto	l4456
 11397  06CD'                    l4452:
 11398  06CD' 1683               	bsf	3,5	;RP0=1, select bank1
 11399  06CE' 1303               	bcf	3,6	;RP1=0, select bank1
 11400  06CF' 0800'              	movf	(sprintf@prec+1)^(0+128),w
 11401  06D0' 3A80               	xorlw	128
 11402  06D1' 1283               	bcf	3,5	;RP0=0, select bank0
 11403  06D2' 1303               	bcf	3,6	;RP1=0, select bank0
 11404  06D3' 00CA'              	movwf	??_sprintf
 11405  06D4' 3080               	movlw	128
 11406  06D5' 024A'              	subwf	??_sprintf,w
 11407  06D6' 1D03               	skipz
 11408  06D7' 2800'              	goto	u7045
 11409  06D8' 1683               	bsf	3,5	;RP0=1, select bank1
 11410  06D9' 1303               	bcf	3,6	;RP1=0, select bank1
 11411  06DA' 0800'              	movf	sprintf@c^(0+128),w
 11412  06DB' 0200'              	subwf	sprintf@prec^(0+128),w
 11413  06DC'                    u7045:
 11414  06DC' 1803               	skipnc
 11415  06DD' 2800'              	goto	u7041
 11416  06DE' 2800'              	goto	u7040
 11417  06DF'                    u7041:
 11418  06DF' 2800'              	goto	l4456
 11419  06E0'                    u7040:
 11420  06E0'                    l4454:
 11421                           
 11422                           ;C:\Program Files\Microchip\xc8\v2.31\pic\sources\c90\common\doprnt.c: 1368:    prec = c
      +                          ;
 11423  06E0' 1683               	bsf	3,5	;RP0=1, select bank1
 11424  06E1' 1303               	bcf	3,6	;RP1=0, select bank1
 11425  06E2' 0800'              	movf	sprintf@c^(0+128),w
 11426  06E3' 1283               	bcf	3,5	;RP0=0, select bank0
 11427  06E4' 1303               	bcf	3,6	;RP1=0, select bank0
 11428  06E5' 00CA'              	movwf	??_sprintf
 11429  06E6' 01CB'              	clrf	??_sprintf+1
 11430  06E7' 084A'              	movf	??_sprintf,w
 11431  06E8' 1683               	bsf	3,5	;RP0=1, select bank1
 11432  06E9' 1303               	bcf	3,6	;RP1=0, select bank1
 11433  06EA' 0080'              	movwf	sprintf@prec^(0+128)
 11434  06EB' 1283               	bcf	3,5	;RP0=0, select bank0
 11435  06EC' 1303               	bcf	3,6	;RP1=0, select bank0
 11436  06ED' 084B'              	movf	??_sprintf+1,w
 11437  06EE' 1683               	bsf	3,5	;RP0=1, select bank1
 11438  06EF' 1303               	bcf	3,6	;RP1=0, select bank1
 11439  06F0' 0080'              	movwf	(sprintf@prec+1)^(0+128)
 11440  06F1'                    l4456:
 11441                           
 11442                           ;C:\Program Files\Microchip\xc8\v2.31\pic\sources\c90\common\doprnt.c: 1371:   if(width 
      +                          && flag & 0x03)
 11443  06F1' 1683               	bsf	3,5	;RP0=1, select bank1
 11444  06F2' 1303               	bcf	3,6	;RP1=0, select bank1
 11445  06F3' 0800'              	movf	sprintf@width^(0+128),w
 11446  06F4' 0400'              	iorwf	(sprintf@width+1)^(0+128),w
 11447  06F5' 1903               	btfsc	3,2
 11448  06F6' 2800'              	goto	u7051
 11449  06F7' 2800'              	goto	u7050
 11450  06F8'                    u7051:
 11451  06F8' 2800'              	goto	l4462
 11452  06F9'                    u7050:
 11453  06F9'                    l4458:
 11454  06F9' 3003               	movlw	3
 11455  06FA' 0500'              	andwf	sprintf@flag^(0+128),w
 11456  06FB' 1283               	bcf	3,5	;RP0=0, select bank0
 11457  06FC' 1303               	bcf	3,6	;RP1=0, select bank0
 11458  06FD' 00CA'              	movwf	??_sprintf
 11459  06FE' 3000               	movlw	0
 11460  06FF' 1683               	bsf	3,5	;RP0=1, select bank1
 11461  0700' 1303               	bcf	3,6	;RP1=0, select bank1
 11462  0701' 0500'              	andwf	(sprintf@flag+1)^(0+128),w
 11463  0702' 1283               	bcf	3,5	;RP0=0, select bank0
 11464  0703' 1303               	bcf	3,6	;RP1=0, select bank0
 11465  0704' 00CB'              	movwf	??_sprintf+1
 11466  0705' 084A'              	movf	??_sprintf,w
 11467  0706' 044B'              	iorwf	??_sprintf+1,w
 11468  0707' 1903               	btfsc	3,2
 11469  0708' 2800'              	goto	u7061
 11470  0709' 2800'              	goto	u7060
 11471  070A'                    u7061:
 11472  070A' 2800'              	goto	l4462
 11473  070B'                    u7060:
 11474  070B'                    l4460:
 11475                           
 11476                           ;C:\Program Files\Microchip\xc8\v2.31\pic\sources\c90\common\doprnt.c: 1372:    width--;
 11477  070B' 30FF               	movlw	255
 11478  070C' 1683               	bsf	3,5	;RP0=1, select bank1
 11479  070D' 1303               	bcf	3,6	;RP1=0, select bank1
 11480  070E' 0780'              	addwf	sprintf@width^(0+128),f
 11481  070F' 1803               	skipnc
 11482  0710' 0A80'              	incf	(sprintf@width+1)^(0+128),f
 11483  0711' 30FF               	movlw	255
 11484  0712' 0780'              	addwf	(sprintf@width+1)^(0+128),f
 11485  0713'                    l4462:
 11486                           
 11487                           ;C:\Program Files\Microchip\xc8\v2.31\pic\sources\c90\common\doprnt.c: 1374:   if(flag &
      +                           0x4000) {
 11488  0713' 1683               	bsf	3,5	;RP0=1, select bank1
 11489  0714' 1303               	bcf	3,6	;RP1=0, select bank1
 11490  0715' 1F00'              	btfss	(sprintf@flag+1)^(0+128),6
 11491  0716' 2800'              	goto	u7071
 11492  0717' 2800'              	goto	u7070
 11493  0718'                    u7071:
 11494  0718' 2800'              	goto	l4470
 11495  0719'                    u7070:
 11496  0719'                    l4464:
 11497                           
 11498                           ;C:\Program Files\Microchip\xc8\v2.31\pic\sources\c90\common\doprnt.c: 1375:    if(width
      +                           > prec)
 11499  0719' 0800'              	movf	(sprintf@prec+1)^(0+128),w
 11500  071A' 3A80               	xorlw	128
 11501  071B' 1283               	bcf	3,5	;RP0=0, select bank0
 11502  071C' 1303               	bcf	3,6	;RP1=0, select bank0
 11503  071D' 00CA'              	movwf	??_sprintf
 11504  071E' 1683               	bsf	3,5	;RP0=1, select bank1
 11505  071F' 1303               	bcf	3,6	;RP1=0, select bank1
 11506  0720' 0800'              	movf	(sprintf@width+1)^(0+128),w
 11507  0721' 3A80               	xorlw	128
 11508  0722' 1283               	bcf	3,5	;RP0=0, select bank0
 11509  0723' 1303               	bcf	3,6	;RP1=0, select bank0
 11510  0724' 024A'              	subwf	??_sprintf,w
 11511  0725' 1D03               	skipz
 11512  0726' 2800'              	goto	u7085
 11513  0727' 1683               	bsf	3,5	;RP0=1, select bank1
 11514  0728' 1303               	bcf	3,6	;RP1=0, select bank1
 11515  0729' 0800'              	movf	sprintf@width^(0+128),w
 11516  072A' 0200'              	subwf	sprintf@prec^(0+128),w
 11517  072B'                    u7085:
 11518  072B' 1803               	skipnc
 11519  072C' 2800'              	goto	u7081
 11520  072D' 2800'              	goto	u7080
 11521  072E'                    u7081:
 11522  072E' 2800'              	goto	l4468
 11523  072F'                    u7080:
 11524  072F'                    l4466:
 11525                           
 11526                           ;C:\Program Files\Microchip\xc8\v2.31\pic\sources\c90\common\doprnt.c: 1376:     width -
      +                          = prec;
 11527  072F' 1683               	bsf	3,5	;RP0=1, select bank1
 11528  0730' 1303               	bcf	3,6	;RP1=0, select bank1
 11529  0731' 0800'              	movf	sprintf@prec^(0+128),w
 11530  0732' 0280'              	subwf	sprintf@width^(0+128),f
 11531  0733' 0800'              	movf	(sprintf@prec+1)^(0+128),w
 11532  0734' 1C03               	skipc
 11533  0735' 0380'              	decf	(sprintf@width+1)^(0+128),f
 11534  0736' 0280'              	subwf	(sprintf@width+1)^(0+128),f
 11535  0737' 2800'              	goto	l4470
 11536  0738'                    l4468:
 11537                           
 11538                           ;C:\Program Files\Microchip\xc8\v2.31\pic\sources\c90\common\doprnt.c: 1378:     width =
      +                           0;
 11539  0738' 1683               	bsf	3,5	;RP0=1, select bank1
 11540  0739' 1303               	bcf	3,6	;RP1=0, select bank1
 11541  073A' 0180'              	clrf	sprintf@width^(0+128)
 11542  073B' 0180'              	clrf	(sprintf@width+1)^(0+128)
 11543  073C'                    l4470:
 11544                           
 11545                           ;C:\Program Files\Microchip\xc8\v2.31\pic\sources\c90\common\doprnt.c: 1407:   if(width 
      +                          > c)
 11546  073C' 0800'              	movf	(sprintf@width+1)^(0+128),w
 11547  073D' 3A80               	xorlw	128
 11548  073E' 3C80               	sublw	128
 11549  073F' 1D03               	skipz
 11550  0740' 2800'              	goto	u7095
 11551  0741' 0800'              	movf	sprintf@width^(0+128),w
 11552  0742' 0200'              	subwf	sprintf@c^(0+128),w
 11553  0743'                    u7095:
 11554  0743' 1803               	skipnc
 11555  0744' 2800'              	goto	u7091
 11556  0745' 2800'              	goto	u7090
 11557  0746'                    u7091:
 11558  0746' 2800'              	goto	l4474
 11559  0747'                    u7090:
 11560  0747'                    l4472:
 11561                           
 11562                           ;C:\Program Files\Microchip\xc8\v2.31\pic\sources\c90\common\doprnt.c: 1408:    width -=
      +                           c;
 11563  0747' 1683               	bsf	3,5	;RP0=1, select bank1
 11564  0748' 1303               	bcf	3,6	;RP1=0, select bank1
 11565  0749' 0800'              	movf	sprintf@c^(0+128),w
 11566  074A' 1283               	bcf	3,5	;RP0=0, select bank0
 11567  074B' 1303               	bcf	3,6	;RP1=0, select bank0
 11568  074C' 00CA'              	movwf	??_sprintf
 11569  074D' 01CB'              	clrf	??_sprintf+1
 11570  074E' 084A'              	movf	??_sprintf,w
 11571  074F' 1683               	bsf	3,5	;RP0=1, select bank1
 11572  0750' 1303               	bcf	3,6	;RP1=0, select bank1
 11573  0751' 0280'              	subwf	sprintf@width^(0+128),f
 11574  0752' 1283               	bcf	3,5	;RP0=0, select bank0
 11575  0753' 1303               	bcf	3,6	;RP1=0, select bank0
 11576  0754' 084B'              	movf	??_sprintf+1,w
 11577  0755' 1683               	bsf	3,5	;RP0=1, select bank1
 11578  0756' 1303               	bcf	3,6	;RP1=0, select bank1
 11579  0757' 1C03               	skipc
 11580  0758' 0380'              	decf	(sprintf@width+1)^(0+128),f
 11581  0759' 0280'              	subwf	(sprintf@width+1)^(0+128),f
 11582  075A' 2800'              	goto	l4476
 11583  075B'                    l4474:
 11584                           
 11585                           ;C:\Program Files\Microchip\xc8\v2.31\pic\sources\c90\common\doprnt.c: 1410:    width = 
      +                          0;
 11586  075B' 1683               	bsf	3,5	;RP0=1, select bank1
 11587  075C' 1303               	bcf	3,6	;RP1=0, select bank1
 11588  075D' 0180'              	clrf	sprintf@width^(0+128)
 11589  075E' 0180'              	clrf	(sprintf@width+1)^(0+128)
 11590  075F'                    l4476:
 11591                           
 11592                           ;C:\Program Files\Microchip\xc8\v2.31\pic\sources\c90\common\doprnt.c: 1448:   {;C:\Prog
      +                          ram Files\Microchip\xc8\v2.31\pic\sources\c90\common\doprnt.c: 1450:    if(width
 11593  075F' 0800'              	movf	sprintf@width^(0+128),w
 11594  0760' 0400'              	iorwf	(sprintf@width+1)^(0+128),w
 11595  0761' 1903               	btfsc	3,2
 11596  0762' 2800'              	goto	u7101
 11597  0763' 2800'              	goto	u7100
 11598  0764'                    u7101:
 11599  0764' 2800'              	goto	l4484
 11600  0765'                    u7100:
 11601  0765'                    l4478:
 11602                           
 11603                           ;C:\Program Files\Microchip\xc8\v2.31\pic\sources\c90\common\doprnt.c: 1456:      ((*sp+
      +                          + = (' ')));
 11604  0765' 3020               	movlw	32
 11605  0766' 1283               	bcf	3,5	;RP0=0, select bank0
 11606  0767' 1303               	bcf	3,6	;RP1=0, select bank0
 11607  0768' 00CA'              	movwf	??_sprintf
 11608  0769' 1683               	bsf	3,5	;RP0=1, select bank1
 11609  076A' 1303               	bcf	3,6	;RP1=0, select bank1
 11610  076B' 0800'              	movf	sprintf@sp^(0+128),w
 11611  076C' 0084               	movwf	4
 11612  076D' 1783               	bsf	3,7
 11613  076E' 1C00'              	btfss	(sprintf@sp+1)^(0+128),0
 11614  076F' 1383               	bcf	3,7
 11615  0770' 1283               	bcf	3,5	;RP0=0, select bank0
 11616  0771' 1303               	bcf	3,6	;RP1=0, select bank0
 11617  0772' 084A'              	movf	??_sprintf,w
 11618  0773' 0080               	movwf	0
 11619  0774'                    l4480:
 11620  0774' 3001               	movlw	1
 11621  0775' 1683               	bsf	3,5	;RP0=1, select bank1
 11622  0776' 1303               	bcf	3,6	;RP1=0, select bank1
 11623  0777' 0780'              	addwf	sprintf@sp^(0+128),f
 11624  0778' 1803               	skipnc
 11625  0779' 0A80'              	incf	(sprintf@sp+1)^(0+128),f
 11626  077A' 3000               	movlw	0
 11627  077B' 0780'              	addwf	(sprintf@sp+1)^(0+128),f
 11628  077C'                    l4482:
 11629  077C' 30FF               	movlw	255
 11630  077D' 0780'              	addwf	sprintf@width^(0+128),f
 11631  077E' 1803               	skipnc
 11632  077F' 0A80'              	incf	(sprintf@width+1)^(0+128),f
 11633  0780' 30FF               	movlw	255
 11634  0781' 0780'              	addwf	(sprintf@width+1)^(0+128),f
 11635  0782' 0800'              	movf	sprintf@width^(0+128),w
 11636  0783' 0400'              	iorwf	(sprintf@width+1)^(0+128),w
 11637  0784' 1D03               	btfss	3,2
 11638  0785' 2800'              	goto	u7111
 11639  0786' 2800'              	goto	u7110
 11640  0787'                    u7111:
 11641  0787' 2800'              	goto	l4478
 11642  0788'                    u7110:
 11643  0788'                    l4484:
 11644                           
 11645                           ;C:\Program Files\Microchip\xc8\v2.31\pic\sources\c90\common\doprnt.c: 1464:    if(flag 
      +                          & 0x03)
 11646  0788' 3003               	movlw	3
 11647  0789' 0500'              	andwf	sprintf@flag^(0+128),w
 11648  078A' 1283               	bcf	3,5	;RP0=0, select bank0
 11649  078B' 1303               	bcf	3,6	;RP1=0, select bank0
 11650  078C' 00CA'              	movwf	??_sprintf
 11651  078D' 3000               	movlw	0
 11652  078E' 1683               	bsf	3,5	;RP0=1, select bank1
 11653  078F' 1303               	bcf	3,6	;RP1=0, select bank1
 11654  0790' 0500'              	andwf	(sprintf@flag+1)^(0+128),w
 11655  0791' 1283               	bcf	3,5	;RP0=0, select bank0
 11656  0792' 1303               	bcf	3,6	;RP1=0, select bank0
 11657  0793' 00CB'              	movwf	??_sprintf+1
 11658  0794' 084A'              	movf	??_sprintf,w
 11659  0795' 044B'              	iorwf	??_sprintf+1,w
 11660  0796' 1903               	btfsc	3,2
 11661  0797' 2800'              	goto	u7121
 11662  0798' 2800'              	goto	u7120
 11663  0799'                    u7121:
 11664  0799' 2800'              	goto	l4490
 11665  079A'                    u7120:
 11666  079A'                    l4486:
 11667                           
 11668                           ;C:\Program Files\Microchip\xc8\v2.31\pic\sources\c90\common\doprnt.c: 1465:     ((*sp++
      +                           = ('-')));
 11669  079A' 302D               	movlw	45
 11670  079B' 00CA'              	movwf	??_sprintf
 11671  079C' 1683               	bsf	3,5	;RP0=1, select bank1
 11672  079D' 1303               	bcf	3,6	;RP1=0, select bank1
 11673  079E' 0800'              	movf	sprintf@sp^(0+128),w
 11674  079F' 0084               	movwf	4
 11675  07A0' 1783               	bsf	3,7
 11676  07A1' 1C00'              	btfss	(sprintf@sp+1)^(0+128),0
 11677  07A2' 1383               	bcf	3,7
 11678  07A3' 1283               	bcf	3,5	;RP0=0, select bank0
 11679  07A4' 1303               	bcf	3,6	;RP1=0, select bank0
 11680  07A5' 084A'              	movf	??_sprintf,w
 11681  07A6' 0080               	movwf	0
 11682  07A7' 120A' 118A' 2800'  	goto	l4242
 11683  07AA'                    l4490:
 11684                           
 11685                           ;C:\Program Files\Microchip\xc8\v2.31\pic\sources\c90\common\doprnt.c: 553:  while((c = 
      +                          *f++)) {
 11686  07AA' 1683               	bsf	3,5	;RP0=1, select bank1
 11687  07AB' 1303               	bcf	3,6	;RP1=0, select bank1
 11688  07AC' 0800'              	movf	(sprintf@f+1)^(0+128),w
 11689  07AD' 1283               	bcf	3,5	;RP0=0, select bank0
 11690  07AE' 1303               	bcf	3,6	;RP1=0, select bank0
 11691  07AF' 00CB'              	movwf	??_sprintf+1
 11692  07B0' 1683               	bsf	3,5	;RP0=1, select bank1
 11693  07B1' 1303               	bcf	3,6	;RP1=0, select bank1
 11694  07B2' 0800'              	movf	sprintf@f^(0+128),w
 11695  07B3' 1283               	bcf	3,5	;RP0=0, select bank0
 11696  07B4' 1303               	bcf	3,6	;RP1=0, select bank0
 11697  07B5' 00CA'              	movwf	??_sprintf
 11698  07B6' 1683               	bsf	3,5	;RP0=1, select bank1
 11699  07B7' 1303               	bcf	3,6	;RP1=0, select bank1
 11700  07B8' 0A80'              	incf	sprintf@f^(0+128),f
 11701  07B9' 1903               	skipnz
 11702  07BA' 0A80'              	incf	(sprintf@f+1)^(0+128),f
 11703  07BB' 1283               	bcf	3,5	;RP0=0, select bank0
 11704  07BC' 1303               	bcf	3,6	;RP1=0, select bank0
 11705  07BD' 084B'              	movf	??_sprintf+1,w
 11706  07BE' 00FF               	movwf	btemp+1
 11707  07BF' 084A'              	movf	??_sprintf,w
 11708  07C0' 0084               	movwf	4
 11709  07C1' 120A' 118A' 2000' 120A' 118A' 	fcall	stringtab
 11710  07C6' 00CC'              	movwf	??_sprintf+2
 11711  07C7' 084C'              	movf	??_sprintf+2,w
 11712  07C8' 1683               	bsf	3,5	;RP0=1, select bank1
 11713  07C9' 1303               	bcf	3,6	;RP1=0, select bank1
 11714  07CA' 0080'              	movwf	sprintf@c^(0+128)
 11715  07CB' 0800'              	movf	sprintf@c^(0+128),w
 11716  07CC' 1D03               	btfss	3,2
 11717  07CD' 2800'              	goto	u7131
 11718  07CE' 2800'              	goto	u7130
 11719  07CF'                    u7131:
 11720  07CF' 120A' 118A' 2800'  	goto	l4238
 11721  07D2'                    u7130:
 11722  07D2'                    l4492:
 11723                           
 11724                           ;C:\Program Files\Microchip\xc8\v2.31\pic\sources\c90\common\doprnt.c: 1564:  *sp = 0;
 11725  07D2' 1683               	bsf	3,5	;RP0=1, select bank1
 11726  07D3' 1303               	bcf	3,6	;RP1=0, select bank1
 11727  07D4' 0800'              	movf	sprintf@sp^(0+128),w
 11728  07D5' 0084               	movwf	4
 11729  07D6' 1783               	bsf	3,7
 11730  07D7' 1C00'              	btfss	(sprintf@sp+1)^(0+128),0
 11731  07D8' 1383               	bcf	3,7
 11732  07D9' 0180               	clrf	0
 11733  07DA'                    l395:
 11734  07DA' 0008               	return
 11735  07DB'                    __end_of_sprintf:

Data Sizes:
    Strings     116
    Constant    144
    Data        0
    BSS         42
    Persistent  0
    Stack       0

Auto Spaces:
    Space          Size  Autos    Used
    COMMON           14     10      12
    BANK0            80     79      79
    BANK1            80     46      80
    BANK3            96      0       6
    BANK2            96      0       0

Pointer List with Targets:

    sprintf@f	PTR const unsigned char  size(2) Largest target is 7
		 -> STR_3(CODE[7]), STR_2(CODE[7]), STR_1(CODE[7]), 

    sprintf@sp	PTR unsigned char  size(2) Largest target is 6
		 -> valor3(BANK3[6]), valor2(BANK1[6]), valor1(BANK1[6]), 

    sprintf@ap	PTR void [1] size(1) Largest target is 2
		 -> ?_sprintf(BANK1[2]), 

    USART_Cadena@str	PTR unsigned char  size(2) Largest target is 31
		 -> STR_8(CODE[17]), STR_7(CODE[15]), STR_6(CODE[30]), STR_5(CODE[31]), 
		 -> valor2(BANK1[6]), valor1(BANK1[6]), 

    LCD_8Cadena@dato	PTR const unsigned char  size(2) Largest target is 16
		 -> STR_4(CODE[16]), valor3(BANK3[6]), valor2(BANK1[6]), valor1(BANK1[6]), 


Critical Paths under _main in COMMON

    _main->___xxtofl
    _sprintf->___awdiv
    _sprintf->___fleq
    _sprintf->___flge
    _sprintf->___lldiv
    _sprintf->___llmod
    _sprintf->___xxtofl
    _sprintf->__div_to_l_
    _sprintf->__tdiv_to_l_
    _scale->___awdiv
    ___awdiv->___awmod
    ___lwdiv->___lwmod
    ___flmul->___awdiv
    ___flmul->___xxtofl
    ___flsub->___xxtofl
    _USART_Cadena->_USART_Tx
    _LCD_Init8->_LCD_8_comando
    _LCD_8XY->_LCD_8_comando
    _LCD_8Cadena->_LCD_8Data

Critical Paths under _isr in COMMON

    None.

Critical Paths under _main in BANK0

    _main->_sprintf
    _sprintf->___fladd
    _scale->___flmul
    _fround->___flmul
    ___flmul->___awdiv
    ___fltol->_scale
    ___flsub->___fladd
    ___fladd->_fround

Critical Paths under _isr in BANK0

    None.

Critical Paths under _main in BANK1

    _main->_sprintf
    _sprintf->___flsub

Critical Paths under _isr in BANK1

    None.

Critical Paths under _main in BANK3

    None.

Critical Paths under _isr in BANK3

    None.

Critical Paths under _main in BANK2

    None.

Critical Paths under _isr in BANK2

    None.

Call Graph Tables:

 ---------------------------------------------------------------------------------
 (Depth) Function   	        Calls       Base Space   Used Autos Params    Refs
 ---------------------------------------------------------------------------------
 (0) _main                                                 4     4      0   48242
                                             42 BANK1      4     4      0
                        _LCD_8Cadena
                            _LCD_8XY
                          _LCD_Init8
                       _USART_Cadena
                         _USART_Init
                           _USART_Rx
                            ___flmul
                            ___fltol
                           ___xxtofl
                            _sprintf
 ---------------------------------------------------------------------------------
 (1) _sprintf                                             44    36      8   39542
                                             74 BANK0      5     5      0
                                              8 BANK1     34    26      8
                            ___awdiv
                            ___fladd
                             ___fleq
                             ___flge
                            ___flmul
                            ___flneg
                            ___flsub
                            ___fltol
                            ___lldiv
                            ___llmod
                             ___wmul
                           ___xxtofl
                         __div_to_l_
                        __tdiv_to_l_
                             _fround
                            _isdigit
                              _scale
 ---------------------------------------------------------------------------------
 (2) _scale                                               19    15      4    9586
                                             34 BANK0     19    15      4
                            ___awdiv
                            ___awmod
                            ___flmul
 ---------------------------------------------------------------------------------
 (3) ___awmod                                              7     3      4    1208
                                              2 COMMON     7     3      4
 ---------------------------------------------------------------------------------
 (3) ___awdiv                                              9     5      4    1516
                                              9 COMMON     1     1      0
                                              0 BANK0      8     4      4
                            ___awmod (ARG)
 ---------------------------------------------------------------------------------
 (2) _isdigit                                              2     2      0      68
                                              2 COMMON     2     2      0
 ---------------------------------------------------------------------------------
 (2) _fround                                              20    16      4    7979
                                             34 BANK0     20    16      4
                            ___flmul
                            ___lwdiv
                            ___lwmod
 ---------------------------------------------------------------------------------
 (3) ___lwmod                                              6     2      4     615
                                              2 COMMON     6     2      4
 ---------------------------------------------------------------------------------
 (3) ___lwdiv                                              8     4      4     781
                                              8 COMMON     1     1      0
                                              0 BANK0      7     3      4
                            ___lwmod (ARG)
 ---------------------------------------------------------------------------------
 (3) ___flmul                                             26    18      8    6233
                                              8 BANK0     26    18      8
                          __Umul8_16
                            ___awdiv (ARG)
                            ___awmod (ARG)
                            ___lwdiv (ARG)
                            ___lwmod (ARG)
                           ___xxtofl (ARG)
 ---------------------------------------------------------------------------------
 (4) __Umul8_16                                            9     7      2     980
                                              2 COMMON     4     2      2
                                              0 BANK0      5     5      0
 ---------------------------------------------------------------------------------
 (2) __tdiv_to_l_                                         18    10      8     455
                                              2 COMMON     8     0      8
                                              0 BANK0     10    10      0
 ---------------------------------------------------------------------------------
 (2) __div_to_l_                                          15     7      8     634
                                              2 COMMON     8     0      8
                                              0 BANK0      7     7      0
 ---------------------------------------------------------------------------------
 (2) ___xxtofl                                            14    10      4     626
                                              2 COMMON     8     4      4
                                              0 BANK0      6     6      0
 ---------------------------------------------------------------------------------
 (2) ___wmul                                               6     2      4     548
                                              2 COMMON     6     2      4
 ---------------------------------------------------------------------------------
 (2) ___llmod                                             10     2      8     772
                                              2 COMMON     8     0      8
                                              0 BANK0      2     2      0
 ---------------------------------------------------------------------------------
 (2) ___lldiv                                             14     6      8     601
                                              2 COMMON     8     0      8
                                              0 BANK0      6     6      0
 ---------------------------------------------------------------------------------
 (2) ___fltol                                             11     7      4     533
                                             53 BANK0     11     7      4
                            ___flmul (ARG)
                              _scale (ARG)
 ---------------------------------------------------------------------------------
 (2) ___flsub                                              8     0      8    2485
                                              0 BANK1      8     0      8
                            ___fladd
                           ___xxtofl (ARG)
 ---------------------------------------------------------------------------------
 (3) ___fladd                                             20    12      8    2288
                                             54 BANK0     20    12      8
                             _fround (ARG)
 ---------------------------------------------------------------------------------
 (2) ___flneg                                              4     0      4     121
                                              2 COMMON     4     0      4
 ---------------------------------------------------------------------------------
 (2) ___flge                                              12     4      8     790
                                              2 COMMON     8     0      8
                                              0 BANK0      4     4      0
 ---------------------------------------------------------------------------------
 (2) ___fleq                                              12     4      8     394
                                              2 COMMON     8     0      8
                                              0 BANK0      4     4      0
 ---------------------------------------------------------------------------------
 (1) _USART_Rx                                             0     0      0       0
 ---------------------------------------------------------------------------------
 (1) _USART_Init                                           0     0      0       0
 ---------------------------------------------------------------------------------
 (1) _USART_Cadena                                         2     0      2     523
                                              3 COMMON     2     0      2
                           _USART_Tx
 ---------------------------------------------------------------------------------
 (2) _USART_Tx                                             1     1      0      22
                                              2 COMMON     1     1      0
 ---------------------------------------------------------------------------------
 (1) _LCD_Init8                                            2     2      0      22
                                              4 COMMON     2     2      0
                      _LCD_8_comando
 ---------------------------------------------------------------------------------
 (1) _LCD_8XY                                              2     1      1     392
                                              4 COMMON     2     1      1
                      _LCD_8_comando
 ---------------------------------------------------------------------------------
 (2) _LCD_8_comando                                        2     2      0      22
                                              2 COMMON     2     2      0
 ---------------------------------------------------------------------------------
 (1) _LCD_8Cadena                                          3     1      2     371
                                              4 COMMON     3     1      2
                          _LCD_8Data
 ---------------------------------------------------------------------------------
 (2) _LCD_8Data                                            2     2      0      22
                                              2 COMMON     2     2      0
 ---------------------------------------------------------------------------------
 Estimated maximum stack depth 4
 ---------------------------------------------------------------------------------
 (Depth) Function   	        Calls       Base Space   Used Autos Params    Refs
 ---------------------------------------------------------------------------------
 (5) _isr                                                  2     2      0       0
                                              0 COMMON     2     2      0
 ---------------------------------------------------------------------------------
 Estimated maximum stack depth 5
 ---------------------------------------------------------------------------------

 Call Graph Graphs:

 _main (ROOT)
   _LCD_8Cadena
     _LCD_8Data
   _LCD_8XY
     _LCD_8_comando
   _LCD_Init8
     _LCD_8_comando
   _USART_Cadena
     _USART_Tx
   _USART_Init
   _USART_Rx
   ___flmul
     __Umul8_16
     ___awdiv (ARG)
       ___awmod (ARG)
     ___awmod (ARG)
     ___lwdiv (ARG)
       ___lwmod (ARG)
     ___lwmod (ARG)
     ___xxtofl (ARG)
   ___fltol
     ___flmul (ARG)
       __Umul8_16
       ___awdiv (ARG)
         ___awmod (ARG)
       ___awmod (ARG)
       ___lwdiv (ARG)
         ___lwmod (ARG)
       ___lwmod (ARG)
       ___xxtofl (ARG)
     _scale (ARG)
       ___awdiv
         ___awmod (ARG)
       ___awmod
       ___flmul
         __Umul8_16
         ___awdiv (ARG)
           ___awmod (ARG)
         ___awmod (ARG)
         ___lwdiv (ARG)
           ___lwmod (ARG)
         ___lwmod (ARG)
         ___xxtofl (ARG)
   ___xxtofl
   _sprintf
     ___awdiv
       ___awmod (ARG)
     ___fladd
       _fround (ARG)
         ___flmul
           __Umul8_16
           ___awdiv (ARG)
             ___awmod (ARG)
           ___awmod (ARG)
           ___lwdiv (ARG)
             ___lwmod (ARG)
           ___lwmod (ARG)
           ___xxtofl (ARG)
         ___lwdiv
           ___lwmod (ARG)
         ___lwmod
     ___fleq
     ___flge
     ___flmul
       __Umul8_16
       ___awdiv (ARG)
         ___awmod (ARG)
       ___awmod (ARG)
       ___lwdiv (ARG)
         ___lwmod (ARG)
       ___lwmod (ARG)
       ___xxtofl (ARG)
     ___flneg
     ___flsub
       ___fladd
         _fround (ARG)
           ___flmul
             __Umul8_16
             ___awdiv (ARG)
               ___awmod (ARG)
             ___awmod (ARG)
             ___lwdiv (ARG)
               ___lwmod (ARG)
             ___lwmod (ARG)
             ___xxtofl (ARG)
           ___lwdiv
             ___lwmod (ARG)
           ___lwmod
       ___xxtofl (ARG)
     ___fltol
       ___flmul (ARG)
         __Umul8_16
         ___awdiv (ARG)
           ___awmod (ARG)
         ___awmod (ARG)
         ___lwdiv (ARG)
           ___lwmod (ARG)
         ___lwmod (ARG)
         ___xxtofl (ARG)
       _scale (ARG)
         ___awdiv
           ___awmod (ARG)
         ___awmod
         ___flmul
           __Umul8_16
           ___awdiv (ARG)
             ___awmod (ARG)
           ___awmod (ARG)
           ___lwdiv (ARG)
             ___lwmod (ARG)
           ___lwmod (ARG)
           ___xxtofl (ARG)
     ___lldiv
     ___llmod
     ___wmul
     ___xxtofl
     __div_to_l_
     __tdiv_to_l_
     _fround
       ___flmul
         __Umul8_16
         ___awdiv (ARG)
           ___awmod (ARG)
         ___awmod (ARG)
         ___lwdiv (ARG)
           ___lwmod (ARG)
         ___lwmod (ARG)
         ___xxtofl (ARG)
       ___lwdiv
         ___lwmod (ARG)
       ___lwmod
     _isdigit
     _scale
       ___awdiv
         ___awmod (ARG)
       ___awmod
       ___flmul
         __Umul8_16
         ___awdiv (ARG)
           ___awmod (ARG)
         ___awmod (ARG)
         ___lwdiv (ARG)
           ___lwmod (ARG)
         ___lwmod (ARG)
         ___xxtofl (ARG)

 _isr (ROOT)

 Address spaces:
Name               Size   Autos  Total    Cost      Usage
BITCOMMON            E      0       0       0        0.0%
EEDATA             100      0       0       0        0.0%
NULL                 0      0       0       0        0.0%
CODE                 0      0       0       0        0.0%
COMMON               E      A       C       1       85.7%
BITSFR0              0      0       0       1        0.0%
SFR0                 0      0       0       1        0.0%
BITSFR1              0      0       0       2        0.0%
SFR1                 0      0       0       2        0.0%
STACK                0      0       0       2        0.0%
ABS                  0      0      B1       3        0.0%
BITBANK0            50      0       0       4        0.0%
BITSFR3              0      0       0       4        0.0%
SFR3                 0      0       0       4        0.0%
BANK0               50     4F      4F       5       98.8%
BITSFR2              0      0       0       5        0.0%
SFR2                 0      0       0       5        0.0%
BITBANK1            50      0       0       6        0.0%
BANK1               50     2E      50       7      100.0%
BITBANK3            60      0       0       8        0.0%
BANK3               60      0       6       9        6.2%
BITBANK2            60      0       0      10        0.0%
BANK2               60      0       0      11        0.0%
DATA                 0      0      B1      12        0.0%


Microchip Technology PIC Macro Assembler V2.31 build 20201012212115 
Symbol Table                                                                                   Mon Aug 23 17:35:28 2021

                      pc 0002             ___awdiv@sign 0005                       fsr 0004  
    ___wmul@multiplicand 0004      __Umul8_16@word_mpld 0002                      l200 0025  
                    l131 0079                      l134 0017                      l312 0398  
                    l145 002C                      l401 0024                      l305 0224  
                    l139 0015                      l148 001C                      l334 0006  
                    l191 000B                      l185 0014                      l194 0003  
                    l602 007B                      l435 0067                      l188 0001  
                    l612 007B                      l620 007F                      l380 06B7  
                    l372 0512                      l616 00BC                      l552 0068  
                    l609 0066                      l617 002E                      l705 0045  
                    l730 010A                      l570 0022                      l627 00AF  
                    l715 0039                      l395 07DA                      l732 00E1  
                    l580 00B0                      l573 0080                      l565 0058  
                    l590 001E                      l726 0063                      l822 0360  
                    l751 01F9                      l655 0055                      l399 000C  
                    l760 0259                      l585 001E                      l593 008A  
                    l569 00BD                      l841 0016                      l586 003A  
                    l594 00A3                      l834 0354                      l587 004F  
                    l747 01D5                      l739 0287                      l843 0028  
                    l772 004F                      l828 02CC                      l757 021B  
                    l598 000A                      l768 027B                      l880 0091  
                    l872 0069                      l769 0287                      l866 0024  
                    l868 00BB                      l886 0011                      l879 0085  
                    _isr 0000                      _prr 0010                      fsr0 0004  
                    indf 0000             ___awmod@sign 0008             ___flmul@aexp 0016  
           ___flmul@bexp 001B             ___flmul@sign 0015             ___flmul@temp 0020  
           ___flmul@prod 001C          __end_of_LCD_8XY 0016             ___fltol@exp1 003F  
                   l3010 0019                     l3002 0001                     l3004 000A  
                   l3100 002F                     l3006 000B                     l3014 0001  
                   l3110 0058                     l3102 0035                     l3008 0011  
                   l3016 0007                     l3200 001A                     l3120 0083  
                   l3112 0066                     l3104 0044                     l4000 0127  
                   l3202 0020                     l3114 0070                     l3106 0046  
                   l4010 018A                     l4002 0130                     l3300 005B  
                   l3116 0071                     l3108 004F                     l4020 022A  
                   l4012 01A3                     l4004 0140                     l4100 0003  
                   l3230 0000                     l3302 006B                     l3134 00A4  
                   l3126 008B                     l3118 0079                     l4030 0298  
                   l4022 0250                     l4014 01C0                     l4006 015D  
                   l4102 0007                     l3400 0031                     l3232 0016  
                   l3304 0070                     l4200 0026                     l3136 00B4  
                   l3128 009D                     l4040 02B0                     l4032 029C  
                   l4024 0278                     l4016 01ED                     l4008 016D  
                   l3080 0008                     l2600 004A                     l4112 0108  
                   l4104 0009                     l3410 004D                     l3402 0037  
                   l3234 0032                     l3250 003E                     l3242 0000  
                   l4210 0059                     l4202 002F                     l3090 0013  
                   l4050 02D1                     l4042 02B1                     l4034 029D  
                   l4026 0281                     l4018 01FD                     l3082 000E  
                   l2530 0007                     l2602 004F                     l4130 02D0  
                   l4114 010F                     l4106 0010                     l4122 01D1  
                   l3420 0068                     l3412 0052                     l3404 003C  
                   l3236 004C                     l3252 0062                     l3244 0016  
                   l2700 0069                     l4204 0041                     l4212 005F  
                   l4220 000D                     l3340 002C                     l3332 0003  
                   l4140 0000                     l4052 02D6                     l4060 0307  
                   l4044 02B5                     l4036 02A6                     l4028 028F  
                   l3084 0010                     l3076 0001                     l2540 001B  
                   l2532 000C                     l2604 0054                     l4132 02D7  
                   l4124 01D8                     l4300 00A6                     l3422 006D  
                   l3414 0058                     l3406 0042                     l3430 0007  
                   l3238 004E                     l3254 0066                     l3246 0032  
                   l3262 0000                     l2710 007D                     l2702 006D  
                   l3326 0000                     l3270 0000                     l4206 004F  
                   l4230 0047                     l4222 001A                     l3350 004E  
                   l3334 0008                     l4142 000D                     l3094 001C  
                   l4070 033A                     l4062 0314                     l4054 02E4  
                   l4046 02C9                     l4038 02AC                     l3078 0002  
                   l2550 0031                     l2542 001D                     l2534 000E  
                   l2526 0000                     l4118 01A0                     l4310 0106  
                   l4302 00BF                     l3424 0073                     l3416 005D  
                   l3408 0047                     l3440 0011                     l3432 000B  
                   l3256 00A0                     l3248 003A                     l3264 0008  
                   l2800 01F8                     l2720 0091                     l2712 0081  
                   l2704 0071                     l3328 0004                     l3280 002C  
                   l3272 000D                     l4208 0050                     l4224 001E  
                   l4232 004D                     l4216 0000                     l3192 0000  
                   l3360 007F                     l3352 0052                     l3344 0035  
                   l3336 000C                     l4160 0047                     l4152 0023  
                   l3088 0000                     l4072 0348                     l4064 031F  
                   l4056 02E8                     l2640 0010                     l2560 0054  
                   l2552 0035                     l2544 0023                     l2536 0012  
                   l2528 0003                     l4136 0368                     l4400 04BC  
                   l4320 0193                     l4312 010A                     l4304 00CA  
                   l4240 0011                     l3418 0063                     l3434 000C  
                   l3258 00A2                     l3266 000A                     l2802 01FD  
                   l2810 0209                     l2730 00A5                     l2722 0095  
                   l2714 0085                     l2706 0075                     l3282 0034  
                   l4226 0030                     l4218 0008                     l3194 0002  
                   l3370 00B2                     l3362 0089                     l3354 0060  
                   l3346 003A                     l3338 001C                     l4170 007A  
                   l4162 0050                     l4154 002B                     l4146 0016  
                   l4074 034C                     l4066 032E                     l4058 0301  
                   l2650 002F                     l2642 0014                     l2634 0000  
                   l4090 0124                     l4082 0003                     l2554 0046  
                   l2546 0026                     l2562 005A                     l2538 0017  
                   l2570 0000                     l4410 04F0                     l4402 04C6  
                   l4330 0215                     l4322 019C                     l4314 0110  
                   l4306 00D0                     l4250 0049                     l4242 0020  
                   l3380 0007                     l3436 000F                     l3428 0000  
                   l2804 0200                     l2812 020D                     l2740 00E5  
                   l2732 00A9                     l2724 0099                     l2716 0089  
                   l2708 0079                     l2660 000D                     l3292 0042  
                   l3284 0036                     l3276 0016                     l4228 003E  
                   l3196 0006                     l3372 00B3                     l3364 0093  
                   l3356 0070                     l3348 0047                     l4172 0084  
                   l4180 009E                     l4164 0062                     l4156 003C  
                   l4076 034D                     l4068 0338                     l2644 0018  
                   l2636 0006                     l2652 0035                     l4092 012A  
                   l4084 0009                     l2564 005F                     l2556 004C  
                   l2548 002D                     l2580 0010                     l2572 0001  
                   l4420 0537                     l4412 04FF                     l4404 04D5  
                   l4340 0290                     l4332 0224                     l4324 01B7  
                   l4316 012F                     l4308 00E3                     l4260 00B5  
                   l4252 005E                     l4244 0029                     l4236 0000  
                   l4500 0000                     l3710 000E                     l3390 000E  
                   l3382 0008                     l3438 0010                     l2830 0255  
                   l2822 0220                     l2814 020E                     l2806 0202  
                   l2750 00FE                     l2742 00EE                     l2726 009D  
                   l2718 008D                     l2734 00AD                     l2670 0024  
                   l2662 0011                     l3286 003A                     l3294 0054  
                   l3278 002B                     l3198 0013                     l3366 00A9  
                   l3358 007B                     l4166 0070                     l4158 003E  
                   l4078 0358                     l2646 0022                     l2638 0009  
                   l2566 0064                     l2558 004D                     l2590 0029  
                   l2582 0015                     l2574 0005                     l4430 062A  
                   l4422 053F                     l4414 0508                     l4406 04DD  
                   l4350 02DE                     l4342 0299                     l4334 023F  
                   l4318 017A                     l4326 01BF                     l4270 00F7  
                   l4262 00B8                     l4254 007F                     l4246 002D  
                   l4238 000B                     l4510 0014                     l4502 000A  
                   l3720 001C                     l3712 0000                     l3392 0017  
                   l3384 0009                     l3376 0000                     l2840 0271  
                   l2832 025E                     l2824 0225                     l2816 0212  
                   l2808 0207                     l2760 011C                     l2744 00F0  
                   l2752 0102                     l2736 00AE                     l2728 00A1  
                   l2680 003A                     l2672 0025                     l2664 0012  
                   l2656 0000                     l4192 0000                     l3368 00AE  
                   l4168 0071                     l2648 0028                     l4096 01DD  
                   l2592 002D                     l2584 001B                     l2576 000A  
                   l4440 0694                     l4432 0632                     l4424 05B8  
                   l4416 0523                     l4408 04E3                     l4344 02A1  
                   l4336 0266                     l4352 02E7                     l4328 01CE  
                   l4280 000A                     l4272 00FD                     l4264 00BE  
                   l4256 0085                     l4248 0045                     l4600 01E9  
                   l4520 001B                     l4512 0015                     l4504 000E  
                   l3714 0001                     l3706 0001                     l3394 001D  
                   l3386 000C                     l3378 0006                     l3722 0000  
                   l3730 0000                     l2842 0275                     l2834 0263  
                   l2826 0233                     l2818 0218                     l2770 0146  
                   l2762 0133                     l2754 010E                     l2746 00F4  
                   l2738 00C5                     l2690 004B                     l2682 003B  
                   l2666 0017                     l2674 0027                     l2658 0007  
                   l4194 0012                     l4186 00A5                     l4178 008C  
                   l2594 0037                     l2586 001E                     l2578 000C  
                   l4450 06C2                     l4442 069A                     l4426 05FB  
                   l4434 0675                     l4418 0528                     l4370 03A8  
                   l4354 031C                     l4346 02BF                     l4338 0275  
                   l4290 0064                     l4282 003A                     l4266 00C1  
                   l4274 0000                     l4258 009D                     l4610 0242  
                   l4602 01F5                     l4530 0025                     l4522 001C  
                   l4514 0017                     l4506 000F                     l3716 0006  
                   l3708 0006                     l3396 0026                     l3388 000D  
                   l3724 0001                     l2844 0277                     l2836 026B  
                   l2828 0237                     l2780 016F                     l2772 014A  
                   l2764 0137                     l2756 0113                     l2748 00F5  
                   l2692 0050                     l2684 0041                     l2676 002F  
                   l2668 001C                     l4196 0015                     l4188 00B5  
                   l2596 003D                     l2588 0025                     l4460 070B  
                   l4452 06CD                     l4436 067D                     l4428 061A  
                   l4380 0407                     l4372 03D7                     l4364 034F  
                   l4356 034B                     l4292 006C                     l4284 004C  
                   l4444 06A1                     l4276 0004                     l4268 00D6  
                   l4620 0286                     l4612 0267                     l4604 01FE  
                   l4540 0034                     l4532 002C                     l4524 001D  
                   l4516 0019                     l4508 0012                     l3718 0016  
                   l3398 002C                     l3726 000F                     l2846 0282  
                   l2838 0270                     l2790 01DD                     l2782 01AD  
                   l2774 014B                     l2766 013B                     l2694 0058  
                   l2686 0045                     l2678 0034                     l4198 0022  
                   l3910 001F                     l3902 0003                     l2598 0044  
                   l4470 073C                     l4462 0713                     l4454 06E0  
                   l4446 06A9                     l4438 068C                     l4390 0440  
                   l4374 03DD                     l4358 034D                     l4294 0085  
                   l4286 0052                     l4622 028C                     l4614 026D  
                   l4606 0206                     l4550 0049                     l4542 003C  
                   l4534 002F                     l4526 0020                     l4518 001A  
                   l3728 0015                     l2848 0286                     l2792 01E2  
                   l2784 01B3                     l2776 0154                     l2768 0144  
                   l2696 0059                     l2688 0046                     l3912 0024  
                   l3904 0005                     l3920 000A                     l4480 0774  
                   l4472 0747                     l4464 0719                     l4456 06F1  
                   l4448 06B1                     l4392 0449                     l4376 03EF  
                   l4384 0410                     l4368 039A                     l4296 009E  
                   l4288 0056                     l4624 0290                     l4616 0277  
                   l4608 020C                     l4560 0062                     l4552 004A  
                   l4544 0044                     l4536 0030                     l4528 0021  
                   l2786 01B8                     l2778 0159                     l2698 005B  
                   l3906 000C                     l3930 002D                     l3922 000D  
                   l4482 077C                     l4474 075B                     l4466 072F  
                   l4458 06F9                     l4394 048C                     l4386 041F  
                   l4378 03F8                     l4298 00A2                     l4490 07AA  
                   l4618 027F                     l4570 0091                     l4562 006D  
                   l4554 0054                     l4546 0047                     l4538 0033  
                   l2796 01EB                     l2788 01C7                     l3908 0010  
                   l3932 0033                     l3924 0014                     l3916 0000  
                   l4484 0788                     l4476 075F                     l4468 0738  
                   l4396 04AB                     l4388 0433                     l4492 07D2  
                   l4580 012B                     l4572 0097                     l4564 0075  
                   l4556 0058                     l4548 0048                     l2990 0001  
                   l2798 01F4                     l3950 0012                     l3942 0000  
                   l3934 0034                     l3926 0018                     l3918 0004  
                   l4486 079A                     l4478 0765                     l4646 0032  
                   l4590 01BB                     l4582 0171                     l4574 009E  
                   l4566 007C                     l4558 005C                     l2992 0005  
                   l3960 002E                     l3952 0017                     l3944 0007  
                   l3936 003B                     l3928 001C                     l4592 01C4  
                   l4584 0186                     l4568 0089                     l4576 00A1  
                   l2994 0006                     l3970 0043                     l3962 0033  
                   l3954 001C                     l3946 000D                     l3938 0041  
                   l4594 01CB                     l4586 019D                     l4578 00E5  
                   l2996 000C                     l3980 005F                     l3972 0048  
                   l3964 0039                     l3956 0024                     l3948 0011  
                   l4596 01D4                     l4588 01B4                     l2998 0014  
                   l3990 008A                     l3982 0064                     l3974 0050  
                   l3966 003D                     l3958 0026                     l4598 01E0  
                   l3992 00A7                     l3976 0052                     l3968 003E  
                   l3994 00C3                     l3986 006D                     l3978 005A  
                   l3996 00EF                     l3988 007D                     ?_isr 0000  
                   l3998 010B                     STR_1 010F                     STR_2 010F  
                   STR_3 010F                     STR_4 00F0                     STR_5 00A2  
                   STR_6 00C1                     STR_7 0100                     STR_8 00DF  
                   u3000 0005                     u3001 0004                     u3010 0010  
                   u3011 000F                     u3020 001B                     u3021 001A  
                   u3040 002D                     u3041 002C                     u3210 0035  
                   u3050 0037                     u3211 0034                     u3051 0036  
                   u3035 001F                     u3300 006D                     u3220 0011  
                   u3301 006C                     u3221 0010                     u3205 0029  
                   u3310 00C5                     u3230 0017                     u3070 004A  
                   u3311 00C4                     u3231 0016                     u3071 0049  
                   u3055 0033                     u3320 00D0                     u3240 001C  
                   u3160 0006                     u3080 004F                     u3401 0125  
                   u3321 00CE                     u3241 001B                     u3161 0005  
                   u3081 004E                     u3065 003E                     u4050 0007  
                   u3410 0137                     u3402 012C                     u3330 00D1  
                   u3250 003A                     u5010 004D                     u4051 0006  
                   u3411 0136                     u3403 0133                     u3315 00C1  
                   u3251 0039                     u5011 004C                     u3500 01E2  
                   u3420 013B                     u3340 00E5                     u3260 0045  
                   u5100 00B2                     u3180 0018                     u3501 01E1  
                   u3421 013A                     u3341 00E4                     u3261 0044  
                   u5101 00B1                     u5005 003F                     u3181 0017  
                   u3430 014A                     u3350 00F4                     u3270 004B  
                   u5030 006F                     u3190 0022                     u4310 0008  
                   u3431 0149                     u3351 00F3                     u3271 004A  
                   u5031 006E                     u3191 0021                     u3175 000A  
                   u4311 0007                     u3600 0237                     u3520 01F8  
                   u3280 0050                     u4400 008A                     u6000 025E  
                   u4320 000E                     u3601 0236                     u3521 01F7  
                   u3281 004F                     u5025 0061                     u4401 0089  
                   u4321 000D                     u3610 0246                     u3530 01FD  
                   u3450 016F                     u3370 010A                     u3290 0069  
                   u5050 007F                     u4330 0013                     u3531 01FC  
                   u3515 01ED                     u3451 016E                     u3371 0109  
                   u3291 0068                     u5051 007E                     u4331 0012  
                   u6011 026A                     u3195 001E                     u3620 0255  
                   u3540 0207                     u3380 010E                     u5060 0085  
                   u4420 009C                     u4340 002D                     u6100 02D6  
                   u6012 0271                     u2900 0007                     u3621 0254  
                   u3541 0206                     u3461 0186                     u3453 016B  
                   u3445 014D                     u3381 010D                     u3365 00F7  
                   u5061 0084                     u5045 0074                     u4421 009B  
                   u4341 002C                     u6101 02D5                     u6013 0278  
                   u6005 0259                     u2901 0006                     u3630 025E  
                   u3550 020D                     u3470 019A                     u3462 0187  
                   u3390 0113                     u5070 0089                     u4430 00A3  
                   u6110 02E8                     u2910 0012                     u3631 025D  
                   u3615 0241                     u3551 020C                     u3471 019B  
                   u3463 018C                     u3391 0112                     u5071 0088  
                   u4431 00A2                     u4415 008C                     u6111 02E7  
                   u2911 0011                     u3640 0263                     u3560 0212  
                   u3480 01B8                     u3472 01A0                     u3464 018D  
                   u5080 009E                     u4360 0066                     u6120 02F7  
                   u6040 029C                     u6200 012A                     u2920 0023  
                   u7000 06A0                     u3641 0262                     u3561 0211  
                   u3481 01B7                     u3473 01A1                     u3465 0192  
                   u4361 0065                     u6041 029B                     u6025 027A  
                   u6201 0129                     u2921 0022                     u7001 069F  
                   u3650 0270                     u3570 0218                     u3490 01DD  
                   u3466 0193                     u5090 00AE                     u4450 00B4  
                   u6130 0314                     u7010 06A9                     u3651 026F  
                   u3571 0217                     u3491 01DC                     u5091 00AD  
                   u4451 00B3                     u4355 0051                     u6131 0313  
                   u6035 0291                     u7011 06A8                     u4700 0016  
                   u3660 0275                     u3580 021F                     u4620 0020  
                   u4380 007F                     u6140 032E                     u6060 02B0  
                   u2940 0035                     u7100 0765                     u7020 06B1  
                   u4701 0015                     u3661 0274                     u3581 021E  
                   u4621 001F                     u4605 000D                     u5085 0099  
                   u4445 00A6                     u4381 007E                     u4365 0062  
                   u6141 032D                     u6125 02F2                     u6061 02AF  
                   u2941 0034                     u7101 0764                     u7021 06B0  
                   u4710 0032                     u3670 0286                     u3590 0225  
                   u4390 0083                     u6150 034C                     u6070 02B5  
                   u7110 0788                     u7030 06C2                     u4711 0031  
                   u3671 0285                     u3591 0224                     u4615 0014  
                   u4391 0082                     u4375 0072                     u6151 034B  
                   u6135 0310                     u6071 02B4                     u6055 029F  
                   u6215 0147                     u2935 0027                     u7111 0787  
                   u7031 06C1                     u5600 0025                     u4720 004C  
                   u4800 0008                     u6080 02C9                     u6160 0009  
                   u2960 0046                     u6240 0007                     u7120 079A  
                   u7040 06E0                     u7200 027F                     u5601 0024  
                   u4721 004B                     u4801 0007                     u6145 032A  
                   u6081 02C8                     u6225 0198                     u6161 0008  
                   u2961 0045                     u6305 0122                     u6241 0006  
                   u7121 0799                     u7041 06DF                     u7201 027E  
                   u4730 0016                     u4810 000D                     u6410 000D  
                   u6090 02D0                     u6330 01D8                     u6250 0010  
                   u7130 07D2                     u7050 06F9                     u7210 028C  
                   u4731 0015                     u4811 000C                     u6411 000C  
                   u6091 02CF                     u6235 01E8                     u2955 0036  
                   u6331 01D7                     u6315 0162                     u6251 000F  
                   u7131 07CF                     u7051 06F8                     u7035 06BE  
                   u7211 028B                     u4740 0032                     u4900 0070  
                   u4820 0024                     u6500 009D                     u6420 0021  
                   u2980 005A                     u7060 070B                     u7140 0062  
                   u4725 0048                     u4741 0031                     u4901 006F  
                   u6501 009C                     u6421 0020                     u2981 0059  
                   u2965 0042                     u6405 036B                     u6325 01A3  
                   u7061 070A                     u7045 06DC                     u7141 0061  
                   u4750 003E                     u4830 003A                     u4590 0006  
                   u6510 00A4                     u5710 0024                     u2990 005F  
                   u7070 0719                     u7150 006D                     u4751 003D  
                   u4831 0039                     u4591 0005                     u6511 00A3  
                   u5711 0023                     u6175 0026                     u2991 005E  
                   u2975 004E                     u7071 0718                     u7151 006C  
                   u4840 0041                     u6600 005F                     u6440 0062  
                   u5800 0017                     u5720 000A                     u7080 072F  
                   u7160 0089                     u4761 004D                     u4841 0040  
                   u4825 001F                     u6601 005E                     u6441 0061  
                   u5705 0017                     u5801 0016                     u5721 0009  
                   u6185 0086                     u6345 01FA                     u6265 0032  
                   u7081 072E                     u7161 0088                     u4770 0066  
                   u4762 004E                     u6610 0008                     u6530 00B5  
                   u5810 001C                     u6370 02D7                     u6290 010F  
                   u7090 0747                     u7170 0206                     i1l91 0000  
                   u7307 005A                     u4771 0065                     u4763 0053  
                   u6611 0007                     u6531 00B4                     u6435 0049  
                   u5811 001B                     u6195 00DF                     u6371 02D6  
                   u6355 023B                     u6291 010E                     u6275 0073  
                   u7091 0746                     u7171 0205                     u7227 0029  
                   u5580 0006                     u4764 0054                     u4860 0053  
                   u6540 0012                     u6460 0080                     u5820 003D  
                   u5740 001C                     u6700 00B5                     u7180 020C  
                   u5581 0005                     u7317 0065                     u4781 0075  
                   u4765 0059                     u4861 0052                     u6541 0011  
                   u6525 00A7                     u6461 007F                     u6445 005E  
                   u5901 0119                     u5821 003C                     u5741 001B  
                   u6365 028B                     u6285 00C3                     u7085 072B  
                   u6701 00B2                     u7181 020B                     u7237 009B  
     __size_of_LCD_8Data 001D                     u5590 002C                     u4790 00A0  
                   u4782 0076                     u4766 005A                     u4870 005A  
                   u6630 001E                     u6470 0084                     u5902 0120  
                   u5830 0043                     u6710 0115                     u7190 026D  
                   u5591 002B                     u7327 006A                     u7247 0012  
                   u4791 009F                     u4783 007B                     u4871 0059  
                   u4855 0043                     u6631 001D                     u6471 0083  
                   u6455 0073                     u5903 0127                     u5831 0042  
                   u5735 000E                     u7095 0743                     u6711 0114  
                   u7191 026C                     u4784 007C                     u6560 0026  
                   u6640 0030                     u6480 008B                     u5840 0048  
                   u5760 002D                     u6800 0224                     u6720 004C  
                   u7337 0009                     u7257 0021                     u4785 0081  
                   u6561 0025                     u6641 002F                     u6625 000F  
                   u6481 008A                     u5921 014F                     u5841 0047  
                   u5761 002C                     u6385 02EA                     u6801 0223  
                   u6721 004B                     u4786 0082                     u4890 006B  
                   u4970 0008                     u5690 0010                     u5922 0156  
                   u5850 005F                     u6810 023F                     u6730 0052  
                   u7347 0011                     u7267 002E                     u4795 009C  
                   u4891 006A                     u6555 0017                     u4971 0007  
                   u5691 000F                     u5931 017C                     u5923 015D  
                   u5915 0129                     u5851 005E                     u5755 001D  
                   u6395 032A                     u6811 023E                     u6731 0051  
                   u6580 0041                     u6660 004D                     u4980 000C  
                   u5932 0183                     u5860 0064                     u5780 0041  
                   u6900 041F                     u6820 0266                     u6740 0085  
                   u7357 0003                     u7277 0039                     u4885 005D  
                   u6581 0040                     u6661 004C                     u6645 002C  
                   u4981 000B                     u5933 018A                     u5861 0063  
                   u5781 0040                     u5765 0029                     u6901 041E  
                   u6821 0265                     u6805 0220                     u6741 0084  
                   u4990 002C                     u5790 0011                     u6910 0433  
                   u6830 0275                     u6750 00BF                     u6670 0011  
                   u7367 0003                     u7287 0044                     u6575 0028  
                   u6655 003F                     u4991 002B                     u6495 008D  
                   u5951 01B2                     u5871 00B5                     u5791 0010  
                   u5775 0035                     u6911 0432                     u6831 0274  
                   u6751 00BE                     u6671 0010                     u5952 01B9  
                   u5872 00BC                     u6840 0290                     u6760 010A  
                   u6680 0045                     u7377 000E                     u7297 004F  
                   u6585 003D                     u5961 01DF                     u5953 01C0  
                   u5945 018C                     u5881 00D1                     u5873 00C3  
                   u6905 041B                     u6841 028F                     u6761 0109  
                   u6681 0044                     u5962 01E6                     u5882 00D8  
                   u6930 04C5                     u6770 0193                     u6690 009D  
                   u7387 0016                     u6595 0051                     u5971 020C  
                   u5963 01ED                     u5891 00FD                     u5883 00DF  
                   u6931 04C4                     u6835 0271                     u6771 0192  
                   u6691 009C                     u5980 0236                     u5972 0213  
                   u5892 0104                     u6940 04F0                     u6860 0399  
                   u6780 01B7                     u5973 021A                     u5893 010B  
                   u6941 04EF                     u6925 044E                     u6861 0398  
                   u6781 01B6                     u6950 04FF                     u6870 03A8  
                   u6790 01CE                     u5991 0242                     u6951 04FE  
                   u6871 03A7                     u6855 0354                     u6791 01CD  
                   u5992 0249                     u6960 0528                     u6880 03D7  
                   u5993 0250                     u5985 0231                     u6961 0527  
                   u6945 04EC                     u6881 03D6                     u6865 0395  
                   u6890 03EF                     u6955 04FB                     u6891 03EE  
                   u6795 01CA                     u6990 067C                     u6991 067B  
                   u6975 05BD                     u6985 0637                     _main 0000  
                   btemp 007E       __size_of_LCD_Init8 007A                     start 0000* 
           _sprintf$1192 0010                    ??_isr 0000          ??_LCD_8_comando 0002  
          ___fltol@sign1 003E          __end_of___fladd 0288                    ?_main 0000  
        __end_of___awdiv 0069          __end_of___flneg 000B          __end_of___awmod 0059  
        __end_of___flmul 0361          __end_of___flsub 0050          __end_of___fltol 007C  
                  _ANSEL 0188          __end_of___lldiv 0068          ___awdiv@divisor 0000  
        __end_of___llmod 0056          __end_of___lwdiv 0046          __end_of___lwmod 003A  
        ___awdiv@counter 0004                    _RCREG 001A                    _SPBRG 0099  
                  _PORTA 0005                    _PORTC 0007                    _PORTD 0008  
                  _PORTE 0009                    _TRISA 0085                    _TRISC 0087  
                  _TRISD 0088                    _TRISE 0089                    _TXREG 0019  
                  _dato1 0015                    _dato2 0014                    _comp1 0013  
                  _comp2 0012          __end_of_dpowers 00A2                    _scale 0000  
        __end_of_isdigit 0012         __end_of_USART_Rx 0004         __end_of_USART_Tx 000C  
           USART_Tx@data 0002                    pclath 000A                    status 0003  
                  wtemp0 007E          __end_of_sprintf 07DB              ?_USART_Init 0000  
        __initialization 0000             __end_of_main 0297        __end_of_LCD_8Data 001D  
                 ??_main 002A                ??_LCD_8XY 0005        __end_of_LCD_Init8 007A  
   __size_of__tdiv_to_l_ 00BD         ___llmod@dividend 0006                   ?_scale 0022  
                 _ADRESH 001E         ___awdiv@dividend 0002                   _ANSELH 0189  
   __size_of_LCD_8Cadena 002D                   _SPBRGH 009A         __end_of___xxtofl 00BC  
       __end_of__powers_ 0046                   ___flge 0000                   ___fleq 0000  
              ??___fladd 003E                   ___wmul 0000                ??___awdiv 0009  
              ??___flneg 0006                ??___awmod 0006                ??___flmul 0010  
              ??___flsub 000A                ??___fltol 0039                ??___lldiv 0000  
              ??___llmod 0000                ??___lwdiv 0008                ??___lwmod 0006  
                 _fround 0000         ___awdiv@quotient 0006          ___awmod@divisor 0002  
                 _valor1 001C                   _valor2 0016                   _valor3 0000  
        ___awmod@counter 0007                ??_isdigit 0002       __size_of__Umul8_16 0029  
                 saved_w 007E      __size_of_USART_Init 0015                ??_sprintf 004A  
             ___flge@ff1 0002               ___flge@ff2 0006             ___xxtofl@arg 0002  
           ___xxtofl@exp 0001             ___xxtofl@val 0002               ___fleq@ff1 0002  
             ___fleq@ff2 0006  __end_of__initialization 0013               ___flneg@f1 0002  
             ___fltol@f1 0035           __pcstackCOMMON 0000            __end_of_scale 0399  
              ?_USART_Rx 0000                ?_USART_Tx 0000               __div_to_l_ 0000  
        __div_to_l_@exp1 0006          __div_to_l_@cntr 0005                  ??_scale 0026  
        __div_to_l_@quot 0001             sprintf@width 001B               __pbssBANK1 0000  
             __pbssBANK3 0000               _data_menor 0000               _data_mayor 0001  
          __div_to_l_@f1 0002            __div_to_l_@f2 0006        __end_of__Umul8_16 0029  
             __pmaintext 0000                  ?___flge 0002                  ?___fleq 0002  
                ?___wmul 0002               __pintentry 0000                  ?_fround 0022  
             ??_USART_Rx 0002               ??_USART_Tx 0002                  _LCD_8XY 0000  
              ?___xxtofl 0002               __stringtab 0000             ??_USART_Init 0002  
      __end_of__npowers_ 007A               _scale$1191 0030          __size_of___flge 00A4  
        __size_of___fleq 0050                  ___fladd 0000                  ___awdiv 0000  
                ___flneg 0000                  ___awmod 0000                  ___flmul 0000  
                ___flsub 0000                  ___fltol 0000                  ___lldiv 0000  
        __size_of___wmul 0025                  ___llmod 0000                  ___lwdiv 0000  
                ___lwmod 0000          __size_of_fround 0225                  __ptext1 0000  
                __ptext2 0000                  __ptext3 0000                  __ptext4 0000  
                __ptext5 0000                  __ptext6 0000                  __ptext7 0000  
                __ptext8 0000                  __ptext9 0000    __end_of_LCD_8_comando 0018  
            ?__div_to_l_ 0002                  _dpowers 007A                  _ingreso 0011  
              _LCD_8Data 0000                  _isdigit 0000             __size_of_isr 0007  
             ??___xxtofl 0006         ___awmod@dividend 0004                _LCD_Init8 0000  
     __end_of_USART_Init 0015                  _sprintf 0000                  clrloop0 0001  
   end_of_initialization 0013          ___lldiv@divisor 0002          ___lldiv@counter 0005  
              _RCSTAbits 0018                  psplit$0 C002E             __pstringtext 0000  
         __tdiv_to_l_@f1 0002           __tdiv_to_l_@f2 0006            ??__tdiv_to_l_ 0000  
              _PORTCbits 0007              ___fladd@grs 0049               ?_LCD_8Data 0000  
          ___xxtofl@sign 0000                _TRISCbits 0087            ??_LCD_8Cadena 0006  
             ?_LCD_Init8 0000            ?_USART_Cadena 0003              ___flmul@grs 0017  
              _TXSTAbits 0098      __size_of__div_to_l_ 00BE           __end_of___flge 00A4  
         __end_of___fleq 0050           __end_of___wmul 0025        pnum$text1_split_1 002E  
            _BAUDCTLbits 0187           __end_of_fround 0225        __size_of_USART_Rx 0004  
      __size_of_USART_Tx 000C      start_initialization 0000      __end_of__tdiv_to_l_ 00BD  
            __end_of_isr 0007           ??_USART_Cadena 0005      __end_of_LCD_8Cadena 002D  
        ___llmod@divisor 0002          ___llmod@counter 0001                 ??___flge 0000  
               ??___fleq 0000                 ??___wmul 0006                __Umul8_16 0000  
               ??_fround 0026            sprintf@tmpval 001D                ___fladd@a 003A  
              ___fladd@b 0036                 LCD_8XY@x 0005                 LCD_8XY@y 0004  
               ?_LCD_8XY 0004               fround@prec 0035              ??_LCD_8Data 0002  
              ___flmul@a 000C                ___flmul@b 0008              __pbssCOMMON 0000  
              ___flsub@a 0000                ___flsub@b 0004                ___latbits 0002  
          __pcstackBANK0 0000            __pcstackBANK1 0000              ??_LCD_Init8 0004  
      __size_of___xxtofl 00BC             _isdigit$1000 0002              sprintf@flag 0019  
            sprintf@eexp 0021              sprintf@fval 0023              sprintf@prec 0027  
        LCD_8Cadena@dato 0004         ___lwdiv@dividend 0002                 ?___fladd 0036  
               ?___awdiv 0000                 ?___flneg 0002                 ?___awmod 0002  
               ?___flmul 0008                 ?___flsub 0000                 ?___fltol 0035  
               ?___lldiv 0002                 ?___llmod 0002                __npowers_ 0046  
             ?__Umul8_16 0002                 ?___lwdiv 0000                 ?___lwmod 0002  
            __tdiv_to_l_ 0000             ??__div_to_l_ 0000                 ?_isdigit 0000  
       ___lwdiv@quotient 0005              _LCD_8Cadena 0000                 ?_sprintf 0008  
         __size_of_scale 0399        interrupt_function 0000           ___wmul@product 0006  
              clear_ram0 0000                 _PIR1bits 000C       __end_of__div_to_l_ 00BE  
        USART_Cadena@str 0003     __end_of_USART_Cadena 0026                 _USART_Rx 0000  
               _USART_Tx 0000               _ADCON0bits 001F              __stringbase 0012  
             _ADCON1bits 009F        ___wmul@multiplier 0002         __size_of_LCD_8XY 0016  
 __size_of_LCD_8_comando 0018              ??__Umul8_16 0004         __size_of___fladd 0288  
       __size_of___awdiv 0069         __size_of___flneg 000B         __size_of___awmod 0059  
       __size_of___flmul 0361         __size_of___flsub 0050         __size_of___fltol 007C  
       __size_of___lldiv 0068         __size_of___llmod 0056         __size_of___lwdiv 0046  
       __size_of___lwmod 003A              _fround$1190 002D              _fround$1189 0031  
     __end_of__stringtab 0012               sprintf@val 0015                 ___xxtofl 0000  
       __size_of_isdigit 0012          ___lwdiv@divisor 0000          ___lwdiv@counter 0004  
               __ptext10 0000                 __ptext11 0000                 __ptext20 0000  
               __ptext12 0000                 __ptext21 0000                 __ptext13 0000  
               __ptext30 0000                 __ptext22 0000                 __ptext14 0000  
               __ptext31 0000                 __ptext23 0000                 __ptext15 0000  
               __ptext32 0000                 __ptext24 0000                 __ptext16 0000  
               __ptext25 0000                 __ptext17 0000                 __ptext26 0000  
               __ptext18 0000                 __ptext27 0000                 __ptext19 0000  
               __ptext28 0000                 __ptext29 0000                 __powers_ 0012  
      LCD_8_comando@dato 0003         __size_of_sprintf 0000            __size_of_main 0297  
              pnum$text1 000C                 _noentero 0000                 _voltaje1 000C  
               _voltaje2 0008                 _voltaje3 0004            _LCD_8_comando 0000  
               isdigit@c 0003                 scale@scl 0034                 intlevel1 0000* 
              sprintf@ap 0014         __tdiv_to_l_@exp1 0009         __tdiv_to_l_@cntr 0008  
              sprintf@sp 0008         __tdiv_to_l_@quot 0004         ___lwmod@dividend 0004  
       ___lldiv@dividend 0006            LCD_8Data@data 0003                stringcode 000A  
  __size_of_USART_Cadena 0026               _OSCCONbits 008F             ?__tdiv_to_l_ 0002  
         ?_LCD_8_comando 0000   __Umul8_16@multiplicand 0002                 sprintf@c 0029  
               sprintf@f 000A         ___lldiv@quotient 0001          ___lwmod@divisor 0002  
        ___lwmod@counter 0007                 stringtab 0000             ?_LCD_8Cadena 0004  
          ___fladd@signs 0046             _USART_Cadena 0000             ___fladd@aexp 0047  
           ___fladd@bexp 0048     __Umul8_16@multiplier 0004               _USART_Init 0000  
      __Umul8_16@product 0000  
